---
triple:          'arm64-apple-darwin'
binary-path:     '/Users/aryanbansal/Documents/congressional_app/build/ios/Release-iphoneos/gRPC-C++/grpcpp.framework/grpcpp'
relocations:
  - { offset: 0x33, size: 0x8, addend: 0x0, symName: _grpcppVersionString, symObjAddr: 0x0, symBinAddr: 0x32690, symSize: 0x0 }
  - { offset: 0x67, size: 0x8, addend: 0x0, symName: _grpcppVersionNumber, symObjAddr: 0x28, symBinAddr: 0x326B8, symSize: 0x0 }
  - { offset: 0xBA, size: 0x8, addend: 0x0, symName: __ZN9grpc_core19NoDestructSingletonINS_14promise_detail10UnwakeableEE6value_E, symObjAddr: 0x2298, symBinAddr: 0x48FE8, symSize: 0x0 }
  - { offset: 0xD8F7, size: 0x8, addend: 0x0, symName: __ZNSt3__124__put_character_sequenceB8ne180100IcNS_11char_traitsIcEEEERNS_13basic_ostreamIT_T0_EES7_PKS4_m, symObjAddr: 0xE94, symBinAddr: 0x4E94, symSize: 0x164 }
  - { offset: 0xE67F, size: 0x8, addend: 0x0, symName: __ZNSt3__116__pad_and_outputB8ne180100IcNS_11char_traitsIcEEEENS_19ostreambuf_iteratorIT_T0_EES6_PKS4_S8_S8_RNS_8ios_baseES4_, symObjAddr: 0xFF8, symBinAddr: 0x4FF8, symSize: 0x13C }
  - { offset: 0xED41, size: 0x8, addend: 0x0, symName: __ZNSt3__120__throw_length_errorB8ne180100EPKc, symObjAddr: 0x11F0, symBinAddr: 0x51F0, symSize: 0x50 }
  - { offset: 0xEE3D, size: 0x8, addend: 0x0, symName: __ZNSt3__125__throw_bad_function_callB8ne180100Ev, symObjAddr: 0x1AB8, symBinAddr: 0x5AB8, symSize: 0x34 }
  - { offset: 0x1557D, size: 0x8, addend: 0x0, symName: __ZN4absl12lts_2024011622internal_any_invocable12LocalInvokerILb0EvRZN4grpc8internal9AlarmImpl3SetEPNS3_15CompletionQueueE12gpr_timespecPvEUlvE_JEEET0_PNS1_15TypeErasedStateEDpNS1_18ForwardedParameterIT2_E4typeE, symObjAddr: 0xAD8, symBinAddr: 0x4AD8, symSize: 0x4 }
  - { offset: 0x155B8, size: 0x8, addend: 0x0, symName: __ZN4absl12lts_2024011622internal_any_invocable12LocalInvokerILb0EvRZN4grpc8internal9AlarmImpl3SetEPNS3_15CompletionQueueE12gpr_timespecPvEUlvE_JEEET0_PNS1_15TypeErasedStateEDpNS1_18ForwardedParameterIT2_E4typeE, symObjAddr: 0xAD8, symBinAddr: 0x4AD8, symSize: 0x4 }
  - { offset: 0x155D4, size: 0x8, addend: 0x0, symName: __ZN4absl12lts_2024011622internal_any_invocable12LocalInvokerILb0EvRZN4grpc8internal9AlarmImpl3SetEPNS3_15CompletionQueueE12gpr_timespecPvEUlvE_JEEET0_PNS1_15TypeErasedStateEDpNS1_18ForwardedParameterIT2_E4typeE, symObjAddr: 0xAD8, symBinAddr: 0x4AD8, symSize: 0x4 }
  - { offset: 0x155F2, size: 0x8, addend: 0x0, symName: __ZN4absl12lts_2024011622internal_any_invocable12LocalInvokerILb0EvRZN4grpc8internal9AlarmImpl3SetEPNS3_15CompletionQueueE12gpr_timespecPvEUlvE_JEEET0_PNS1_15TypeErasedStateEDpNS1_18ForwardedParameterIT2_E4typeE, symObjAddr: 0xAD8, symBinAddr: 0x4AD8, symSize: 0x4 }
  - { offset: 0x15623, size: 0x8, addend: 0x0, symName: __ZN4absl12lts_2024011622internal_any_invocable19LocalManagerTrivialENS1_14FunctionToCallEPNS1_15TypeErasedStateES4_, symObjAddr: 0x18E0, symBinAddr: 0x58E0, symSize: 0xC }
  - { offset: 0x15697, size: 0x8, addend: 0x0, symName: __ZN4absl12lts_2024011622internal_any_invocable12LocalInvokerILb0EvRZN4grpc8internal9AlarmImpl3SetE12gpr_timespecNSt3__18functionIFvbEEEEUlvE_JEEET0_PNS1_15TypeErasedStateEDpNS1_18ForwardedParameterIT2_E4typeE, symObjAddr: 0x19EC, symBinAddr: 0x59EC, symSize: 0xC }
  - { offset: 0x15789, size: 0x8, addend: 0x0, symName: __ZN4absl12lts_2024011622internal_any_invocable12LocalInvokerILb0EvRZN4grpc8internal9AlarmImpl6CancelEvEUlvE_JEEET0_PNS1_15TypeErasedStateEDpNS1_18ForwardedParameterIT2_E4typeE, symObjAddr: 0x1B04, symBinAddr: 0x5B04, symSize: 0xC }
  - { offset: 0x1587B, size: 0x8, addend: 0x0, symName: __ZN4absl12lts_2024011622internal_any_invocable12LocalInvokerILb0EvRZN4grpc8internal9AlarmImpl6CancelEvEUlvE0_JEEET0_PNS1_15TypeErasedStateEDpNS1_18ForwardedParameterIT2_E4typeE, symObjAddr: 0x1B10, symBinAddr: 0x5B10, symSize: 0x4 }
  - { offset: 0x158B6, size: 0x8, addend: 0x0, symName: __ZN4absl12lts_2024011622internal_any_invocable12LocalInvokerILb0EvRZN4grpc8internal9AlarmImpl6CancelEvEUlvE0_JEEET0_PNS1_15TypeErasedStateEDpNS1_18ForwardedParameterIT2_E4typeE, symObjAddr: 0x1B10, symBinAddr: 0x5B10, symSize: 0x4 }
  - { offset: 0x158D2, size: 0x8, addend: 0x0, symName: __ZN4absl12lts_2024011622internal_any_invocable12LocalInvokerILb0EvRZN4grpc8internal9AlarmImpl6CancelEvEUlvE0_JEEET0_PNS1_15TypeErasedStateEDpNS1_18ForwardedParameterIT2_E4typeE, symObjAddr: 0x1B10, symBinAddr: 0x5B10, symSize: 0x4 }
  - { offset: 0x158F0, size: 0x8, addend: 0x0, symName: __ZN4absl12lts_2024011622internal_any_invocable12LocalInvokerILb0EvRZN4grpc8internal9AlarmImpl6CancelEvEUlvE0_JEEET0_PNS1_15TypeErasedStateEDpNS1_18ForwardedParameterIT2_E4typeE, symObjAddr: 0x1B10, symBinAddr: 0x5B10, symSize: 0x4 }
  - { offset: 0x18ACB, size: 0x8, addend: 0x0, symName: __ZN4absl12lts_2024011612log_internal17MakeCheckOpStringIPKvRKDnEEPNSt3__112basic_stringIcNS7_11char_traitsIcEENS7_9allocatorIcEEEET_T0_PKc, symObjAddr: 0xDF8, symBinAddr: 0x4DF8, symSize: 0x9C }
  - { offset: 0x1BD00, size: 0x8, addend: 0x0, symName: __ZN4grpc8internal9AlarmImpl3SetEPNS_15CompletionQueueE12gpr_timespecPv, symObjAddr: 0xD8, symBinAddr: 0x40D8, symSize: 0x268 }
  - { offset: 0x1C2F2, size: 0x8, addend: 0x0, symName: __ZN4grpc8internal9AlarmImpl3SetE12gpr_timespecNSt3__18functionIFvbEEE, symObjAddr: 0x428, symBinAddr: 0x4428, symSize: 0x214 }
  - { offset: 0x1C7F5, size: 0x8, addend: 0x0, symName: __ZN4grpc8internal9AlarmImpl6CancelEv, symObjAddr: 0x6F0, symBinAddr: 0x46F0, symSize: 0x158 }
  - { offset: 0x1CEAD, size: 0x8, addend: 0x0, symName: __ZN4grpc5AlarmC2Ev, symObjAddr: 0x0, symBinAddr: 0x4000, symSize: 0x8C }
  - { offset: 0x1CF54, size: 0x8, addend: 0x0, symName: __ZN4grpc8internal9AlarmImplC2Ev, symObjAddr: 0x860, symBinAddr: 0x4860, symSize: 0xC4 }
  - { offset: 0x1D2BF, size: 0x8, addend: 0x0, symName: __ZN4grpc8internal11GrpcLibraryD2Ev, symObjAddr: 0x8C, symBinAddr: 0x408C, symSize: 0x40 }
  - { offset: 0x1D300, size: 0x8, addend: 0x0, symName: __ZN4grpc5AlarmC1Ev, symObjAddr: 0xCC, symBinAddr: 0x40CC, symSize: 0x4 }
  - { offset: 0x1D32E, size: 0x8, addend: 0x0, symName: __ZN4grpc5AlarmC1Ev, symObjAddr: 0xCC, symBinAddr: 0x40CC, symSize: 0x4 }
  - { offset: 0x1D342, size: 0x8, addend: 0x0, symName: __ZN4grpc5Alarm11SetInternalEPNS_15CompletionQueueE12gpr_timespecPv, symObjAddr: 0xD0, symBinAddr: 0x40D0, symSize: 0x8 }
  - { offset: 0x1D851, size: 0x8, addend: 0x0, symName: __ZN9grpc_core7ExecCtxC2Ev, symObjAddr: 0xA48, symBinAddr: 0x4A48, symSize: 0x70 }
  - { offset: 0x1D951, size: 0x8, addend: 0x0, symName: __ZN9grpc_core7ExecCtxD2Ev, symObjAddr: 0x18EC, symBinAddr: 0x58EC, symSize: 0x70 }
  - { offset: 0x1DADC, size: 0x8, addend: 0x0, symName: __ZN4grpc5Alarm11SetInternalE12gpr_timespecNSt3__18functionIFvbEEE, symObjAddr: 0x340, symBinAddr: 0x4340, symSize: 0xE8 }
  - { offset: 0x1DCE8, size: 0x8, addend: 0x0, symName: __ZNSt3__110__function12__value_funcIFvbEEC2B8ne180100EOS3_, symObjAddr: 0x1B84, symBinAddr: 0x5B84, symSize: 0x64 }
  - { offset: 0x1DEE9, size: 0x8, addend: 0x0, symName: __ZNSt3__110__function12__value_funcIFvbEEaSB8ne180100EOS3_, symObjAddr: 0x195C, symBinAddr: 0x595C, symSize: 0x90 }
  - { offset: 0x1DF6E, size: 0x8, addend: 0x0, symName: __ZN4grpc5AlarmD2Ev, symObjAddr: 0x63C, symBinAddr: 0x463C, symSize: 0x3C }
  - { offset: 0x1DFB7, size: 0x8, addend: 0x0, symName: __ZN4grpc8internal9AlarmImpl7DestroyEv, symObjAddr: 0x678, symBinAddr: 0x4678, symSize: 0x48 }
  - { offset: 0x1E05E, size: 0x8, addend: 0x0, symName: __ZN4grpc5AlarmD1Ev, symObjAddr: 0x6D0, symBinAddr: 0x46D0, symSize: 0x4 }
  - { offset: 0x1E081, size: 0x8, addend: 0x0, symName: __ZN4grpc5AlarmD1Ev, symObjAddr: 0x6D0, symBinAddr: 0x46D0, symSize: 0x4 }
  - { offset: 0x1E0B6, size: 0x8, addend: 0x0, symName: __ZN4grpc5AlarmD0Ev, symObjAddr: 0x6D4, symBinAddr: 0x46D4, symSize: 0x14 }
  - { offset: 0x1E114, size: 0x8, addend: 0x0, symName: __ZN4grpc5Alarm6CancelEv, symObjAddr: 0x6E8, symBinAddr: 0x46E8, symSize: 0x8 }
  - { offset: 0x1E467, size: 0x8, addend: 0x0, symName: __ZN4grpc8internal11GrpcLibraryD1Ev, symObjAddr: 0x848, symBinAddr: 0x4848, symSize: 0x4 }
  - { offset: 0x1E48A, size: 0x8, addend: 0x0, symName: __ZN4grpc8internal11GrpcLibraryD1Ev, symObjAddr: 0x848, symBinAddr: 0x4848, symSize: 0x4 }
  - { offset: 0x1E4B8, size: 0x8, addend: 0x0, symName: __ZN4grpc8internal11GrpcLibraryD0Ev, symObjAddr: 0x84C, symBinAddr: 0x484C, symSize: 0x14 }
  - { offset: 0x1E698, size: 0x8, addend: 0x0, symName: __ZNSt3__110shared_ptrIN17grpc_event_engine12experimental11EventEngineEED2B8ne180100Ev, symObjAddr: 0x984, symBinAddr: 0x4984, symSize: 0x58 }
  - { offset: 0x1E72C, size: 0x8, addend: 0x0, symName: __ZN4grpc8internal9AlarmImplD1Ev, symObjAddr: 0x924, symBinAddr: 0x4924, symSize: 0x4 }
  - { offset: 0x1E74F, size: 0x8, addend: 0x0, symName: __ZN4grpc8internal9AlarmImplD1Ev, symObjAddr: 0x924, symBinAddr: 0x4924, symSize: 0x4 }
  - { offset: 0x1E763, size: 0x8, addend: 0x0, symName: __ZN4grpc8internal9AlarmImplD2Ev, symObjAddr: 0x9DC, symBinAddr: 0x49DC, symSize: 0x68 }
  - { offset: 0x1E861, size: 0x8, addend: 0x0, symName: __ZN4grpc8internal9AlarmImplD0Ev, symObjAddr: 0x928, symBinAddr: 0x4928, symSize: 0x14 }
  - { offset: 0x1E8BD, size: 0x8, addend: 0x0, symName: __ZN4grpc8internal9AlarmImpl14FinalizeResultEPPvPb, symObjAddr: 0x93C, symBinAddr: 0x493C, symSize: 0x48 }
  - { offset: 0x1E96F, size: 0x8, addend: 0x0, symName: __ZN9grpc_core7ExecCtxD1Ev, symObjAddr: 0xA44, symBinAddr: 0x4A44, symSize: 0x4 }
  - { offset: 0x1E992, size: 0x8, addend: 0x0, symName: __ZN9grpc_core7ExecCtxD1Ev, symObjAddr: 0xA44, symBinAddr: 0x4A44, symSize: 0x4 }
  - { offset: 0x1E9E1, size: 0x8, addend: 0x0, symName: __ZN9grpc_core7ExecCtxD0Ev, symObjAddr: 0xAB8, symBinAddr: 0x4AB8, symSize: 0x18 }
  - { offset: 0x1EA6A, size: 0x8, addend: 0x0, symName: __ZN9grpc_core7ExecCtx18CheckReadyToFinishEv, symObjAddr: 0xAD0, symBinAddr: 0x4AD0, symSize: 0x8 }
  - { offset: 0x1EA91, size: 0x8, addend: 0x0, symName: __ZN4absl12lts_2024011613base_internal8Callable6InvokeIRZN4grpc8internal9AlarmImpl3SetEPNS4_15CompletionQueueE12gpr_timespecPvEUlvE_JEEEDTclclsr3stdE7declvalIT_EEspclsr3stdE7declvalIT0_EEEEOSD_DpOSE_, symObjAddr: 0xADC, symBinAddr: 0x4ADC, symSize: 0x60 }
  - { offset: 0x1ED40, size: 0x8, addend: 0x0, symName: __ZN4grpc8internal9AlarmImpl9OnCQAlarmEN4absl12lts_202401166StatusE, symObjAddr: 0xB3C, symBinAddr: 0x4B3C, symSize: 0x10C }
  - { offset: 0x1F200, size: 0x8, addend: 0x0, symName: __ZN9grpc_core26ApplicationCallbackExecCtx3SetEPS0_m, symObjAddr: 0xC78, symBinAddr: 0x4C78, symSize: 0x54 }
  - { offset: 0x1F309, size: 0x8, addend: 0x0, symName: __ZN9grpc_core26ApplicationCallbackExecCtxD2Ev, symObjAddr: 0xCD0, symBinAddr: 0x4CD0, symSize: 0x128 }
  - { offset: 0x1F545, size: 0x8, addend: 0x0, symName: __ZN4absl12lts_202401166StatusD1Ev, symObjAddr: 0xC48, symBinAddr: 0x4C48, symSize: 0x30 }
  - { offset: 0x1F5A2, size: 0x8, addend: 0x0, symName: __ZZN4grpc8internal9AlarmImpl9OnCQAlarmEN4absl12lts_202401166StatusEENUlPvP18grpc_cq_completionE_8__invokeES5_S7_, symObjAddr: 0xCCC, symBinAddr: 0x4CCC, symSize: 0x4 }
  - { offset: 0x1F6DD, size: 0x8, addend: 0x0, symName: __ZN4absl12lts_2024011612log_internal21CheckOpMessageBuilderD2Ev, symObjAddr: 0x1264, symBinAddr: 0x5264, symSize: 0x8C }
  - { offset: 0x1FBAD, size: 0x8, addend: 0x0, symName: __ZNSt3__112basic_stringIcNS_11char_traitsIcEENS_9allocatorIcEEEC2B8ne180100Emc, symObjAddr: 0x1134, symBinAddr: 0x5134, symSize: 0xA8 }
  - { offset: 0x1FDF1, size: 0x8, addend: 0x0, symName: __ZNKSt3__112basic_stringIcNS_11char_traitsIcEENS_9allocatorIcEEE20__throw_length_errorB8ne180100Ev, symObjAddr: 0x11DC, symBinAddr: 0x51DC, symSize: 0x14 }
  - { offset: 0x1FF5E, size: 0x8, addend: 0x0, symName: __ZNKSt3__112basic_stringIcNS_11char_traitsIcEENS_9allocatorIcEEE20__throw_length_errorB8ne180100Ev, symObjAddr: 0x11DC, symBinAddr: 0x51DC, symSize: 0x14 }
  - { offset: 0x1FF88, size: 0x8, addend: 0x0, symName: __ZNSt3__120__throw_length_errorB8ne180100EPKc, symObjAddr: 0x11F0, symBinAddr: 0x51F0, symSize: 0x50 }
  - { offset: 0x1FF93, size: 0x8, addend: 0x0, symName: __ZNSt12length_errorC1B8ne180100EPKc, symObjAddr: 0x1240, symBinAddr: 0x5240, symSize: 0x24 }
  - { offset: 0x200A4, size: 0x8, addend: 0x0, symName: __ZNSt3__119basic_ostringstreamIcNS_11char_traitsIcEENS_9allocatorIcEEED1Ev, symObjAddr: 0x12F0, symBinAddr: 0x52F0, symSize: 0x8C }
  - { offset: 0x20238, size: 0x8, addend: 0x0, symName: __ZTv0_n24_NSt3__119basic_ostringstreamIcNS_11char_traitsIcEENS_9allocatorIcEEED1Ev, symObjAddr: 0x137C, symBinAddr: 0x537C, symSize: 0x8C }
  - { offset: 0x203DF, size: 0x8, addend: 0x0, symName: __ZNSt3__119basic_ostringstreamIcNS_11char_traitsIcEENS_9allocatorIcEEED0Ev, symObjAddr: 0x1408, symBinAddr: 0x5408, symSize: 0x8C }
  - { offset: 0x205AB, size: 0x8, addend: 0x0, symName: __ZTv0_n24_NSt3__119basic_ostringstreamIcNS_11char_traitsIcEENS_9allocatorIcEEED0Ev, symObjAddr: 0x1494, symBinAddr: 0x5494, symSize: 0x94 }
  - { offset: 0x2076E, size: 0x8, addend: 0x0, symName: __ZNSt3__115basic_stringbufIcNS_11char_traitsIcEENS_9allocatorIcEEED1Ev, symObjAddr: 0x1528, symBinAddr: 0x5528, symSize: 0x40 }
  - { offset: 0x208D8, size: 0x8, addend: 0x0, symName: __ZNSt3__115basic_stringbufIcNS_11char_traitsIcEENS_9allocatorIcEEED0Ev, symObjAddr: 0x1568, symBinAddr: 0x5568, symSize: 0x44 }
  - { offset: 0x20B81, size: 0x8, addend: 0x0, symName: __ZNSt3__115basic_stringbufIcNS_11char_traitsIcEENS_9allocatorIcEEE7seekoffExNS_8ios_base7seekdirEj, symObjAddr: 0x15AC, symBinAddr: 0x55AC, symSize: 0x100 }
  - { offset: 0x20DAD, size: 0x8, addend: 0x0, symName: __ZNSt3__115basic_stringbufIcNS_11char_traitsIcEENS_9allocatorIcEEE7seekposENS_4fposI11__mbstate_tEEj, symObjAddr: 0x16AC, symBinAddr: 0x56AC, symSize: 0x18 }
  - { offset: 0x20E50, size: 0x8, addend: 0x0, symName: __ZNSt3__115basic_stringbufIcNS_11char_traitsIcEENS_9allocatorIcEEE9underflowEv, symObjAddr: 0x16C4, symBinAddr: 0x56C4, symSize: 0x50 }
  - { offset: 0x20EF4, size: 0x8, addend: 0x0, symName: __ZNSt3__115basic_stringbufIcNS_11char_traitsIcEENS_9allocatorIcEEE9pbackfailEi, symObjAddr: 0x1714, symBinAddr: 0x5714, symSize: 0x6C }
  - { offset: 0x210C6, size: 0x8, addend: 0x0, symName: __ZNSt3__115basic_stringbufIcNS_11char_traitsIcEENS_9allocatorIcEEE8overflowEi, symObjAddr: 0x1780, symBinAddr: 0x5780, symSize: 0x160 }
  - { offset: 0x214B6, size: 0x8, addend: 0x0, symName: __ZN4grpc8internal9AlarmImpl15OnCallbackAlarmEb, symObjAddr: 0x19F8, symBinAddr: 0x59F8, symSize: 0xC0 }
  - { offset: 0x21820, size: 0x8, addend: 0x0, symName: __ZNSt3__117bad_function_callD1Ev, symObjAddr: 0x1AEC, symBinAddr: 0x5AEC, symSize: 0x4 }
  - { offset: 0x21842, size: 0x8, addend: 0x0, symName: __ZNSt3__117bad_function_callD1Ev, symObjAddr: 0x1AEC, symBinAddr: 0x5AEC, symSize: 0x4 }
  - { offset: 0x21876, size: 0x8, addend: 0x0, symName: __ZNSt3__117bad_function_callD0Ev, symObjAddr: 0x1AF0, symBinAddr: 0x5AF0, symSize: 0x14 }
  - { offset: 0x21922, size: 0x8, addend: 0x0, symName: __ZN4absl12lts_2024011613base_internal8Callable6InvokeIRZN4grpc8internal9AlarmImpl6CancelEvEUlvE0_JEEEDTclclsr3stdE7declvalIT_EEspclsr3stdE7declvalIT0_EEEEOS9_DpOSA_, symObjAddr: 0x1B14, symBinAddr: 0x5B14, symSize: 0x70 }
  - { offset: 0x23D9D, size: 0x8, addend: 0x0, symName: __ZN4grpc19AsyncGenericService11RequestCallEPNS_20GenericServerContextEPNS_23ServerAsyncReaderWriterINS_10ByteBufferES4_EEPNS_15CompletionQueueEPNS_21ServerCompletionQueueEPv, symObjAddr: 0x0, symBinAddr: 0x5C1C, symSize: 0x8 }
  - { offset: 0x43098, size: 0x8, addend: 0x0, symName: __ZN4grpc19AsyncGenericService11RequestCallEPNS_20GenericServerContextEPNS_23ServerAsyncReaderWriterINS_10ByteBufferES4_EEPNS_15CompletionQueueEPNS_21ServerCompletionQueueEPv, symObjAddr: 0x0, symBinAddr: 0x5C1C, symSize: 0x8 }
  - { offset: 0x4313E, size: 0x8, addend: 0x0, symName: __ZN4grpc15ServerInterface23RequestAsyncGenericCallEPNS_20GenericServerContextEPNS_8internal29ServerAsyncStreamingInterfaceEPNS_15CompletionQueueEPNS_21ServerCompletionQueueEPv, symObjAddr: 0x8, symBinAddr: 0x5C24, symSize: 0x98 }
  - { offset: 0x451BA, size: 0x8, addend: 0x0, symName: __ZN4grpc20AuthPropertyIteratorC2Ev, symObjAddr: 0x0, symBinAddr: 0x5CBC, symSize: 0xC }
  - { offset: 0x47654, size: 0x8, addend: 0x0, symName: __ZN4grpc20AuthPropertyIteratorC2Ev, symObjAddr: 0x0, symBinAddr: 0x5CBC, symSize: 0xC }
  - { offset: 0x47695, size: 0x8, addend: 0x0, symName: __ZN4grpc20AuthPropertyIteratorC1Ev, symObjAddr: 0xC, symBinAddr: 0x5CC8, symSize: 0xC }
  - { offset: 0x476C2, size: 0x8, addend: 0x0, symName: __ZN4grpc20AuthPropertyIteratorC1Ev, symObjAddr: 0xC, symBinAddr: 0x5CC8, symSize: 0xC }
  - { offset: 0x476DC, size: 0x8, addend: 0x0, symName: __ZN4grpc20AuthPropertyIteratorC2EPK18grpc_auth_propertyPK27grpc_auth_property_iterator, symObjAddr: 0x18, symBinAddr: 0x5CD4, symSize: 0x18 }
  - { offset: 0x4773C, size: 0x8, addend: 0x0, symName: __ZN4grpc20AuthPropertyIteratorC1EPK18grpc_auth_propertyPK27grpc_auth_property_iterator, symObjAddr: 0x30, symBinAddr: 0x5CEC, symSize: 0x18 }
  - { offset: 0x47785, size: 0x8, addend: 0x0, symName: __ZN4grpc20AuthPropertyIteratorC1EPK18grpc_auth_propertyPK27grpc_auth_property_iterator, symObjAddr: 0x30, symBinAddr: 0x5CEC, symSize: 0x18 }
  - { offset: 0x477AD, size: 0x8, addend: 0x0, symName: __ZN4grpc20AuthPropertyIteratorD2Ev, symObjAddr: 0x48, symBinAddr: 0x5D04, symSize: 0x4 }
  - { offset: 0x477D8, size: 0x8, addend: 0x0, symName: __ZN4grpc20AuthPropertyIteratorD1Ev, symObjAddr: 0x4C, symBinAddr: 0x5D08, symSize: 0x4 }
  - { offset: 0x47803, size: 0x8, addend: 0x0, symName: __ZN4grpc20AuthPropertyIteratorppEv, symObjAddr: 0x50, symBinAddr: 0x5D0C, symSize: 0x54 }
  - { offset: 0x4787F, size: 0x8, addend: 0x0, symName: __ZN4grpc20AuthPropertyIteratorppEi, symObjAddr: 0xA4, symBinAddr: 0x5D60, symSize: 0x58 }
  - { offset: 0x478FF, size: 0x8, addend: 0x0, symName: __ZNK4grpc20AuthPropertyIteratoreqERKS0_, symObjAddr: 0xFC, symBinAddr: 0x5DB8, symSize: 0x28 }
  - { offset: 0x47950, size: 0x8, addend: 0x0, symName: __ZNK4grpc20AuthPropertyIteratorneERKS0_, symObjAddr: 0x124, symBinAddr: 0x5DE0, symSize: 0x2C }
  - { offset: 0x47989, size: 0x8, addend: 0x0, symName: __ZNK4grpc20AuthPropertyIteratorneERKS0_, symObjAddr: 0x124, symBinAddr: 0x5DE0, symSize: 0x2C }
  - { offset: 0x47AEC, size: 0x8, addend: 0x0, symName: __ZN4grpc20AuthPropertyIteratordeEv, symObjAddr: 0x150, symBinAddr: 0x5E0C, symSize: 0x40 }
  - { offset: 0x4B446, size: 0x8, addend: 0x0, symName: __ZNSt3__1L19piecewise_constructE, symObjAddr: 0x59B7, symBinAddr: 0x32956, symSize: 0x0 }
  - { offset: 0x5C03F, size: 0x8, addend: 0x0, symName: __ZNSt3__115allocate_sharedB8ne180100IKN4grpc12experimental20ServerMetricRecorder22BackendMetricDataStateENS_9allocatorIS5_EEJEvEENS_10shared_ptrIT_EERKT0_DpOT1_, symObjAddr: 0x2AF8, symBinAddr: 0x886C, symSize: 0x78 }
  - { offset: 0x5C6A2, size: 0x8, addend: 0x0, symName: __ZNSt3__115allocate_sharedB8ne180100IN4grpc12experimental20ServerMetricRecorder22BackendMetricDataStateENS_9allocatorIS4_EEJRKS4_EvEENS_10shared_ptrIT_EERKT0_DpOT1_, symObjAddr: 0x2C64, symBinAddr: 0x8980, symSize: 0x58 }
  - { offset: 0x5F5E2, size: 0x8, addend: 0x0, symName: __ZNSt3__127__tree_balance_after_insertB8ne180100IPNS_16__tree_node_baseIPvEEEEvT_S5_, symObjAddr: 0x27F0, symBinAddr: 0x862C, symSize: 0x198 }
  - { offset: 0x60C22, size: 0x8, addend: 0x0, symName: __ZNSt3__113__tree_removeB8ne180100IPNS_16__tree_node_baseIPvEEEEvT_S5_, symObjAddr: 0x4090, symBinAddr: 0x9C78, symSize: 0x384 }
  - { offset: 0x66655, size: 0x8, addend: 0x0, symName: __ZN4grpc12experimental20ServerMetricRecorder17SetCpuUtilizationEd, symObjAddr: 0x1F4, symBinAddr: 0x6040, symSize: 0x164 }
  - { offset: 0x66C6E, size: 0x8, addend: 0x0, symName: __ZN4grpc12experimental20ServerMetricRecorder20SetMemoryUtilizationEd, symObjAddr: 0x358, symBinAddr: 0x61A4, symSize: 0x16C }
  - { offset: 0x67287, size: 0x8, addend: 0x0, symName: __ZN4grpc12experimental20ServerMetricRecorder25SetApplicationUtilizationEd, symObjAddr: 0x4C4, symBinAddr: 0x6310, symSize: 0x164 }
  - { offset: 0x678A0, size: 0x8, addend: 0x0, symName: __ZN4grpc12experimental20ServerMetricRecorder6SetQpsEd, symObjAddr: 0x628, symBinAddr: 0x6474, symSize: 0x164 }
  - { offset: 0x67EB9, size: 0x8, addend: 0x0, symName: __ZN4grpc12experimental20ServerMetricRecorder6SetEpsEd, symObjAddr: 0x78C, symBinAddr: 0x65D8, symSize: 0x164 }
  - { offset: 0x684D4, size: 0x8, addend: 0x0, symName: __ZN4grpc12experimental20ServerMetricRecorder19SetNamedUtilizationENS_10string_refEd, symObjAddr: 0x8F0, symBinAddr: 0x673C, symSize: 0x204 }
  - { offset: 0x69122, size: 0x8, addend: 0x0, symName: __ZN4grpc12experimental20ServerMetricRecorder22SetAllNamedUtilizationENSt3__13mapINS_10string_refEdNS2_4lessIS4_EENS2_9allocatorINS2_4pairIKS4_dEEEEEE, symObjAddr: 0xAF4, symBinAddr: 0x6940, symSize: 0x1B0 }
  - { offset: 0x69B62, size: 0x8, addend: 0x0, symName: __ZN4grpc12experimental20ServerMetricRecorder19ClearCpuUtilizationEv, symObjAddr: 0xCA4, symBinAddr: 0x6AF0, symSize: 0x10C }
  - { offset: 0x69EE7, size: 0x8, addend: 0x0, symName: __ZN4grpc12experimental20ServerMetricRecorder22ClearMemoryUtilizationEv, symObjAddr: 0xDB0, symBinAddr: 0x6BFC, symSize: 0x10C }
  - { offset: 0x6A26C, size: 0x8, addend: 0x0, symName: __ZN4grpc12experimental20ServerMetricRecorder27ClearApplicationUtilizationEv, symObjAddr: 0xEBC, symBinAddr: 0x6D08, symSize: 0x10C }
  - { offset: 0x6A5F1, size: 0x8, addend: 0x0, symName: __ZN4grpc12experimental20ServerMetricRecorder8ClearQpsEv, symObjAddr: 0xFC8, symBinAddr: 0x6E14, symSize: 0x10C }
  - { offset: 0x6A976, size: 0x8, addend: 0x0, symName: __ZN4grpc12experimental20ServerMetricRecorder8ClearEpsEv, symObjAddr: 0x10D4, symBinAddr: 0x6F20, symSize: 0x10C }
  - { offset: 0x6ACFB, size: 0x8, addend: 0x0, symName: __ZN4grpc12experimental20ServerMetricRecorder21ClearNamedUtilizationENS_10string_refE, symObjAddr: 0x11E0, symBinAddr: 0x702C, symSize: 0x17C }
  - { offset: 0x6B8BA, size: 0x8, addend: 0x0, symName: __ZN4grpc12experimental20ServerMetricRecorder6CreateEv, symObjAddr: 0x0, symBinAddr: 0x5E4C, symSize: 0x44 }
  - { offset: 0x6B995, size: 0x8, addend: 0x0, symName: __ZN4grpc12experimental20ServerMetricRecorderC2Ev, symObjAddr: 0x48, symBinAddr: 0x5E94, symSize: 0x50 }
  - { offset: 0x6BA92, size: 0x8, addend: 0x0, symName: __ZN4grpc12experimental20ServerMetricRecorderC1Ev, symObjAddr: 0x44, symBinAddr: 0x5E90, symSize: 0x4 }
  - { offset: 0x6BAB5, size: 0x8, addend: 0x0, symName: __ZN4grpc12experimental20ServerMetricRecorderC1Ev, symObjAddr: 0x44, symBinAddr: 0x5E90, symSize: 0x4 }
  - { offset: 0x6BD3E, size: 0x8, addend: 0x0, symName: __ZN4grpc12experimental20ServerMetricRecorder28UpdateBackendMetricDataStateENSt3__18functionIFvPN9grpc_core17BackendMetricDataEEEE, symObjAddr: 0x98, symBinAddr: 0x5EE4, symSize: 0xF8 }
  - { offset: 0x6C09B, size: 0x8, addend: 0x0, symName: __ZNSt3__110shared_ptrIKN4grpc12experimental20ServerMetricRecorder22BackendMetricDataStateEEaSB8ne180100IS4_vEERS6_ONS0_IT_EE, symObjAddr: 0x190, symBinAddr: 0x5FDC, symSize: 0x64 }
  - { offset: 0x6D9B3, size: 0x8, addend: 0x0, symName: __ZNSt3__112basic_stringIcNS_11char_traitsIcEENS_9allocatorIcEEEC2B8ne180100EPKcm, symObjAddr: 0x29C8, symBinAddr: 0x87C4, symSize: 0xA8 }
  - { offset: 0x6E2FD, size: 0x8, addend: 0x0, symName: __ZNSt3__16__treeINS_12__value_typeIN4grpc10string_refEdEENS_19__map_value_compareIS3_S4_NS_4lessIS3_EELb1EEENS_9allocatorIS4_EEE7destroyEPNS_11__tree_nodeIS4_PvEE, symObjAddr: 0x236C, symBinAddr: 0x81A8, symSize: 0x40 }
  - { offset: 0x6F2AE, size: 0x8, addend: 0x0, symName: __ZNK4grpc12experimental20ServerMetricRecorder10GetMetricsEv, symObjAddr: 0x135C, symBinAddr: 0x71A8, symSize: 0xEC }
  - { offset: 0x6F643, size: 0x8, addend: 0x0, symName: __ZNK4grpc12experimental20ServerMetricRecorder19GetMetricsIfChangedEv, symObjAddr: 0x1448, symBinAddr: 0x7294, symSize: 0xB4 }
  - { offset: 0x6F8BA, size: 0x8, addend: 0x0, symName: __ZNSt3__13mapIN4absl12lts_2024011611string_viewEdNS_4lessIS3_EENS_9allocatorINS_4pairIKS3_dEEEEEC2B8ne180100ERKSB_, symObjAddr: 0x23AC, symBinAddr: 0x81E8, symSize: 0x54 }
  - { offset: 0x6FBD3, size: 0x8, addend: 0x0, symName: __ZNSt3__110shared_ptrIKN4grpc12experimental20ServerMetricRecorder22BackendMetricDataStateEEaSB8ne180100ERKS6_, symObjAddr: 0x14FC, symBinAddr: 0x7348, symSize: 0x78 }
  - { offset: 0x6FEA7, size: 0x8, addend: 0x0, symName: __ZN4grpc18BackendMetricState26RecordCpuUtilizationMetricEd, symObjAddr: 0x1574, symBinAddr: 0x73C0, symSize: 0x9C }
  - { offset: 0x70021, size: 0x8, addend: 0x0, symName: __ZThn8_N4grpc18BackendMetricState26RecordCpuUtilizationMetricEd, symObjAddr: 0x1610, symBinAddr: 0x745C, symSize: 0x8 }
  - { offset: 0x70051, size: 0x8, addend: 0x0, symName: __ZN4grpc18BackendMetricState29RecordMemoryUtilizationMetricEd, symObjAddr: 0x1618, symBinAddr: 0x7464, symSize: 0xA4 }
  - { offset: 0x701CD, size: 0x8, addend: 0x0, symName: __ZThn8_N4grpc18BackendMetricState29RecordMemoryUtilizationMetricEd, symObjAddr: 0x16BC, symBinAddr: 0x7508, symSize: 0x8 }
  - { offset: 0x701FE, size: 0x8, addend: 0x0, symName: __ZN4grpc18BackendMetricState34RecordApplicationUtilizationMetricEd, symObjAddr: 0x16C4, symBinAddr: 0x7510, symSize: 0x9C }
  - { offset: 0x7037A, size: 0x8, addend: 0x0, symName: __ZThn8_N4grpc18BackendMetricState34RecordApplicationUtilizationMetricEd, symObjAddr: 0x1760, symBinAddr: 0x75AC, symSize: 0x8 }
  - { offset: 0x703AB, size: 0x8, addend: 0x0, symName: __ZN4grpc18BackendMetricState15RecordQpsMetricEd, symObjAddr: 0x1768, symBinAddr: 0x75B4, symSize: 0x9C }
  - { offset: 0x70527, size: 0x8, addend: 0x0, symName: __ZThn8_N4grpc18BackendMetricState15RecordQpsMetricEd, symObjAddr: 0x1804, symBinAddr: 0x7650, symSize: 0x8 }
  - { offset: 0x70558, size: 0x8, addend: 0x0, symName: __ZN4grpc18BackendMetricState15RecordEpsMetricEd, symObjAddr: 0x180C, symBinAddr: 0x7658, symSize: 0x9C }
  - { offset: 0x706D4, size: 0x8, addend: 0x0, symName: __ZThn8_N4grpc18BackendMetricState15RecordEpsMetricEd, symObjAddr: 0x18A8, symBinAddr: 0x76F4, symSize: 0x8 }
  - { offset: 0x70913, size: 0x8, addend: 0x0, symName: __ZN4grpc18BackendMetricState23RecordUtilizationMetricENS_10string_refEd, symObjAddr: 0x18B0, symBinAddr: 0x76FC, symSize: 0x1F8 }
  - { offset: 0x715C9, size: 0x8, addend: 0x0, symName: __ZThn8_N4grpc18BackendMetricState23RecordUtilizationMetricENS_10string_refEd, symObjAddr: 0x1AA8, symBinAddr: 0x78F4, symSize: 0x8 }
  - { offset: 0x71602, size: 0x8, addend: 0x0, symName: __ZN4grpc18BackendMetricState23RecordRequestCostMetricENS_10string_refEd, symObjAddr: 0x1AB0, symBinAddr: 0x78FC, symSize: 0x168 }
  - { offset: 0x71CF4, size: 0x8, addend: 0x0, symName: __ZThn8_N4grpc18BackendMetricState23RecordRequestCostMetricENS_10string_refEd, symObjAddr: 0x1C18, symBinAddr: 0x7A64, symSize: 0x8 }
  - { offset: 0x71D2D, size: 0x8, addend: 0x0, symName: __ZN4grpc18BackendMetricState17RecordNamedMetricENS_10string_refEd, symObjAddr: 0x1C20, symBinAddr: 0x7A6C, symSize: 0x168 }
  - { offset: 0x7241F, size: 0x8, addend: 0x0, symName: __ZThn8_N4grpc18BackendMetricState17RecordNamedMetricENS_10string_refEd, symObjAddr: 0x1D88, symBinAddr: 0x7BD4, symSize: 0x8 }
  - { offset: 0x727AD, size: 0x8, addend: 0x0, symName: __ZN4grpc18BackendMetricState20GetBackendMetricDataEv, symObjAddr: 0x1D90, symBinAddr: 0x7BDC, symSize: 0x410 }
  - { offset: 0x737B7, size: 0x8, addend: 0x0, symName: __ZN9grpc_core17BackendMetricDataD1Ev, symObjAddr: 0x21A0, symBinAddr: 0x7FEC, symSize: 0x44 }
  - { offset: 0x73A01, size: 0x8, addend: 0x0, symName: __ZN4grpc18BackendMetricStateD1Ev, symObjAddr: 0x21E4, symBinAddr: 0x8030, symSize: 0x5C }
  - { offset: 0x73C87, size: 0x8, addend: 0x0, symName: __ZN4grpc18BackendMetricStateD0Ev, symObjAddr: 0x2240, symBinAddr: 0x808C, symSize: 0x5C }
  - { offset: 0x73F08, size: 0x8, addend: 0x0, symName: __ZThn8_N4grpc18BackendMetricStateD1Ev, symObjAddr: 0x229C, symBinAddr: 0x80E8, symSize: 0x5C }
  - { offset: 0x74198, size: 0x8, addend: 0x0, symName: __ZThn8_N4grpc18BackendMetricStateD0Ev, symObjAddr: 0x22F8, symBinAddr: 0x8144, symSize: 0x64 }
  - { offset: 0x745E4, size: 0x8, addend: 0x0, symName: __ZNSt3__13mapIN4absl12lts_2024011611string_viewEdNS_4lessIS3_EENS_9allocatorINS_4pairIKS3_dEEEEE6insertB8ne180100INS_20__map_const_iteratorINS_21__tree_const_iteratorINS_12__value_typeIS3_dEEPNS_11__tree_nodeISG_PvEElEEEEEEvT_SN_, symObjAddr: 0x2400, symBinAddr: 0x823C, symSize: 0x84 }
  - { offset: 0x7462A, size: 0x8, addend: 0x0, symName: __ZNSt3__13mapIN4absl12lts_2024011611string_viewEdNS_4lessIS3_EENS_9allocatorINS_4pairIKS3_dEEEEE6insertB8ne180100INS_20__map_const_iteratorINS_21__tree_const_iteratorINS_12__value_typeIS3_dEEPNS_11__tree_nodeISG_PvEElEEEEEEvT_SN_, symObjAddr: 0x2400, symBinAddr: 0x823C, symSize: 0x84 }
  - { offset: 0x748FC, size: 0x8, addend: 0x0, symName: __ZNSt3__16__treeINS_12__value_typeIN4absl12lts_2024011611string_viewEdEENS_19__map_value_compareIS4_S5_NS_4lessIS4_EELb1EEENS_9allocatorIS5_EEE30__emplace_hint_unique_key_argsIS4_JRKNS_4pairIKS4_dEEEEENSE_INS_15__tree_iteratorIS5_PNS_11__tree_nodeIS5_PvEElEEbEENS_21__tree_const_iteratorIS5_SN_lEERKT_DpOT0_, symObjAddr: 0x2484, symBinAddr: 0x82C0, symSize: 0x8C }
  - { offset: 0x74C60, size: 0x8, addend: 0x0, symName: __ZNSt3__16__treeINS_12__value_typeIN4absl12lts_2024011611string_viewEdEENS_19__map_value_compareIS4_S5_NS_4lessIS4_EELb1EEENS_9allocatorIS5_EEE12__find_equalIS4_EERPNS_16__tree_node_baseIPvEENS_21__tree_const_iteratorIS5_PNS_11__tree_nodeIS5_SF_EElEERPNS_15__tree_end_nodeISH_EESI_RKT_, symObjAddr: 0x2510, symBinAddr: 0x834C, symSize: 0x19C }
  - { offset: 0x750A8, size: 0x8, addend: 0x0, symName: __ZNSt3__16__treeINS_12__value_typeIN4absl12lts_2024011611string_viewEdEENS_19__map_value_compareIS4_S5_NS_4lessIS4_EELb1EEENS_9allocatorIS5_EEE16__insert_node_atEPNS_15__tree_end_nodeIPNS_16__tree_node_baseIPvEEEERSH_SH_, symObjAddr: 0x26AC, symBinAddr: 0x84E8, symSize: 0x54 }
  - { offset: 0x751B9, size: 0x8, addend: 0x0, symName: __ZNK4absl12lts_2024011611string_view7compareES1_, symObjAddr: 0x279C, symBinAddr: 0x85D8, symSize: 0x54 }
  - { offset: 0x75253, size: 0x8, addend: 0x0, symName: __ZNSt3__16__treeINS_12__value_typeIN4absl12lts_2024011611string_viewEdEENS_19__map_value_compareIS4_S5_NS_4lessIS4_EELb1EEENS_9allocatorIS5_EEE12__find_equalIS4_EERPNS_16__tree_node_baseIPvEERPNS_15__tree_end_nodeISH_EERKT_, symObjAddr: 0x2700, symBinAddr: 0x853C, symSize: 0x9C }
  - { offset: 0x75A33, size: 0x8, addend: 0x0, symName: __ZNSt3__120__shared_ptr_emplaceIKN4grpc12experimental20ServerMetricRecorder22BackendMetricDataStateENS_9allocatorIS5_EEED1Ev, symObjAddr: 0x2B70, symBinAddr: 0x88E4, symSize: 0x14 }
  - { offset: 0x75A55, size: 0x8, addend: 0x0, symName: __ZNSt3__120__shared_ptr_emplaceIKN4grpc12experimental20ServerMetricRecorder22BackendMetricDataStateENS_9allocatorIS5_EEED1Ev, symObjAddr: 0x2B70, symBinAddr: 0x88E4, symSize: 0x14 }
  - { offset: 0x75A8B, size: 0x8, addend: 0x0, symName: __ZNSt3__120__shared_ptr_emplaceIKN4grpc12experimental20ServerMetricRecorder22BackendMetricDataStateENS_9allocatorIS5_EEED0Ev, symObjAddr: 0x2B84, symBinAddr: 0x88F8, symSize: 0x24 }
  - { offset: 0x75B6E, size: 0x8, addend: 0x0, symName: __ZNSt3__120__shared_ptr_emplaceIKN4grpc12experimental20ServerMetricRecorder22BackendMetricDataStateENS_9allocatorIS5_EEE16__on_zero_sharedEv, symObjAddr: 0x2BA8, symBinAddr: 0x891C, symSize: 0x24 }
  - { offset: 0x75C16, size: 0x8, addend: 0x0, symName: __ZNSt3__19allocatorIKN4grpc12experimental20ServerMetricRecorder22BackendMetricDataStateEE7destroyB8ne180100EPS5_, symObjAddr: 0x2BD0, symBinAddr: 0x8944, symSize: 0x3C }
  - { offset: 0x75F00, size: 0x8, addend: 0x0, symName: __ZNSt3__120__shared_ptr_emplaceIKN4grpc12experimental20ServerMetricRecorder22BackendMetricDataStateENS_9allocatorIS5_EEE21__on_zero_shared_weakEv, symObjAddr: 0x2BCC, symBinAddr: 0x8940, symSize: 0x4 }
  - { offset: 0x75F34, size: 0x8, addend: 0x0, symName: __ZNSt3__120__shared_ptr_emplaceIKN4grpc12experimental20ServerMetricRecorder22BackendMetricDataStateENS_9allocatorIS5_EEE21__on_zero_shared_weakEv, symObjAddr: 0x2BCC, symBinAddr: 0x8940, symSize: 0x4 }
  - { offset: 0x75F57, size: 0x8, addend: 0x0, symName: __ZNSt3__120__shared_ptr_emplaceIKN4grpc12experimental20ServerMetricRecorder22BackendMetricDataStateENS_9allocatorIS5_EEE21__on_zero_shared_weakEv, symObjAddr: 0x2BCC, symBinAddr: 0x8940, symSize: 0x4 }
  - { offset: 0x75F7A, size: 0x8, addend: 0x0, symName: __ZNSt3__120__shared_ptr_emplaceIKN4grpc12experimental20ServerMetricRecorder22BackendMetricDataStateENS_9allocatorIS5_EEE21__on_zero_shared_weakEv, symObjAddr: 0x2BCC, symBinAddr: 0x8940, symSize: 0x4 }
  - { offset: 0x75FA8, size: 0x8, addend: 0x0, symName: __ZNSt3__120__shared_ptr_emplaceIKN4grpc12experimental20ServerMetricRecorder22BackendMetricDataStateENS_9allocatorIS5_EEE21__on_zero_shared_weakEv, symObjAddr: 0x2BCC, symBinAddr: 0x8940, symSize: 0x4 }
  - { offset: 0x75FD0, size: 0x8, addend: 0x0, symName: __ZNSt3__120__shared_ptr_emplaceIKN4grpc12experimental20ServerMetricRecorder22BackendMetricDataStateENS_9allocatorIS5_EEE21__on_zero_shared_weakEv, symObjAddr: 0x2BCC, symBinAddr: 0x8940, symSize: 0x4 }
  - { offset: 0x76288, size: 0x8, addend: 0x0, symName: __ZNSt3__120__shared_ptr_emplaceIN4grpc12experimental20ServerMetricRecorder22BackendMetricDataStateENS_9allocatorIS4_EEEC2B8ne180100IJRKS4_ES6_Li0EEES6_DpOT_, symObjAddr: 0x2CBC, symBinAddr: 0x89D8, symSize: 0x60 }
  - { offset: 0x76418, size: 0x8, addend: 0x0, symName: __ZNSt3__19allocatorIN4grpc12experimental20ServerMetricRecorder22BackendMetricDataStateEE9constructB8ne180100IS4_JRKS4_EEEvPT_DpOT0_, symObjAddr: 0x2D7C, symBinAddr: 0x8A98, symSize: 0x98 }
  - { offset: 0x76717, size: 0x8, addend: 0x0, symName: __ZNSt3__120__shared_ptr_emplaceIN4grpc12experimental20ServerMetricRecorder22BackendMetricDataStateENS_9allocatorIS4_EEED1Ev, symObjAddr: 0x2D1C, symBinAddr: 0x8A38, symSize: 0x14 }
  - { offset: 0x76739, size: 0x8, addend: 0x0, symName: __ZNSt3__120__shared_ptr_emplaceIN4grpc12experimental20ServerMetricRecorder22BackendMetricDataStateENS_9allocatorIS4_EEED1Ev, symObjAddr: 0x2D1C, symBinAddr: 0x8A38, symSize: 0x14 }
  - { offset: 0x7676F, size: 0x8, addend: 0x0, symName: __ZNSt3__120__shared_ptr_emplaceIN4grpc12experimental20ServerMetricRecorder22BackendMetricDataStateENS_9allocatorIS4_EEED0Ev, symObjAddr: 0x2D30, symBinAddr: 0x8A4C, symSize: 0x24 }
  - { offset: 0x7683C, size: 0x8, addend: 0x0, symName: __ZNSt3__120__shared_ptr_emplaceIN4grpc12experimental20ServerMetricRecorder22BackendMetricDataStateENS_9allocatorIS4_EEE16__on_zero_sharedEv, symObjAddr: 0x2D54, symBinAddr: 0x8A70, symSize: 0x24 }
  - { offset: 0x76A71, size: 0x8, addend: 0x0, symName: __ZNSt3__120__shared_ptr_emplaceIN4grpc12experimental20ServerMetricRecorder22BackendMetricDataStateENS_9allocatorIS4_EEE21__on_zero_shared_weakEv, symObjAddr: 0x2D78, symBinAddr: 0x8A94, symSize: 0x4 }
  - { offset: 0x76AA5, size: 0x8, addend: 0x0, symName: __ZNSt3__120__shared_ptr_emplaceIN4grpc12experimental20ServerMetricRecorder22BackendMetricDataStateENS_9allocatorIS4_EEE21__on_zero_shared_weakEv, symObjAddr: 0x2D78, symBinAddr: 0x8A94, symSize: 0x4 }
  - { offset: 0x76AC8, size: 0x8, addend: 0x0, symName: __ZNSt3__120__shared_ptr_emplaceIN4grpc12experimental20ServerMetricRecorder22BackendMetricDataStateENS_9allocatorIS4_EEE21__on_zero_shared_weakEv, symObjAddr: 0x2D78, symBinAddr: 0x8A94, symSize: 0x4 }
  - { offset: 0x76AEB, size: 0x8, addend: 0x0, symName: __ZNSt3__120__shared_ptr_emplaceIN4grpc12experimental20ServerMetricRecorder22BackendMetricDataStateENS_9allocatorIS4_EEE21__on_zero_shared_weakEv, symObjAddr: 0x2D78, symBinAddr: 0x8A94, symSize: 0x4 }
  - { offset: 0x76B19, size: 0x8, addend: 0x0, symName: __ZNSt3__120__shared_ptr_emplaceIN4grpc12experimental20ServerMetricRecorder22BackendMetricDataStateENS_9allocatorIS4_EEE21__on_zero_shared_weakEv, symObjAddr: 0x2D78, symBinAddr: 0x8A94, symSize: 0x4 }
  - { offset: 0x76B41, size: 0x8, addend: 0x0, symName: __ZNSt3__120__shared_ptr_emplaceIN4grpc12experimental20ServerMetricRecorder22BackendMetricDataStateENS_9allocatorIS4_EEE21__on_zero_shared_weakEv, symObjAddr: 0x2D78, symBinAddr: 0x8A94, symSize: 0x4 }
  - { offset: 0x76BE7, size: 0x8, addend: 0x0, symName: '__ZNSt3__110__function6__funcIZN4grpc12experimental20ServerMetricRecorder17SetCpuUtilizationEdE3$_0NS_9allocatorIS5_EEFvPN9grpc_core17BackendMetricDataEEED1Ev', symObjAddr: 0x2EF4, symBinAddr: 0x8B30, symSize: 0x4 }
  - { offset: 0x76C12, size: 0x8, addend: 0x0, symName: '__ZNSt3__110__function6__funcIZN4grpc12experimental20ServerMetricRecorder17SetCpuUtilizationEdE3$_0NS_9allocatorIS5_EEFvPN9grpc_core17BackendMetricDataEEED0Ev', symObjAddr: 0x2EF8, symBinAddr: 0x8B34, symSize: 0x4 }
  - { offset: 0x76E15, size: 0x8, addend: 0x0, symName: '__ZNKSt3__110__function6__funcIZN4grpc12experimental20ServerMetricRecorder17SetCpuUtilizationEdE3$_0NS_9allocatorIS5_EEFvPN9grpc_core17BackendMetricDataEEE7__cloneEv', symObjAddr: 0x2EFC, symBinAddr: 0x8B38, symSize: 0x34 }
  - { offset: 0x7710E, size: 0x8, addend: 0x0, symName: '__ZNKSt3__110__function6__funcIZN4grpc12experimental20ServerMetricRecorder17SetCpuUtilizationEdE3$_0NS_9allocatorIS5_EEFvPN9grpc_core17BackendMetricDataEEE7__cloneEPNS0_6__baseISB_EE', symObjAddr: 0x2F30, symBinAddr: 0x8B6C, symSize: 0x14 }
  - { offset: 0x77146, size: 0x8, addend: 0x0, symName: '__ZNKSt3__110__function6__funcIZN4grpc12experimental20ServerMetricRecorder17SetCpuUtilizationEdE3$_0NS_9allocatorIS5_EEFvPN9grpc_core17BackendMetricDataEEE7__cloneEPNS0_6__baseISB_EE', symObjAddr: 0x2F30, symBinAddr: 0x8B6C, symSize: 0x14 }
  - { offset: 0x77174, size: 0x8, addend: 0x0, symName: '__ZNKSt3__110__function6__funcIZN4grpc12experimental20ServerMetricRecorder17SetCpuUtilizationEdE3$_0NS_9allocatorIS5_EEFvPN9grpc_core17BackendMetricDataEEE7__cloneEPNS0_6__baseISB_EE', symObjAddr: 0x2F30, symBinAddr: 0x8B6C, symSize: 0x14 }
  - { offset: 0x771A2, size: 0x8, addend: 0x0, symName: '__ZNKSt3__110__function6__funcIZN4grpc12experimental20ServerMetricRecorder17SetCpuUtilizationEdE3$_0NS_9allocatorIS5_EEFvPN9grpc_core17BackendMetricDataEEE7__cloneEPNS0_6__baseISB_EE', symObjAddr: 0x2F30, symBinAddr: 0x8B6C, symSize: 0x14 }
  - { offset: 0x771B7, size: 0x8, addend: 0x0, symName: '__ZNKSt3__110__function6__funcIZN4grpc12experimental20ServerMetricRecorder17SetCpuUtilizationEdE3$_0NS_9allocatorIS5_EEFvPN9grpc_core17BackendMetricDataEEE7__cloneEPNS0_6__baseISB_EE', symObjAddr: 0x2F30, symBinAddr: 0x8B6C, symSize: 0x14 }
  - { offset: 0x771CB, size: 0x8, addend: 0x0, symName: '__ZNKSt3__110__function6__funcIZN4grpc12experimental20ServerMetricRecorder17SetCpuUtilizationEdE3$_0NS_9allocatorIS5_EEFvPN9grpc_core17BackendMetricDataEEE7__cloneEPNS0_6__baseISB_EE', symObjAddr: 0x2F30, symBinAddr: 0x8B6C, symSize: 0x14 }
  - { offset: 0x771DF, size: 0x8, addend: 0x0, symName: '__ZNKSt3__110__function6__funcIZN4grpc12experimental20ServerMetricRecorder17SetCpuUtilizationEdE3$_0NS_9allocatorIS5_EEFvPN9grpc_core17BackendMetricDataEEE7__cloneEPNS0_6__baseISB_EE', symObjAddr: 0x2F30, symBinAddr: 0x8B6C, symSize: 0x14 }
  - { offset: 0x771F4, size: 0x8, addend: 0x0, symName: '__ZNKSt3__110__function6__funcIZN4grpc12experimental20ServerMetricRecorder17SetCpuUtilizationEdE3$_0NS_9allocatorIS5_EEFvPN9grpc_core17BackendMetricDataEEE7__cloneEPNS0_6__baseISB_EE', symObjAddr: 0x2F30, symBinAddr: 0x8B6C, symSize: 0x14 }
  - { offset: 0x7720C, size: 0x8, addend: 0x0, symName: '__ZNSt3__110__function6__funcIZN4grpc12experimental20ServerMetricRecorder17SetCpuUtilizationEdE3$_0NS_9allocatorIS5_EEFvPN9grpc_core17BackendMetricDataEEE7destroyEv', symObjAddr: 0x2F44, symBinAddr: 0x8B80, symSize: 0x4 }
  - { offset: 0x7725D, size: 0x8, addend: 0x0, symName: '__ZNSt3__110__function6__funcIZN4grpc12experimental20ServerMetricRecorder17SetCpuUtilizationEdE3$_0NS_9allocatorIS5_EEFvPN9grpc_core17BackendMetricDataEEE18destroy_deallocateEv', symObjAddr: 0x2F48, symBinAddr: 0x8B84, symSize: 0x4 }
  - { offset: 0x77293, size: 0x8, addend: 0x0, symName: '__ZNSt3__110__function6__funcIZN4grpc12experimental20ServerMetricRecorder17SetCpuUtilizationEdE3$_0NS_9allocatorIS5_EEFvPN9grpc_core17BackendMetricDataEEE18destroy_deallocateEv', symObjAddr: 0x2F48, symBinAddr: 0x8B84, symSize: 0x4 }
  - { offset: 0x772B6, size: 0x8, addend: 0x0, symName: '__ZNSt3__110__function6__funcIZN4grpc12experimental20ServerMetricRecorder17SetCpuUtilizationEdE3$_0NS_9allocatorIS5_EEFvPN9grpc_core17BackendMetricDataEEE18destroy_deallocateEv', symObjAddr: 0x2F48, symBinAddr: 0x8B84, symSize: 0x4 }
  - { offset: 0x772E2, size: 0x8, addend: 0x0, symName: '__ZNSt3__110__function6__funcIZN4grpc12experimental20ServerMetricRecorder17SetCpuUtilizationEdE3$_0NS_9allocatorIS5_EEFvPN9grpc_core17BackendMetricDataEEE18destroy_deallocateEv', symObjAddr: 0x2F48, symBinAddr: 0x8B84, symSize: 0x4 }
  - { offset: 0x77308, size: 0x8, addend: 0x0, symName: '__ZNSt3__110__function6__funcIZN4grpc12experimental20ServerMetricRecorder17SetCpuUtilizationEdE3$_0NS_9allocatorIS5_EEFvPN9grpc_core17BackendMetricDataEEE18destroy_deallocateEv', symObjAddr: 0x2F48, symBinAddr: 0x8B84, symSize: 0x4 }
  - { offset: 0x773AD, size: 0x8, addend: 0x0, symName: '__ZNSt3__110__function6__funcIZN4grpc12experimental20ServerMetricRecorder17SetCpuUtilizationEdE3$_0NS_9allocatorIS5_EEFvPN9grpc_core17BackendMetricDataEEEclEOSA_', symObjAddr: 0x2F4C, symBinAddr: 0x8B88, symSize: 0x10 }
  - { offset: 0x773E5, size: 0x8, addend: 0x0, symName: '__ZNSt3__110__function6__funcIZN4grpc12experimental20ServerMetricRecorder17SetCpuUtilizationEdE3$_0NS_9allocatorIS5_EEFvPN9grpc_core17BackendMetricDataEEEclEOSA_', symObjAddr: 0x2F4C, symBinAddr: 0x8B88, symSize: 0x10 }
  - { offset: 0x7740A, size: 0x8, addend: 0x0, symName: '__ZNSt3__110__function6__funcIZN4grpc12experimental20ServerMetricRecorder17SetCpuUtilizationEdE3$_0NS_9allocatorIS5_EEFvPN9grpc_core17BackendMetricDataEEEclEOSA_', symObjAddr: 0x2F4C, symBinAddr: 0x8B88, symSize: 0x10 }
  - { offset: 0x7742E, size: 0x8, addend: 0x0, symName: '__ZNSt3__110__function6__funcIZN4grpc12experimental20ServerMetricRecorder17SetCpuUtilizationEdE3$_0NS_9allocatorIS5_EEFvPN9grpc_core17BackendMetricDataEEEclEOSA_', symObjAddr: 0x2F4C, symBinAddr: 0x8B88, symSize: 0x10 }
  - { offset: 0x7747A, size: 0x8, addend: 0x0, symName: '__ZNKSt3__110__function6__funcIZN4grpc12experimental20ServerMetricRecorder17SetCpuUtilizationEdE3$_0NS_9allocatorIS5_EEFvPN9grpc_core17BackendMetricDataEEE6targetERKSt9type_info', symObjAddr: 0x2F5C, symBinAddr: 0x8B98, symSize: 0x3C }
  - { offset: 0x774CA, size: 0x8, addend: 0x0, symName: __ZNKSt9type_infoeqB8ne180100ERKS_, symObjAddr: 0x2FA4, symBinAddr: 0x8BE0, symSize: 0x4C }
  - { offset: 0x7756F, size: 0x8, addend: 0x0, symName: '__ZNKSt3__110__function6__funcIZN4grpc12experimental20ServerMetricRecorder17SetCpuUtilizationEdE3$_0NS_9allocatorIS5_EEFvPN9grpc_core17BackendMetricDataEEE11target_typeEv', symObjAddr: 0x2F98, symBinAddr: 0x8BD4, symSize: 0xC }
  - { offset: 0x775DC, size: 0x8, addend: 0x0, symName: '__ZNSt3__110__function6__funcIZN4grpc12experimental20ServerMetricRecorder20SetMemoryUtilizationEdE3$_0NS_9allocatorIS5_EEFvPN9grpc_core17BackendMetricDataEEED1Ev', symObjAddr: 0x2FF0, symBinAddr: 0x8C2C, symSize: 0x4 }
  - { offset: 0x77607, size: 0x8, addend: 0x0, symName: '__ZNSt3__110__function6__funcIZN4grpc12experimental20ServerMetricRecorder20SetMemoryUtilizationEdE3$_0NS_9allocatorIS5_EEFvPN9grpc_core17BackendMetricDataEEED0Ev', symObjAddr: 0x2FF4, symBinAddr: 0x8C30, symSize: 0x4 }
  - { offset: 0x7780A, size: 0x8, addend: 0x0, symName: '__ZNKSt3__110__function6__funcIZN4grpc12experimental20ServerMetricRecorder20SetMemoryUtilizationEdE3$_0NS_9allocatorIS5_EEFvPN9grpc_core17BackendMetricDataEEE7__cloneEv', symObjAddr: 0x2FF8, symBinAddr: 0x8C34, symSize: 0x34 }
  - { offset: 0x77B03, size: 0x8, addend: 0x0, symName: '__ZNKSt3__110__function6__funcIZN4grpc12experimental20ServerMetricRecorder20SetMemoryUtilizationEdE3$_0NS_9allocatorIS5_EEFvPN9grpc_core17BackendMetricDataEEE7__cloneEPNS0_6__baseISB_EE', symObjAddr: 0x302C, symBinAddr: 0x8C68, symSize: 0x14 }
  - { offset: 0x77B3B, size: 0x8, addend: 0x0, symName: '__ZNKSt3__110__function6__funcIZN4grpc12experimental20ServerMetricRecorder20SetMemoryUtilizationEdE3$_0NS_9allocatorIS5_EEFvPN9grpc_core17BackendMetricDataEEE7__cloneEPNS0_6__baseISB_EE', symObjAddr: 0x302C, symBinAddr: 0x8C68, symSize: 0x14 }
  - { offset: 0x77B69, size: 0x8, addend: 0x0, symName: '__ZNKSt3__110__function6__funcIZN4grpc12experimental20ServerMetricRecorder20SetMemoryUtilizationEdE3$_0NS_9allocatorIS5_EEFvPN9grpc_core17BackendMetricDataEEE7__cloneEPNS0_6__baseISB_EE', symObjAddr: 0x302C, symBinAddr: 0x8C68, symSize: 0x14 }
  - { offset: 0x77B97, size: 0x8, addend: 0x0, symName: '__ZNKSt3__110__function6__funcIZN4grpc12experimental20ServerMetricRecorder20SetMemoryUtilizationEdE3$_0NS_9allocatorIS5_EEFvPN9grpc_core17BackendMetricDataEEE7__cloneEPNS0_6__baseISB_EE', symObjAddr: 0x302C, symBinAddr: 0x8C68, symSize: 0x14 }
  - { offset: 0x77BAC, size: 0x8, addend: 0x0, symName: '__ZNKSt3__110__function6__funcIZN4grpc12experimental20ServerMetricRecorder20SetMemoryUtilizationEdE3$_0NS_9allocatorIS5_EEFvPN9grpc_core17BackendMetricDataEEE7__cloneEPNS0_6__baseISB_EE', symObjAddr: 0x302C, symBinAddr: 0x8C68, symSize: 0x14 }
  - { offset: 0x77BC0, size: 0x8, addend: 0x0, symName: '__ZNKSt3__110__function6__funcIZN4grpc12experimental20ServerMetricRecorder20SetMemoryUtilizationEdE3$_0NS_9allocatorIS5_EEFvPN9grpc_core17BackendMetricDataEEE7__cloneEPNS0_6__baseISB_EE', symObjAddr: 0x302C, symBinAddr: 0x8C68, symSize: 0x14 }
  - { offset: 0x77BD4, size: 0x8, addend: 0x0, symName: '__ZNKSt3__110__function6__funcIZN4grpc12experimental20ServerMetricRecorder20SetMemoryUtilizationEdE3$_0NS_9allocatorIS5_EEFvPN9grpc_core17BackendMetricDataEEE7__cloneEPNS0_6__baseISB_EE', symObjAddr: 0x302C, symBinAddr: 0x8C68, symSize: 0x14 }
  - { offset: 0x77BE9, size: 0x8, addend: 0x0, symName: '__ZNKSt3__110__function6__funcIZN4grpc12experimental20ServerMetricRecorder20SetMemoryUtilizationEdE3$_0NS_9allocatorIS5_EEFvPN9grpc_core17BackendMetricDataEEE7__cloneEPNS0_6__baseISB_EE', symObjAddr: 0x302C, symBinAddr: 0x8C68, symSize: 0x14 }
  - { offset: 0x77C01, size: 0x8, addend: 0x0, symName: '__ZNSt3__110__function6__funcIZN4grpc12experimental20ServerMetricRecorder20SetMemoryUtilizationEdE3$_0NS_9allocatorIS5_EEFvPN9grpc_core17BackendMetricDataEEE7destroyEv', symObjAddr: 0x3040, symBinAddr: 0x8C7C, symSize: 0x4 }
  - { offset: 0x77C52, size: 0x8, addend: 0x0, symName: '__ZNSt3__110__function6__funcIZN4grpc12experimental20ServerMetricRecorder20SetMemoryUtilizationEdE3$_0NS_9allocatorIS5_EEFvPN9grpc_core17BackendMetricDataEEE18destroy_deallocateEv', symObjAddr: 0x3044, symBinAddr: 0x8C80, symSize: 0x4 }
  - { offset: 0x77C88, size: 0x8, addend: 0x0, symName: '__ZNSt3__110__function6__funcIZN4grpc12experimental20ServerMetricRecorder20SetMemoryUtilizationEdE3$_0NS_9allocatorIS5_EEFvPN9grpc_core17BackendMetricDataEEE18destroy_deallocateEv', symObjAddr: 0x3044, symBinAddr: 0x8C80, symSize: 0x4 }
  - { offset: 0x77CAB, size: 0x8, addend: 0x0, symName: '__ZNSt3__110__function6__funcIZN4grpc12experimental20ServerMetricRecorder20SetMemoryUtilizationEdE3$_0NS_9allocatorIS5_EEFvPN9grpc_core17BackendMetricDataEEE18destroy_deallocateEv', symObjAddr: 0x3044, symBinAddr: 0x8C80, symSize: 0x4 }
  - { offset: 0x77CD7, size: 0x8, addend: 0x0, symName: '__ZNSt3__110__function6__funcIZN4grpc12experimental20ServerMetricRecorder20SetMemoryUtilizationEdE3$_0NS_9allocatorIS5_EEFvPN9grpc_core17BackendMetricDataEEE18destroy_deallocateEv', symObjAddr: 0x3044, symBinAddr: 0x8C80, symSize: 0x4 }
  - { offset: 0x77CFD, size: 0x8, addend: 0x0, symName: '__ZNSt3__110__function6__funcIZN4grpc12experimental20ServerMetricRecorder20SetMemoryUtilizationEdE3$_0NS_9allocatorIS5_EEFvPN9grpc_core17BackendMetricDataEEE18destroy_deallocateEv', symObjAddr: 0x3044, symBinAddr: 0x8C80, symSize: 0x4 }
  - { offset: 0x77DA2, size: 0x8, addend: 0x0, symName: '__ZNSt3__110__function6__funcIZN4grpc12experimental20ServerMetricRecorder20SetMemoryUtilizationEdE3$_0NS_9allocatorIS5_EEFvPN9grpc_core17BackendMetricDataEEEclEOSA_', symObjAddr: 0x3048, symBinAddr: 0x8C84, symSize: 0x10 }
  - { offset: 0x77DDA, size: 0x8, addend: 0x0, symName: '__ZNSt3__110__function6__funcIZN4grpc12experimental20ServerMetricRecorder20SetMemoryUtilizationEdE3$_0NS_9allocatorIS5_EEFvPN9grpc_core17BackendMetricDataEEEclEOSA_', symObjAddr: 0x3048, symBinAddr: 0x8C84, symSize: 0x10 }
  - { offset: 0x77DFF, size: 0x8, addend: 0x0, symName: '__ZNSt3__110__function6__funcIZN4grpc12experimental20ServerMetricRecorder20SetMemoryUtilizationEdE3$_0NS_9allocatorIS5_EEFvPN9grpc_core17BackendMetricDataEEEclEOSA_', symObjAddr: 0x3048, symBinAddr: 0x8C84, symSize: 0x10 }
  - { offset: 0x77E23, size: 0x8, addend: 0x0, symName: '__ZNSt3__110__function6__funcIZN4grpc12experimental20ServerMetricRecorder20SetMemoryUtilizationEdE3$_0NS_9allocatorIS5_EEFvPN9grpc_core17BackendMetricDataEEEclEOSA_', symObjAddr: 0x3048, symBinAddr: 0x8C84, symSize: 0x10 }
  - { offset: 0x77E6F, size: 0x8, addend: 0x0, symName: '__ZNKSt3__110__function6__funcIZN4grpc12experimental20ServerMetricRecorder20SetMemoryUtilizationEdE3$_0NS_9allocatorIS5_EEFvPN9grpc_core17BackendMetricDataEEE6targetERKSt9type_info', symObjAddr: 0x3058, symBinAddr: 0x8C94, symSize: 0x3C }
  - { offset: 0x77EBF, size: 0x8, addend: 0x0, symName: '__ZNKSt3__110__function6__funcIZN4grpc12experimental20ServerMetricRecorder20SetMemoryUtilizationEdE3$_0NS_9allocatorIS5_EEFvPN9grpc_core17BackendMetricDataEEE11target_typeEv', symObjAddr: 0x3094, symBinAddr: 0x8CD0, symSize: 0xC }
  - { offset: 0x77EE4, size: 0x8, addend: 0x0, symName: '__ZNSt3__110__function6__funcIZN4grpc12experimental20ServerMetricRecorder25SetApplicationUtilizationEdE3$_0NS_9allocatorIS5_EEFvPN9grpc_core17BackendMetricDataEEED1Ev', symObjAddr: 0x30A0, symBinAddr: 0x8CDC, symSize: 0x4 }
  - { offset: 0x77F0F, size: 0x8, addend: 0x0, symName: '__ZNSt3__110__function6__funcIZN4grpc12experimental20ServerMetricRecorder25SetApplicationUtilizationEdE3$_0NS_9allocatorIS5_EEFvPN9grpc_core17BackendMetricDataEEED0Ev', symObjAddr: 0x30A4, symBinAddr: 0x8CE0, symSize: 0x4 }
  - { offset: 0x78112, size: 0x8, addend: 0x0, symName: '__ZNKSt3__110__function6__funcIZN4grpc12experimental20ServerMetricRecorder25SetApplicationUtilizationEdE3$_0NS_9allocatorIS5_EEFvPN9grpc_core17BackendMetricDataEEE7__cloneEv', symObjAddr: 0x30A8, symBinAddr: 0x8CE4, symSize: 0x34 }
  - { offset: 0x7840B, size: 0x8, addend: 0x0, symName: '__ZNKSt3__110__function6__funcIZN4grpc12experimental20ServerMetricRecorder25SetApplicationUtilizationEdE3$_0NS_9allocatorIS5_EEFvPN9grpc_core17BackendMetricDataEEE7__cloneEPNS0_6__baseISB_EE', symObjAddr: 0x30DC, symBinAddr: 0x8D18, symSize: 0x14 }
  - { offset: 0x78443, size: 0x8, addend: 0x0, symName: '__ZNKSt3__110__function6__funcIZN4grpc12experimental20ServerMetricRecorder25SetApplicationUtilizationEdE3$_0NS_9allocatorIS5_EEFvPN9grpc_core17BackendMetricDataEEE7__cloneEPNS0_6__baseISB_EE', symObjAddr: 0x30DC, symBinAddr: 0x8D18, symSize: 0x14 }
  - { offset: 0x78471, size: 0x8, addend: 0x0, symName: '__ZNKSt3__110__function6__funcIZN4grpc12experimental20ServerMetricRecorder25SetApplicationUtilizationEdE3$_0NS_9allocatorIS5_EEFvPN9grpc_core17BackendMetricDataEEE7__cloneEPNS0_6__baseISB_EE', symObjAddr: 0x30DC, symBinAddr: 0x8D18, symSize: 0x14 }
  - { offset: 0x7849F, size: 0x8, addend: 0x0, symName: '__ZNKSt3__110__function6__funcIZN4grpc12experimental20ServerMetricRecorder25SetApplicationUtilizationEdE3$_0NS_9allocatorIS5_EEFvPN9grpc_core17BackendMetricDataEEE7__cloneEPNS0_6__baseISB_EE', symObjAddr: 0x30DC, symBinAddr: 0x8D18, symSize: 0x14 }
  - { offset: 0x784B4, size: 0x8, addend: 0x0, symName: '__ZNKSt3__110__function6__funcIZN4grpc12experimental20ServerMetricRecorder25SetApplicationUtilizationEdE3$_0NS_9allocatorIS5_EEFvPN9grpc_core17BackendMetricDataEEE7__cloneEPNS0_6__baseISB_EE', symObjAddr: 0x30DC, symBinAddr: 0x8D18, symSize: 0x14 }
  - { offset: 0x784C8, size: 0x8, addend: 0x0, symName: '__ZNKSt3__110__function6__funcIZN4grpc12experimental20ServerMetricRecorder25SetApplicationUtilizationEdE3$_0NS_9allocatorIS5_EEFvPN9grpc_core17BackendMetricDataEEE7__cloneEPNS0_6__baseISB_EE', symObjAddr: 0x30DC, symBinAddr: 0x8D18, symSize: 0x14 }
  - { offset: 0x784DC, size: 0x8, addend: 0x0, symName: '__ZNKSt3__110__function6__funcIZN4grpc12experimental20ServerMetricRecorder25SetApplicationUtilizationEdE3$_0NS_9allocatorIS5_EEFvPN9grpc_core17BackendMetricDataEEE7__cloneEPNS0_6__baseISB_EE', symObjAddr: 0x30DC, symBinAddr: 0x8D18, symSize: 0x14 }
  - { offset: 0x784F1, size: 0x8, addend: 0x0, symName: '__ZNKSt3__110__function6__funcIZN4grpc12experimental20ServerMetricRecorder25SetApplicationUtilizationEdE3$_0NS_9allocatorIS5_EEFvPN9grpc_core17BackendMetricDataEEE7__cloneEPNS0_6__baseISB_EE', symObjAddr: 0x30DC, symBinAddr: 0x8D18, symSize: 0x14 }
  - { offset: 0x78509, size: 0x8, addend: 0x0, symName: '__ZNSt3__110__function6__funcIZN4grpc12experimental20ServerMetricRecorder25SetApplicationUtilizationEdE3$_0NS_9allocatorIS5_EEFvPN9grpc_core17BackendMetricDataEEE7destroyEv', symObjAddr: 0x30F0, symBinAddr: 0x8D2C, symSize: 0x4 }
  - { offset: 0x7855A, size: 0x8, addend: 0x0, symName: '__ZNSt3__110__function6__funcIZN4grpc12experimental20ServerMetricRecorder25SetApplicationUtilizationEdE3$_0NS_9allocatorIS5_EEFvPN9grpc_core17BackendMetricDataEEE18destroy_deallocateEv', symObjAddr: 0x30F4, symBinAddr: 0x8D30, symSize: 0x4 }
  - { offset: 0x78590, size: 0x8, addend: 0x0, symName: '__ZNSt3__110__function6__funcIZN4grpc12experimental20ServerMetricRecorder25SetApplicationUtilizationEdE3$_0NS_9allocatorIS5_EEFvPN9grpc_core17BackendMetricDataEEE18destroy_deallocateEv', symObjAddr: 0x30F4, symBinAddr: 0x8D30, symSize: 0x4 }
  - { offset: 0x785B3, size: 0x8, addend: 0x0, symName: '__ZNSt3__110__function6__funcIZN4grpc12experimental20ServerMetricRecorder25SetApplicationUtilizationEdE3$_0NS_9allocatorIS5_EEFvPN9grpc_core17BackendMetricDataEEE18destroy_deallocateEv', symObjAddr: 0x30F4, symBinAddr: 0x8D30, symSize: 0x4 }
  - { offset: 0x785DF, size: 0x8, addend: 0x0, symName: '__ZNSt3__110__function6__funcIZN4grpc12experimental20ServerMetricRecorder25SetApplicationUtilizationEdE3$_0NS_9allocatorIS5_EEFvPN9grpc_core17BackendMetricDataEEE18destroy_deallocateEv', symObjAddr: 0x30F4, symBinAddr: 0x8D30, symSize: 0x4 }
  - { offset: 0x78605, size: 0x8, addend: 0x0, symName: '__ZNSt3__110__function6__funcIZN4grpc12experimental20ServerMetricRecorder25SetApplicationUtilizationEdE3$_0NS_9allocatorIS5_EEFvPN9grpc_core17BackendMetricDataEEE18destroy_deallocateEv', symObjAddr: 0x30F4, symBinAddr: 0x8D30, symSize: 0x4 }
  - { offset: 0x786AA, size: 0x8, addend: 0x0, symName: '__ZNSt3__110__function6__funcIZN4grpc12experimental20ServerMetricRecorder25SetApplicationUtilizationEdE3$_0NS_9allocatorIS5_EEFvPN9grpc_core17BackendMetricDataEEEclEOSA_', symObjAddr: 0x30F8, symBinAddr: 0x8D34, symSize: 0x10 }
  - { offset: 0x786E2, size: 0x8, addend: 0x0, symName: '__ZNSt3__110__function6__funcIZN4grpc12experimental20ServerMetricRecorder25SetApplicationUtilizationEdE3$_0NS_9allocatorIS5_EEFvPN9grpc_core17BackendMetricDataEEEclEOSA_', symObjAddr: 0x30F8, symBinAddr: 0x8D34, symSize: 0x10 }
  - { offset: 0x78707, size: 0x8, addend: 0x0, symName: '__ZNSt3__110__function6__funcIZN4grpc12experimental20ServerMetricRecorder25SetApplicationUtilizationEdE3$_0NS_9allocatorIS5_EEFvPN9grpc_core17BackendMetricDataEEEclEOSA_', symObjAddr: 0x30F8, symBinAddr: 0x8D34, symSize: 0x10 }
  - { offset: 0x7872B, size: 0x8, addend: 0x0, symName: '__ZNSt3__110__function6__funcIZN4grpc12experimental20ServerMetricRecorder25SetApplicationUtilizationEdE3$_0NS_9allocatorIS5_EEFvPN9grpc_core17BackendMetricDataEEEclEOSA_', symObjAddr: 0x30F8, symBinAddr: 0x8D34, symSize: 0x10 }
  - { offset: 0x78777, size: 0x8, addend: 0x0, symName: '__ZNKSt3__110__function6__funcIZN4grpc12experimental20ServerMetricRecorder25SetApplicationUtilizationEdE3$_0NS_9allocatorIS5_EEFvPN9grpc_core17BackendMetricDataEEE6targetERKSt9type_info', symObjAddr: 0x3108, symBinAddr: 0x8D44, symSize: 0x3C }
  - { offset: 0x787C7, size: 0x8, addend: 0x0, symName: '__ZNKSt3__110__function6__funcIZN4grpc12experimental20ServerMetricRecorder25SetApplicationUtilizationEdE3$_0NS_9allocatorIS5_EEFvPN9grpc_core17BackendMetricDataEEE11target_typeEv', symObjAddr: 0x3144, symBinAddr: 0x8D80, symSize: 0xC }
  - { offset: 0x787EC, size: 0x8, addend: 0x0, symName: '__ZNSt3__110__function6__funcIZN4grpc12experimental20ServerMetricRecorder6SetQpsEdE3$_0NS_9allocatorIS5_EEFvPN9grpc_core17BackendMetricDataEEED1Ev', symObjAddr: 0x3150, symBinAddr: 0x8D8C, symSize: 0x4 }
  - { offset: 0x78817, size: 0x8, addend: 0x0, symName: '__ZNSt3__110__function6__funcIZN4grpc12experimental20ServerMetricRecorder6SetQpsEdE3$_0NS_9allocatorIS5_EEFvPN9grpc_core17BackendMetricDataEEED0Ev', symObjAddr: 0x3154, symBinAddr: 0x8D90, symSize: 0x4 }
  - { offset: 0x78A1A, size: 0x8, addend: 0x0, symName: '__ZNKSt3__110__function6__funcIZN4grpc12experimental20ServerMetricRecorder6SetQpsEdE3$_0NS_9allocatorIS5_EEFvPN9grpc_core17BackendMetricDataEEE7__cloneEv', symObjAddr: 0x3158, symBinAddr: 0x8D94, symSize: 0x34 }
  - { offset: 0x78D13, size: 0x8, addend: 0x0, symName: '__ZNKSt3__110__function6__funcIZN4grpc12experimental20ServerMetricRecorder6SetQpsEdE3$_0NS_9allocatorIS5_EEFvPN9grpc_core17BackendMetricDataEEE7__cloneEPNS0_6__baseISB_EE', symObjAddr: 0x318C, symBinAddr: 0x8DC8, symSize: 0x14 }
  - { offset: 0x78D4B, size: 0x8, addend: 0x0, symName: '__ZNKSt3__110__function6__funcIZN4grpc12experimental20ServerMetricRecorder6SetQpsEdE3$_0NS_9allocatorIS5_EEFvPN9grpc_core17BackendMetricDataEEE7__cloneEPNS0_6__baseISB_EE', symObjAddr: 0x318C, symBinAddr: 0x8DC8, symSize: 0x14 }
  - { offset: 0x78D79, size: 0x8, addend: 0x0, symName: '__ZNKSt3__110__function6__funcIZN4grpc12experimental20ServerMetricRecorder6SetQpsEdE3$_0NS_9allocatorIS5_EEFvPN9grpc_core17BackendMetricDataEEE7__cloneEPNS0_6__baseISB_EE', symObjAddr: 0x318C, symBinAddr: 0x8DC8, symSize: 0x14 }
  - { offset: 0x78DA7, size: 0x8, addend: 0x0, symName: '__ZNKSt3__110__function6__funcIZN4grpc12experimental20ServerMetricRecorder6SetQpsEdE3$_0NS_9allocatorIS5_EEFvPN9grpc_core17BackendMetricDataEEE7__cloneEPNS0_6__baseISB_EE', symObjAddr: 0x318C, symBinAddr: 0x8DC8, symSize: 0x14 }
  - { offset: 0x78DBC, size: 0x8, addend: 0x0, symName: '__ZNKSt3__110__function6__funcIZN4grpc12experimental20ServerMetricRecorder6SetQpsEdE3$_0NS_9allocatorIS5_EEFvPN9grpc_core17BackendMetricDataEEE7__cloneEPNS0_6__baseISB_EE', symObjAddr: 0x318C, symBinAddr: 0x8DC8, symSize: 0x14 }
  - { offset: 0x78DD0, size: 0x8, addend: 0x0, symName: '__ZNKSt3__110__function6__funcIZN4grpc12experimental20ServerMetricRecorder6SetQpsEdE3$_0NS_9allocatorIS5_EEFvPN9grpc_core17BackendMetricDataEEE7__cloneEPNS0_6__baseISB_EE', symObjAddr: 0x318C, symBinAddr: 0x8DC8, symSize: 0x14 }
  - { offset: 0x78DE4, size: 0x8, addend: 0x0, symName: '__ZNKSt3__110__function6__funcIZN4grpc12experimental20ServerMetricRecorder6SetQpsEdE3$_0NS_9allocatorIS5_EEFvPN9grpc_core17BackendMetricDataEEE7__cloneEPNS0_6__baseISB_EE', symObjAddr: 0x318C, symBinAddr: 0x8DC8, symSize: 0x14 }
  - { offset: 0x78DF9, size: 0x8, addend: 0x0, symName: '__ZNKSt3__110__function6__funcIZN4grpc12experimental20ServerMetricRecorder6SetQpsEdE3$_0NS_9allocatorIS5_EEFvPN9grpc_core17BackendMetricDataEEE7__cloneEPNS0_6__baseISB_EE', symObjAddr: 0x318C, symBinAddr: 0x8DC8, symSize: 0x14 }
  - { offset: 0x78E11, size: 0x8, addend: 0x0, symName: '__ZNSt3__110__function6__funcIZN4grpc12experimental20ServerMetricRecorder6SetQpsEdE3$_0NS_9allocatorIS5_EEFvPN9grpc_core17BackendMetricDataEEE7destroyEv', symObjAddr: 0x31A0, symBinAddr: 0x8DDC, symSize: 0x4 }
  - { offset: 0x78E62, size: 0x8, addend: 0x0, symName: '__ZNSt3__110__function6__funcIZN4grpc12experimental20ServerMetricRecorder6SetQpsEdE3$_0NS_9allocatorIS5_EEFvPN9grpc_core17BackendMetricDataEEE18destroy_deallocateEv', symObjAddr: 0x31A4, symBinAddr: 0x8DE0, symSize: 0x4 }
  - { offset: 0x78E98, size: 0x8, addend: 0x0, symName: '__ZNSt3__110__function6__funcIZN4grpc12experimental20ServerMetricRecorder6SetQpsEdE3$_0NS_9allocatorIS5_EEFvPN9grpc_core17BackendMetricDataEEE18destroy_deallocateEv', symObjAddr: 0x31A4, symBinAddr: 0x8DE0, symSize: 0x4 }
  - { offset: 0x78EBB, size: 0x8, addend: 0x0, symName: '__ZNSt3__110__function6__funcIZN4grpc12experimental20ServerMetricRecorder6SetQpsEdE3$_0NS_9allocatorIS5_EEFvPN9grpc_core17BackendMetricDataEEE18destroy_deallocateEv', symObjAddr: 0x31A4, symBinAddr: 0x8DE0, symSize: 0x4 }
  - { offset: 0x78EE7, size: 0x8, addend: 0x0, symName: '__ZNSt3__110__function6__funcIZN4grpc12experimental20ServerMetricRecorder6SetQpsEdE3$_0NS_9allocatorIS5_EEFvPN9grpc_core17BackendMetricDataEEE18destroy_deallocateEv', symObjAddr: 0x31A4, symBinAddr: 0x8DE0, symSize: 0x4 }
  - { offset: 0x78F0D, size: 0x8, addend: 0x0, symName: '__ZNSt3__110__function6__funcIZN4grpc12experimental20ServerMetricRecorder6SetQpsEdE3$_0NS_9allocatorIS5_EEFvPN9grpc_core17BackendMetricDataEEE18destroy_deallocateEv', symObjAddr: 0x31A4, symBinAddr: 0x8DE0, symSize: 0x4 }
  - { offset: 0x78FB2, size: 0x8, addend: 0x0, symName: '__ZNSt3__110__function6__funcIZN4grpc12experimental20ServerMetricRecorder6SetQpsEdE3$_0NS_9allocatorIS5_EEFvPN9grpc_core17BackendMetricDataEEEclEOSA_', symObjAddr: 0x31A8, symBinAddr: 0x8DE4, symSize: 0x10 }
  - { offset: 0x78FEA, size: 0x8, addend: 0x0, symName: '__ZNSt3__110__function6__funcIZN4grpc12experimental20ServerMetricRecorder6SetQpsEdE3$_0NS_9allocatorIS5_EEFvPN9grpc_core17BackendMetricDataEEEclEOSA_', symObjAddr: 0x31A8, symBinAddr: 0x8DE4, symSize: 0x10 }
  - { offset: 0x7900F, size: 0x8, addend: 0x0, symName: '__ZNSt3__110__function6__funcIZN4grpc12experimental20ServerMetricRecorder6SetQpsEdE3$_0NS_9allocatorIS5_EEFvPN9grpc_core17BackendMetricDataEEEclEOSA_', symObjAddr: 0x31A8, symBinAddr: 0x8DE4, symSize: 0x10 }
  - { offset: 0x79033, size: 0x8, addend: 0x0, symName: '__ZNSt3__110__function6__funcIZN4grpc12experimental20ServerMetricRecorder6SetQpsEdE3$_0NS_9allocatorIS5_EEFvPN9grpc_core17BackendMetricDataEEEclEOSA_', symObjAddr: 0x31A8, symBinAddr: 0x8DE4, symSize: 0x10 }
  - { offset: 0x7907F, size: 0x8, addend: 0x0, symName: '__ZNKSt3__110__function6__funcIZN4grpc12experimental20ServerMetricRecorder6SetQpsEdE3$_0NS_9allocatorIS5_EEFvPN9grpc_core17BackendMetricDataEEE6targetERKSt9type_info', symObjAddr: 0x31B8, symBinAddr: 0x8DF4, symSize: 0x3C }
  - { offset: 0x790CF, size: 0x8, addend: 0x0, symName: '__ZNKSt3__110__function6__funcIZN4grpc12experimental20ServerMetricRecorder6SetQpsEdE3$_0NS_9allocatorIS5_EEFvPN9grpc_core17BackendMetricDataEEE11target_typeEv', symObjAddr: 0x31F4, symBinAddr: 0x8E30, symSize: 0xC }
  - { offset: 0x790F4, size: 0x8, addend: 0x0, symName: '__ZNSt3__110__function6__funcIZN4grpc12experimental20ServerMetricRecorder6SetEpsEdE3$_0NS_9allocatorIS5_EEFvPN9grpc_core17BackendMetricDataEEED1Ev', symObjAddr: 0x3200, symBinAddr: 0x8E3C, symSize: 0x4 }
  - { offset: 0x7911F, size: 0x8, addend: 0x0, symName: '__ZNSt3__110__function6__funcIZN4grpc12experimental20ServerMetricRecorder6SetEpsEdE3$_0NS_9allocatorIS5_EEFvPN9grpc_core17BackendMetricDataEEED0Ev', symObjAddr: 0x3204, symBinAddr: 0x8E40, symSize: 0x4 }
  - { offset: 0x79322, size: 0x8, addend: 0x0, symName: '__ZNKSt3__110__function6__funcIZN4grpc12experimental20ServerMetricRecorder6SetEpsEdE3$_0NS_9allocatorIS5_EEFvPN9grpc_core17BackendMetricDataEEE7__cloneEv', symObjAddr: 0x3208, symBinAddr: 0x8E44, symSize: 0x34 }
  - { offset: 0x7961B, size: 0x8, addend: 0x0, symName: '__ZNKSt3__110__function6__funcIZN4grpc12experimental20ServerMetricRecorder6SetEpsEdE3$_0NS_9allocatorIS5_EEFvPN9grpc_core17BackendMetricDataEEE7__cloneEPNS0_6__baseISB_EE', symObjAddr: 0x323C, symBinAddr: 0x8E78, symSize: 0x14 }
  - { offset: 0x79653, size: 0x8, addend: 0x0, symName: '__ZNKSt3__110__function6__funcIZN4grpc12experimental20ServerMetricRecorder6SetEpsEdE3$_0NS_9allocatorIS5_EEFvPN9grpc_core17BackendMetricDataEEE7__cloneEPNS0_6__baseISB_EE', symObjAddr: 0x323C, symBinAddr: 0x8E78, symSize: 0x14 }
  - { offset: 0x79681, size: 0x8, addend: 0x0, symName: '__ZNKSt3__110__function6__funcIZN4grpc12experimental20ServerMetricRecorder6SetEpsEdE3$_0NS_9allocatorIS5_EEFvPN9grpc_core17BackendMetricDataEEE7__cloneEPNS0_6__baseISB_EE', symObjAddr: 0x323C, symBinAddr: 0x8E78, symSize: 0x14 }
  - { offset: 0x796AF, size: 0x8, addend: 0x0, symName: '__ZNKSt3__110__function6__funcIZN4grpc12experimental20ServerMetricRecorder6SetEpsEdE3$_0NS_9allocatorIS5_EEFvPN9grpc_core17BackendMetricDataEEE7__cloneEPNS0_6__baseISB_EE', symObjAddr: 0x323C, symBinAddr: 0x8E78, symSize: 0x14 }
  - { offset: 0x796C4, size: 0x8, addend: 0x0, symName: '__ZNKSt3__110__function6__funcIZN4grpc12experimental20ServerMetricRecorder6SetEpsEdE3$_0NS_9allocatorIS5_EEFvPN9grpc_core17BackendMetricDataEEE7__cloneEPNS0_6__baseISB_EE', symObjAddr: 0x323C, symBinAddr: 0x8E78, symSize: 0x14 }
  - { offset: 0x796D8, size: 0x8, addend: 0x0, symName: '__ZNKSt3__110__function6__funcIZN4grpc12experimental20ServerMetricRecorder6SetEpsEdE3$_0NS_9allocatorIS5_EEFvPN9grpc_core17BackendMetricDataEEE7__cloneEPNS0_6__baseISB_EE', symObjAddr: 0x323C, symBinAddr: 0x8E78, symSize: 0x14 }
  - { offset: 0x796EC, size: 0x8, addend: 0x0, symName: '__ZNKSt3__110__function6__funcIZN4grpc12experimental20ServerMetricRecorder6SetEpsEdE3$_0NS_9allocatorIS5_EEFvPN9grpc_core17BackendMetricDataEEE7__cloneEPNS0_6__baseISB_EE', symObjAddr: 0x323C, symBinAddr: 0x8E78, symSize: 0x14 }
  - { offset: 0x79701, size: 0x8, addend: 0x0, symName: '__ZNKSt3__110__function6__funcIZN4grpc12experimental20ServerMetricRecorder6SetEpsEdE3$_0NS_9allocatorIS5_EEFvPN9grpc_core17BackendMetricDataEEE7__cloneEPNS0_6__baseISB_EE', symObjAddr: 0x323C, symBinAddr: 0x8E78, symSize: 0x14 }
  - { offset: 0x79719, size: 0x8, addend: 0x0, symName: '__ZNSt3__110__function6__funcIZN4grpc12experimental20ServerMetricRecorder6SetEpsEdE3$_0NS_9allocatorIS5_EEFvPN9grpc_core17BackendMetricDataEEE7destroyEv', symObjAddr: 0x3250, symBinAddr: 0x8E8C, symSize: 0x4 }
  - { offset: 0x7976A, size: 0x8, addend: 0x0, symName: '__ZNSt3__110__function6__funcIZN4grpc12experimental20ServerMetricRecorder6SetEpsEdE3$_0NS_9allocatorIS5_EEFvPN9grpc_core17BackendMetricDataEEE18destroy_deallocateEv', symObjAddr: 0x3254, symBinAddr: 0x8E90, symSize: 0x4 }
  - { offset: 0x797A0, size: 0x8, addend: 0x0, symName: '__ZNSt3__110__function6__funcIZN4grpc12experimental20ServerMetricRecorder6SetEpsEdE3$_0NS_9allocatorIS5_EEFvPN9grpc_core17BackendMetricDataEEE18destroy_deallocateEv', symObjAddr: 0x3254, symBinAddr: 0x8E90, symSize: 0x4 }
  - { offset: 0x797C3, size: 0x8, addend: 0x0, symName: '__ZNSt3__110__function6__funcIZN4grpc12experimental20ServerMetricRecorder6SetEpsEdE3$_0NS_9allocatorIS5_EEFvPN9grpc_core17BackendMetricDataEEE18destroy_deallocateEv', symObjAddr: 0x3254, symBinAddr: 0x8E90, symSize: 0x4 }
  - { offset: 0x797EF, size: 0x8, addend: 0x0, symName: '__ZNSt3__110__function6__funcIZN4grpc12experimental20ServerMetricRecorder6SetEpsEdE3$_0NS_9allocatorIS5_EEFvPN9grpc_core17BackendMetricDataEEE18destroy_deallocateEv', symObjAddr: 0x3254, symBinAddr: 0x8E90, symSize: 0x4 }
  - { offset: 0x79815, size: 0x8, addend: 0x0, symName: '__ZNSt3__110__function6__funcIZN4grpc12experimental20ServerMetricRecorder6SetEpsEdE3$_0NS_9allocatorIS5_EEFvPN9grpc_core17BackendMetricDataEEE18destroy_deallocateEv', symObjAddr: 0x3254, symBinAddr: 0x8E90, symSize: 0x4 }
  - { offset: 0x798BA, size: 0x8, addend: 0x0, symName: '__ZNSt3__110__function6__funcIZN4grpc12experimental20ServerMetricRecorder6SetEpsEdE3$_0NS_9allocatorIS5_EEFvPN9grpc_core17BackendMetricDataEEEclEOSA_', symObjAddr: 0x3258, symBinAddr: 0x8E94, symSize: 0x10 }
  - { offset: 0x798F2, size: 0x8, addend: 0x0, symName: '__ZNSt3__110__function6__funcIZN4grpc12experimental20ServerMetricRecorder6SetEpsEdE3$_0NS_9allocatorIS5_EEFvPN9grpc_core17BackendMetricDataEEEclEOSA_', symObjAddr: 0x3258, symBinAddr: 0x8E94, symSize: 0x10 }
  - { offset: 0x79917, size: 0x8, addend: 0x0, symName: '__ZNSt3__110__function6__funcIZN4grpc12experimental20ServerMetricRecorder6SetEpsEdE3$_0NS_9allocatorIS5_EEFvPN9grpc_core17BackendMetricDataEEEclEOSA_', symObjAddr: 0x3258, symBinAddr: 0x8E94, symSize: 0x10 }
  - { offset: 0x7993B, size: 0x8, addend: 0x0, symName: '__ZNSt3__110__function6__funcIZN4grpc12experimental20ServerMetricRecorder6SetEpsEdE3$_0NS_9allocatorIS5_EEFvPN9grpc_core17BackendMetricDataEEEclEOSA_', symObjAddr: 0x3258, symBinAddr: 0x8E94, symSize: 0x10 }
  - { offset: 0x79987, size: 0x8, addend: 0x0, symName: '__ZNKSt3__110__function6__funcIZN4grpc12experimental20ServerMetricRecorder6SetEpsEdE3$_0NS_9allocatorIS5_EEFvPN9grpc_core17BackendMetricDataEEE6targetERKSt9type_info', symObjAddr: 0x3268, symBinAddr: 0x8EA4, symSize: 0x3C }
  - { offset: 0x799D7, size: 0x8, addend: 0x0, symName: '__ZNKSt3__110__function6__funcIZN4grpc12experimental20ServerMetricRecorder6SetEpsEdE3$_0NS_9allocatorIS5_EEFvPN9grpc_core17BackendMetricDataEEE11target_typeEv', symObjAddr: 0x32A4, symBinAddr: 0x8EE0, symSize: 0xC }
  - { offset: 0x799FC, size: 0x8, addend: 0x0, symName: '__ZNSt3__110__function6__funcIZN4grpc12experimental20ServerMetricRecorder19SetNamedUtilizationENS2_10string_refEdE3$_0NS_9allocatorIS6_EEFvPN9grpc_core17BackendMetricDataEEED1Ev', symObjAddr: 0x32B0, symBinAddr: 0x8EEC, symSize: 0x4 }
  - { offset: 0x79A27, size: 0x8, addend: 0x0, symName: '__ZNSt3__110__function6__funcIZN4grpc12experimental20ServerMetricRecorder19SetNamedUtilizationENS2_10string_refEdE3$_0NS_9allocatorIS6_EEFvPN9grpc_core17BackendMetricDataEEED0Ev', symObjAddr: 0x32B4, symBinAddr: 0x8EF0, symSize: 0x4 }
  - { offset: 0x79C46, size: 0x8, addend: 0x0, symName: '__ZNKSt3__110__function6__funcIZN4grpc12experimental20ServerMetricRecorder19SetNamedUtilizationENS2_10string_refEdE3$_0NS_9allocatorIS6_EEFvPN9grpc_core17BackendMetricDataEEE7__cloneEv', symObjAddr: 0x32B8, symBinAddr: 0x8EF4, symSize: 0x40 }
  - { offset: 0x79FC8, size: 0x8, addend: 0x0, symName: '__ZNKSt3__110__function6__funcIZN4grpc12experimental20ServerMetricRecorder19SetNamedUtilizationENS2_10string_refEdE3$_0NS_9allocatorIS6_EEFvPN9grpc_core17BackendMetricDataEEE7__cloneEPNS0_6__baseISC_EE', symObjAddr: 0x32F8, symBinAddr: 0x8F34, symSize: 0x20 }
  - { offset: 0x7A000, size: 0x8, addend: 0x0, symName: '__ZNKSt3__110__function6__funcIZN4grpc12experimental20ServerMetricRecorder19SetNamedUtilizationENS2_10string_refEdE3$_0NS_9allocatorIS6_EEFvPN9grpc_core17BackendMetricDataEEE7__cloneEPNS0_6__baseISC_EE', symObjAddr: 0x32F8, symBinAddr: 0x8F34, symSize: 0x20 }
  - { offset: 0x7A02E, size: 0x8, addend: 0x0, symName: '__ZNKSt3__110__function6__funcIZN4grpc12experimental20ServerMetricRecorder19SetNamedUtilizationENS2_10string_refEdE3$_0NS_9allocatorIS6_EEFvPN9grpc_core17BackendMetricDataEEE7__cloneEPNS0_6__baseISC_EE', symObjAddr: 0x32F8, symBinAddr: 0x8F34, symSize: 0x20 }
  - { offset: 0x7A1A0, size: 0x8, addend: 0x0, symName: '__ZNSt3__110__function6__funcIZN4grpc12experimental20ServerMetricRecorder19SetNamedUtilizationENS2_10string_refEdE3$_0NS_9allocatorIS6_EEFvPN9grpc_core17BackendMetricDataEEE7destroyEv', symObjAddr: 0x3318, symBinAddr: 0x8F54, symSize: 0x4 }
  - { offset: 0x7A1F1, size: 0x8, addend: 0x0, symName: '__ZNSt3__110__function6__funcIZN4grpc12experimental20ServerMetricRecorder19SetNamedUtilizationENS2_10string_refEdE3$_0NS_9allocatorIS6_EEFvPN9grpc_core17BackendMetricDataEEE18destroy_deallocateEv', symObjAddr: 0x331C, symBinAddr: 0x8F58, symSize: 0x4 }
  - { offset: 0x7A227, size: 0x8, addend: 0x0, symName: '__ZNSt3__110__function6__funcIZN4grpc12experimental20ServerMetricRecorder19SetNamedUtilizationENS2_10string_refEdE3$_0NS_9allocatorIS6_EEFvPN9grpc_core17BackendMetricDataEEE18destroy_deallocateEv', symObjAddr: 0x331C, symBinAddr: 0x8F58, symSize: 0x4 }
  - { offset: 0x7A24A, size: 0x8, addend: 0x0, symName: '__ZNSt3__110__function6__funcIZN4grpc12experimental20ServerMetricRecorder19SetNamedUtilizationENS2_10string_refEdE3$_0NS_9allocatorIS6_EEFvPN9grpc_core17BackendMetricDataEEE18destroy_deallocateEv', symObjAddr: 0x331C, symBinAddr: 0x8F58, symSize: 0x4 }
  - { offset: 0x7A276, size: 0x8, addend: 0x0, symName: '__ZNSt3__110__function6__funcIZN4grpc12experimental20ServerMetricRecorder19SetNamedUtilizationENS2_10string_refEdE3$_0NS_9allocatorIS6_EEFvPN9grpc_core17BackendMetricDataEEE18destroy_deallocateEv', symObjAddr: 0x331C, symBinAddr: 0x8F58, symSize: 0x4 }
  - { offset: 0x7A29C, size: 0x8, addend: 0x0, symName: '__ZNSt3__110__function6__funcIZN4grpc12experimental20ServerMetricRecorder19SetNamedUtilizationENS2_10string_refEdE3$_0NS_9allocatorIS6_EEFvPN9grpc_core17BackendMetricDataEEE18destroy_deallocateEv', symObjAddr: 0x331C, symBinAddr: 0x8F58, symSize: 0x4 }
  - { offset: 0x7A365, size: 0x8, addend: 0x0, symName: '__ZNSt3__110__function6__funcIZN4grpc12experimental20ServerMetricRecorder19SetNamedUtilizationENS2_10string_refEdE3$_0NS_9allocatorIS6_EEFvPN9grpc_core17BackendMetricDataEEEclEOSB_', symObjAddr: 0x3320, symBinAddr: 0x8F5C, symSize: 0x64 }
  - { offset: 0x7A505, size: 0x8, addend: 0x0, symName: '__ZNKSt3__110__function6__funcIZN4grpc12experimental20ServerMetricRecorder19SetNamedUtilizationENS2_10string_refEdE3$_0NS_9allocatorIS6_EEFvPN9grpc_core17BackendMetricDataEEE6targetERKSt9type_info', symObjAddr: 0x3384, symBinAddr: 0x8FC0, symSize: 0x3C }
  - { offset: 0x7A510, size: 0x8, addend: 0x0, symName: __ZNSt3__16__treeINS_12__value_typeIN4absl12lts_2024011611string_viewEdEENS_19__map_value_compareIS4_S5_NS_4lessIS4_EELb1EEENS_9allocatorIS5_EEE25__emplace_unique_key_argsIS4_JRKNS_21piecewise_construct_tENS_5tupleIJOS4_EEENSH_IJEEEEEENS_4pairINS_15__tree_iteratorIS5_PNS_11__tree_nodeIS5_PvEElEEbEERKT_DpOT0_, symObjAddr: 0x33CC, symBinAddr: 0x9008, symSize: 0x88 }
  - { offset: 0x7A7C0, size: 0x8, addend: 0x0, symName: '__ZNSt3__110__function6__funcIZN4grpc12experimental20ServerMetricRecorder19SetNamedUtilizationENS2_10string_refEdE3$_0NS_9allocatorIS6_EEFvPN9grpc_core17BackendMetricDataEEEclEOSB_.cold.1', symObjAddr: 0x449C, symBinAddr: 0x2F9C4, symSize: 0x24 }
  - { offset: 0x7A885, size: 0x8, addend: 0x0, symName: '__ZNKSt3__110__function6__funcIZN4grpc12experimental20ServerMetricRecorder19SetNamedUtilizationENS2_10string_refEdE3$_0NS_9allocatorIS6_EEFvPN9grpc_core17BackendMetricDataEEE6targetERKSt9type_info', symObjAddr: 0x3384, symBinAddr: 0x8FC0, symSize: 0x3C }
  - { offset: 0x7A8D5, size: 0x8, addend: 0x0, symName: '__ZNKSt3__110__function6__funcIZN4grpc12experimental20ServerMetricRecorder19SetNamedUtilizationENS2_10string_refEdE3$_0NS_9allocatorIS6_EEFvPN9grpc_core17BackendMetricDataEEE11target_typeEv', symObjAddr: 0x33C0, symBinAddr: 0x8FFC, symSize: 0xC }
  - { offset: 0x7AC01, size: 0x8, addend: 0x0, symName: '__ZNSt3__110__function6__funcIZN4grpc12experimental20ServerMetricRecorder22SetAllNamedUtilizationENS_3mapINS2_10string_refEdNS_4lessIS6_EENS_9allocatorINS_4pairIKS6_dEEEEEEE3$_0NS9_ISF_EEFvPN9grpc_core17BackendMetricDataEEED1Ev', symObjAddr: 0x3454, symBinAddr: 0x9090, symSize: 0x34 }
  - { offset: 0x7ADBD, size: 0x8, addend: 0x0, symName: '__ZNSt3__110__function6__funcIZN4grpc12experimental20ServerMetricRecorder22SetAllNamedUtilizationENS_3mapINS2_10string_refEdNS_4lessIS6_EENS_9allocatorINS_4pairIKS6_dEEEEEEE3$_0NS9_ISF_EEFvPN9grpc_core17BackendMetricDataEEED0Ev', symObjAddr: 0x3488, symBinAddr: 0x90C4, symSize: 0x34 }
  - { offset: 0x7B2B2, size: 0x8, addend: 0x0, symName: '__ZNKSt3__110__function6__funcIZN4grpc12experimental20ServerMetricRecorder22SetAllNamedUtilizationENS_3mapINS2_10string_refEdNS_4lessIS6_EENS_9allocatorINS_4pairIKS6_dEEEEEEE3$_0NS9_ISF_EEFvPN9grpc_core17BackendMetricDataEEE7__cloneEv', symObjAddr: 0x34BC, symBinAddr: 0x90F8, symSize: 0x54 }
  - { offset: 0x7B5DB, size: 0x8, addend: 0x0, symName: __ZNSt3__13mapIN4grpc10string_refEdNS_4lessIS2_EENS_9allocatorINS_4pairIKS2_dEEEEEC2B8ne180100ERKSA_, symObjAddr: 0x3694, symBinAddr: 0x92D0, symSize: 0x54 }
  - { offset: 0x7B8ED, size: 0x8, addend: 0x0, symName: '__ZNKSt3__110__function6__funcIZN4grpc12experimental20ServerMetricRecorder22SetAllNamedUtilizationENS_3mapINS2_10string_refEdNS_4lessIS6_EENS_9allocatorINS_4pairIKS6_dEEEEEEE3$_0NS9_ISF_EEFvPN9grpc_core17BackendMetricDataEEE7__cloneEPNS0_6__baseISK_EE', symObjAddr: 0x3510, symBinAddr: 0x914C, symSize: 0x1C }
  - { offset: 0x7BAD9, size: 0x8, addend: 0x0, symName: '__ZNSt3__110__function6__funcIZN4grpc12experimental20ServerMetricRecorder22SetAllNamedUtilizationENS_3mapINS2_10string_refEdNS_4lessIS6_EENS_9allocatorINS_4pairIKS6_dEEEEEEE3$_0NS9_ISF_EEFvPN9grpc_core17BackendMetricDataEEE7destroyEv', symObjAddr: 0x352C, symBinAddr: 0x9168, symSize: 0x10 }
  - { offset: 0x7BC49, size: 0x8, addend: 0x0, symName: '__ZNSt3__110__function6__funcIZN4grpc12experimental20ServerMetricRecorder22SetAllNamedUtilizationENS_3mapINS2_10string_refEdNS_4lessIS6_EENS_9allocatorINS_4pairIKS6_dEEEEEEE3$_0NS9_ISF_EEFvPN9grpc_core17BackendMetricDataEEE18destroy_deallocateEv', symObjAddr: 0x353C, symBinAddr: 0x9178, symSize: 0x2C }
  - { offset: 0x7BFF8, size: 0x8, addend: 0x0, symName: '__ZNSt3__110__function6__funcIZN4grpc12experimental20ServerMetricRecorder22SetAllNamedUtilizationENS_3mapINS2_10string_refEdNS_4lessIS6_EENS_9allocatorINS_4pairIKS6_dEEEEEEE3$_0NS9_ISF_EEFvPN9grpc_core17BackendMetricDataEEEclEOSJ_', symObjAddr: 0x3568, symBinAddr: 0x91A4, symSize: 0xE4 }
  - { offset: 0x7C34F, size: 0x8, addend: 0x0, symName: '__ZNKSt3__110__function6__funcIZN4grpc12experimental20ServerMetricRecorder22SetAllNamedUtilizationENS_3mapINS2_10string_refEdNS_4lessIS6_EENS_9allocatorINS_4pairIKS6_dEEEEEEE3$_0NS9_ISF_EEFvPN9grpc_core17BackendMetricDataEEE6targetERKSt9type_info', symObjAddr: 0x364C, symBinAddr: 0x9288, symSize: 0x3C }
  - { offset: 0x7C3B8, size: 0x8, addend: 0x0, symName: '__ZNKSt3__110__function6__funcIZN4grpc12experimental20ServerMetricRecorder22SetAllNamedUtilizationENS_3mapINS2_10string_refEdNS_4lessIS6_EENS_9allocatorINS_4pairIKS6_dEEEEEEE3$_0NS9_ISF_EEFvPN9grpc_core17BackendMetricDataEEE6targetERKSt9type_info', symObjAddr: 0x364C, symBinAddr: 0x9288, symSize: 0x3C }
  - { offset: 0x7C408, size: 0x8, addend: 0x0, symName: '__ZNKSt3__110__function6__funcIZN4grpc12experimental20ServerMetricRecorder22SetAllNamedUtilizationENS_3mapINS2_10string_refEdNS_4lessIS6_EENS_9allocatorINS_4pairIKS6_dEEEEEEE3$_0NS9_ISF_EEFvPN9grpc_core17BackendMetricDataEEE11target_typeEv', symObjAddr: 0x3688, symBinAddr: 0x92C4, symSize: 0xC }
  - { offset: 0x7C507, size: 0x8, addend: 0x0, symName: __ZNSt3__13mapIN4grpc10string_refEdNS_4lessIS2_EENS_9allocatorINS_4pairIKS2_dEEEEE6insertB8ne180100INS_20__map_const_iteratorINS_21__tree_const_iteratorINS_12__value_typeIS2_dEEPNS_11__tree_nodeISF_PvEElEEEEEEvT_SM_, symObjAddr: 0x36E8, symBinAddr: 0x9324, symSize: 0x84 }
  - { offset: 0x7C54D, size: 0x8, addend: 0x0, symName: __ZNSt3__13mapIN4grpc10string_refEdNS_4lessIS2_EENS_9allocatorINS_4pairIKS2_dEEEEE6insertB8ne180100INS_20__map_const_iteratorINS_21__tree_const_iteratorINS_12__value_typeIS2_dEEPNS_11__tree_nodeISF_PvEElEEEEEEvT_SM_, symObjAddr: 0x36E8, symBinAddr: 0x9324, symSize: 0x84 }
  - { offset: 0x7C7A7, size: 0x8, addend: 0x0, symName: __ZNSt3__16__treeINS_12__value_typeIN4grpc10string_refEdEENS_19__map_value_compareIS3_S4_NS_4lessIS3_EELb1EEENS_9allocatorIS4_EEE30__emplace_hint_unique_key_argsIS3_JRKNS_4pairIKS3_dEEEEENSD_INS_15__tree_iteratorIS4_PNS_11__tree_nodeIS4_PvEElEEbEENS_21__tree_const_iteratorIS4_SM_lEERKT_DpOT0_, symObjAddr: 0x376C, symBinAddr: 0x93A8, symSize: 0x8C }
  - { offset: 0x7CBDE, size: 0x8, addend: 0x0, symName: __ZNSt3__16__treeINS_12__value_typeIN4grpc10string_refEdEENS_19__map_value_compareIS3_S4_NS_4lessIS3_EELb1EEENS_9allocatorIS4_EEE12__find_equalIS3_EERPNS_16__tree_node_baseIPvEENS_21__tree_const_iteratorIS4_PNS_11__tree_nodeIS4_SE_EElEERPNS_15__tree_end_nodeISG_EESH_RKT_, symObjAddr: 0x37F8, symBinAddr: 0x9434, symSize: 0x1BC }
  - { offset: 0x7D465, size: 0x8, addend: 0x0, symName: __ZNK4grpc10string_ref7compareES0_, symObjAddr: 0x3AB4, symBinAddr: 0x969C, symSize: 0x5C }
  - { offset: 0x7D4CA, size: 0x8, addend: 0x0, symName: __ZNSt3__16__treeINS_12__value_typeIN4grpc10string_refEdEENS_19__map_value_compareIS3_S4_NS_4lessIS3_EELb1EEENS_9allocatorIS4_EEE12__find_equalIS3_EERPNS_16__tree_node_baseIPvEERPNS_15__tree_end_nodeISG_EERKT_, symObjAddr: 0x3A08, symBinAddr: 0x95F0, symSize: 0xAC }
  - { offset: 0x7D7E9, size: 0x8, addend: 0x0, symName: '__ZNSt3__110__function6__funcIZN4grpc12experimental20ServerMetricRecorder19ClearCpuUtilizationEvE3$_0NS_9allocatorIS5_EEFvPN9grpc_core17BackendMetricDataEEED1Ev', symObjAddr: 0x3B10, symBinAddr: 0x96F8, symSize: 0x4 }
  - { offset: 0x7D814, size: 0x8, addend: 0x0, symName: '__ZNSt3__110__function6__funcIZN4grpc12experimental20ServerMetricRecorder19ClearCpuUtilizationEvE3$_0NS_9allocatorIS5_EEFvPN9grpc_core17BackendMetricDataEEED0Ev', symObjAddr: 0x3B14, symBinAddr: 0x96FC, symSize: 0x4 }
  - { offset: 0x7D8C9, size: 0x8, addend: 0x0, symName: '__ZNKSt3__110__function6__funcIZN4grpc12experimental20ServerMetricRecorder19ClearCpuUtilizationEvE3$_0NS_9allocatorIS5_EEFvPN9grpc_core17BackendMetricDataEEE7__cloneEv', symObjAddr: 0x3B18, symBinAddr: 0x9700, symSize: 0x24 }
  - { offset: 0x7DA13, size: 0x8, addend: 0x0, symName: '__ZNKSt3__110__function6__funcIZN4grpc12experimental20ServerMetricRecorder19ClearCpuUtilizationEvE3$_0NS_9allocatorIS5_EEFvPN9grpc_core17BackendMetricDataEEE7__cloneEPNS0_6__baseISB_EE', symObjAddr: 0x3B3C, symBinAddr: 0x9724, symSize: 0x10 }
  - { offset: 0x7DA49, size: 0x8, addend: 0x0, symName: '__ZNKSt3__110__function6__funcIZN4grpc12experimental20ServerMetricRecorder19ClearCpuUtilizationEvE3$_0NS_9allocatorIS5_EEFvPN9grpc_core17BackendMetricDataEEE7__cloneEPNS0_6__baseISB_EE', symObjAddr: 0x3B3C, symBinAddr: 0x9724, symSize: 0x10 }
  - { offset: 0x7DA65, size: 0x8, addend: 0x0, symName: '__ZNKSt3__110__function6__funcIZN4grpc12experimental20ServerMetricRecorder19ClearCpuUtilizationEvE3$_0NS_9allocatorIS5_EEFvPN9grpc_core17BackendMetricDataEEE7__cloneEPNS0_6__baseISB_EE', symObjAddr: 0x3B3C, symBinAddr: 0x9724, symSize: 0x10 }
  - { offset: 0x7DA81, size: 0x8, addend: 0x0, symName: '__ZNSt3__110__function6__funcIZN4grpc12experimental20ServerMetricRecorder19ClearCpuUtilizationEvE3$_0NS_9allocatorIS5_EEFvPN9grpc_core17BackendMetricDataEEE7destroyEv', symObjAddr: 0x3B4C, symBinAddr: 0x9734, symSize: 0x4 }
  - { offset: 0x7DAD2, size: 0x8, addend: 0x0, symName: '__ZNSt3__110__function6__funcIZN4grpc12experimental20ServerMetricRecorder19ClearCpuUtilizationEvE3$_0NS_9allocatorIS5_EEFvPN9grpc_core17BackendMetricDataEEE18destroy_deallocateEv', symObjAddr: 0x3B50, symBinAddr: 0x9738, symSize: 0x4 }
  - { offset: 0x7DB08, size: 0x8, addend: 0x0, symName: '__ZNSt3__110__function6__funcIZN4grpc12experimental20ServerMetricRecorder19ClearCpuUtilizationEvE3$_0NS_9allocatorIS5_EEFvPN9grpc_core17BackendMetricDataEEE18destroy_deallocateEv', symObjAddr: 0x3B50, symBinAddr: 0x9738, symSize: 0x4 }
  - { offset: 0x7DB2B, size: 0x8, addend: 0x0, symName: '__ZNSt3__110__function6__funcIZN4grpc12experimental20ServerMetricRecorder19ClearCpuUtilizationEvE3$_0NS_9allocatorIS5_EEFvPN9grpc_core17BackendMetricDataEEE18destroy_deallocateEv', symObjAddr: 0x3B50, symBinAddr: 0x9738, symSize: 0x4 }
  - { offset: 0x7DB57, size: 0x8, addend: 0x0, symName: '__ZNSt3__110__function6__funcIZN4grpc12experimental20ServerMetricRecorder19ClearCpuUtilizationEvE3$_0NS_9allocatorIS5_EEFvPN9grpc_core17BackendMetricDataEEE18destroy_deallocateEv', symObjAddr: 0x3B50, symBinAddr: 0x9738, symSize: 0x4 }
  - { offset: 0x7DB7D, size: 0x8, addend: 0x0, symName: '__ZNSt3__110__function6__funcIZN4grpc12experimental20ServerMetricRecorder19ClearCpuUtilizationEvE3$_0NS_9allocatorIS5_EEFvPN9grpc_core17BackendMetricDataEEE18destroy_deallocateEv', symObjAddr: 0x3B50, symBinAddr: 0x9738, symSize: 0x4 }
  - { offset: 0x7DC22, size: 0x8, addend: 0x0, symName: '__ZNSt3__110__function6__funcIZN4grpc12experimental20ServerMetricRecorder19ClearCpuUtilizationEvE3$_0NS_9allocatorIS5_EEFvPN9grpc_core17BackendMetricDataEEEclEOSA_', symObjAddr: 0x3B54, symBinAddr: 0x973C, symSize: 0x10 }
  - { offset: 0x7DC58, size: 0x8, addend: 0x0, symName: '__ZNSt3__110__function6__funcIZN4grpc12experimental20ServerMetricRecorder19ClearCpuUtilizationEvE3$_0NS_9allocatorIS5_EEFvPN9grpc_core17BackendMetricDataEEEclEOSA_', symObjAddr: 0x3B54, symBinAddr: 0x973C, symSize: 0x10 }
  - { offset: 0x7DC74, size: 0x8, addend: 0x0, symName: '__ZNSt3__110__function6__funcIZN4grpc12experimental20ServerMetricRecorder19ClearCpuUtilizationEvE3$_0NS_9allocatorIS5_EEFvPN9grpc_core17BackendMetricDataEEEclEOSA_', symObjAddr: 0x3B54, symBinAddr: 0x973C, symSize: 0x10 }
  - { offset: 0x7DC8F, size: 0x8, addend: 0x0, symName: '__ZNSt3__110__function6__funcIZN4grpc12experimental20ServerMetricRecorder19ClearCpuUtilizationEvE3$_0NS_9allocatorIS5_EEFvPN9grpc_core17BackendMetricDataEEEclEOSA_', symObjAddr: 0x3B54, symBinAddr: 0x973C, symSize: 0x10 }
  - { offset: 0x7DCC9, size: 0x8, addend: 0x0, symName: '__ZNKSt3__110__function6__funcIZN4grpc12experimental20ServerMetricRecorder19ClearCpuUtilizationEvE3$_0NS_9allocatorIS5_EEFvPN9grpc_core17BackendMetricDataEEE6targetERKSt9type_info', symObjAddr: 0x3B64, symBinAddr: 0x974C, symSize: 0x3C }
  - { offset: 0x7DD19, size: 0x8, addend: 0x0, symName: '__ZNKSt3__110__function6__funcIZN4grpc12experimental20ServerMetricRecorder19ClearCpuUtilizationEvE3$_0NS_9allocatorIS5_EEFvPN9grpc_core17BackendMetricDataEEE11target_typeEv', symObjAddr: 0x3BA0, symBinAddr: 0x9788, symSize: 0xC }
  - { offset: 0x7DD3E, size: 0x8, addend: 0x0, symName: '__ZNSt3__110__function6__funcIZN4grpc12experimental20ServerMetricRecorder22ClearMemoryUtilizationEvE3$_0NS_9allocatorIS5_EEFvPN9grpc_core17BackendMetricDataEEED1Ev', symObjAddr: 0x3BAC, symBinAddr: 0x9794, symSize: 0x4 }
  - { offset: 0x7DD69, size: 0x8, addend: 0x0, symName: '__ZNSt3__110__function6__funcIZN4grpc12experimental20ServerMetricRecorder22ClearMemoryUtilizationEvE3$_0NS_9allocatorIS5_EEFvPN9grpc_core17BackendMetricDataEEED0Ev', symObjAddr: 0x3BB0, symBinAddr: 0x9798, symSize: 0x4 }
  - { offset: 0x7DE1E, size: 0x8, addend: 0x0, symName: '__ZNKSt3__110__function6__funcIZN4grpc12experimental20ServerMetricRecorder22ClearMemoryUtilizationEvE3$_0NS_9allocatorIS5_EEFvPN9grpc_core17BackendMetricDataEEE7__cloneEv', symObjAddr: 0x3BB4, symBinAddr: 0x979C, symSize: 0x24 }
  - { offset: 0x7DF68, size: 0x8, addend: 0x0, symName: '__ZNKSt3__110__function6__funcIZN4grpc12experimental20ServerMetricRecorder22ClearMemoryUtilizationEvE3$_0NS_9allocatorIS5_EEFvPN9grpc_core17BackendMetricDataEEE7__cloneEPNS0_6__baseISB_EE', symObjAddr: 0x3BD8, symBinAddr: 0x97C0, symSize: 0x10 }
  - { offset: 0x7DF9E, size: 0x8, addend: 0x0, symName: '__ZNKSt3__110__function6__funcIZN4grpc12experimental20ServerMetricRecorder22ClearMemoryUtilizationEvE3$_0NS_9allocatorIS5_EEFvPN9grpc_core17BackendMetricDataEEE7__cloneEPNS0_6__baseISB_EE', symObjAddr: 0x3BD8, symBinAddr: 0x97C0, symSize: 0x10 }
  - { offset: 0x7DFBA, size: 0x8, addend: 0x0, symName: '__ZNKSt3__110__function6__funcIZN4grpc12experimental20ServerMetricRecorder22ClearMemoryUtilizationEvE3$_0NS_9allocatorIS5_EEFvPN9grpc_core17BackendMetricDataEEE7__cloneEPNS0_6__baseISB_EE', symObjAddr: 0x3BD8, symBinAddr: 0x97C0, symSize: 0x10 }
  - { offset: 0x7DFD6, size: 0x8, addend: 0x0, symName: '__ZNSt3__110__function6__funcIZN4grpc12experimental20ServerMetricRecorder22ClearMemoryUtilizationEvE3$_0NS_9allocatorIS5_EEFvPN9grpc_core17BackendMetricDataEEE7destroyEv', symObjAddr: 0x3BE8, symBinAddr: 0x97D0, symSize: 0x4 }
  - { offset: 0x7E027, size: 0x8, addend: 0x0, symName: '__ZNSt3__110__function6__funcIZN4grpc12experimental20ServerMetricRecorder22ClearMemoryUtilizationEvE3$_0NS_9allocatorIS5_EEFvPN9grpc_core17BackendMetricDataEEE18destroy_deallocateEv', symObjAddr: 0x3BEC, symBinAddr: 0x97D4, symSize: 0x4 }
  - { offset: 0x7E05D, size: 0x8, addend: 0x0, symName: '__ZNSt3__110__function6__funcIZN4grpc12experimental20ServerMetricRecorder22ClearMemoryUtilizationEvE3$_0NS_9allocatorIS5_EEFvPN9grpc_core17BackendMetricDataEEE18destroy_deallocateEv', symObjAddr: 0x3BEC, symBinAddr: 0x97D4, symSize: 0x4 }
  - { offset: 0x7E080, size: 0x8, addend: 0x0, symName: '__ZNSt3__110__function6__funcIZN4grpc12experimental20ServerMetricRecorder22ClearMemoryUtilizationEvE3$_0NS_9allocatorIS5_EEFvPN9grpc_core17BackendMetricDataEEE18destroy_deallocateEv', symObjAddr: 0x3BEC, symBinAddr: 0x97D4, symSize: 0x4 }
  - { offset: 0x7E0AC, size: 0x8, addend: 0x0, symName: '__ZNSt3__110__function6__funcIZN4grpc12experimental20ServerMetricRecorder22ClearMemoryUtilizationEvE3$_0NS_9allocatorIS5_EEFvPN9grpc_core17BackendMetricDataEEE18destroy_deallocateEv', symObjAddr: 0x3BEC, symBinAddr: 0x97D4, symSize: 0x4 }
  - { offset: 0x7E0D2, size: 0x8, addend: 0x0, symName: '__ZNSt3__110__function6__funcIZN4grpc12experimental20ServerMetricRecorder22ClearMemoryUtilizationEvE3$_0NS_9allocatorIS5_EEFvPN9grpc_core17BackendMetricDataEEE18destroy_deallocateEv', symObjAddr: 0x3BEC, symBinAddr: 0x97D4, symSize: 0x4 }
  - { offset: 0x7E177, size: 0x8, addend: 0x0, symName: '__ZNSt3__110__function6__funcIZN4grpc12experimental20ServerMetricRecorder22ClearMemoryUtilizationEvE3$_0NS_9allocatorIS5_EEFvPN9grpc_core17BackendMetricDataEEEclEOSA_', symObjAddr: 0x3BF0, symBinAddr: 0x97D8, symSize: 0x10 }
  - { offset: 0x7E1AD, size: 0x8, addend: 0x0, symName: '__ZNSt3__110__function6__funcIZN4grpc12experimental20ServerMetricRecorder22ClearMemoryUtilizationEvE3$_0NS_9allocatorIS5_EEFvPN9grpc_core17BackendMetricDataEEEclEOSA_', symObjAddr: 0x3BF0, symBinAddr: 0x97D8, symSize: 0x10 }
  - { offset: 0x7E1C9, size: 0x8, addend: 0x0, symName: '__ZNSt3__110__function6__funcIZN4grpc12experimental20ServerMetricRecorder22ClearMemoryUtilizationEvE3$_0NS_9allocatorIS5_EEFvPN9grpc_core17BackendMetricDataEEEclEOSA_', symObjAddr: 0x3BF0, symBinAddr: 0x97D8, symSize: 0x10 }
  - { offset: 0x7E1E4, size: 0x8, addend: 0x0, symName: '__ZNSt3__110__function6__funcIZN4grpc12experimental20ServerMetricRecorder22ClearMemoryUtilizationEvE3$_0NS_9allocatorIS5_EEFvPN9grpc_core17BackendMetricDataEEEclEOSA_', symObjAddr: 0x3BF0, symBinAddr: 0x97D8, symSize: 0x10 }
  - { offset: 0x7E21E, size: 0x8, addend: 0x0, symName: '__ZNKSt3__110__function6__funcIZN4grpc12experimental20ServerMetricRecorder22ClearMemoryUtilizationEvE3$_0NS_9allocatorIS5_EEFvPN9grpc_core17BackendMetricDataEEE6targetERKSt9type_info', symObjAddr: 0x3C00, symBinAddr: 0x97E8, symSize: 0x3C }
  - { offset: 0x7E26E, size: 0x8, addend: 0x0, symName: '__ZNKSt3__110__function6__funcIZN4grpc12experimental20ServerMetricRecorder22ClearMemoryUtilizationEvE3$_0NS_9allocatorIS5_EEFvPN9grpc_core17BackendMetricDataEEE11target_typeEv', symObjAddr: 0x3C3C, symBinAddr: 0x9824, symSize: 0xC }
  - { offset: 0x7E293, size: 0x8, addend: 0x0, symName: '__ZNSt3__110__function6__funcIZN4grpc12experimental20ServerMetricRecorder27ClearApplicationUtilizationEvE3$_0NS_9allocatorIS5_EEFvPN9grpc_core17BackendMetricDataEEED1Ev', symObjAddr: 0x3C48, symBinAddr: 0x9830, symSize: 0x4 }
  - { offset: 0x7E2BE, size: 0x8, addend: 0x0, symName: '__ZNSt3__110__function6__funcIZN4grpc12experimental20ServerMetricRecorder27ClearApplicationUtilizationEvE3$_0NS_9allocatorIS5_EEFvPN9grpc_core17BackendMetricDataEEED0Ev', symObjAddr: 0x3C4C, symBinAddr: 0x9834, symSize: 0x4 }
  - { offset: 0x7E373, size: 0x8, addend: 0x0, symName: '__ZNKSt3__110__function6__funcIZN4grpc12experimental20ServerMetricRecorder27ClearApplicationUtilizationEvE3$_0NS_9allocatorIS5_EEFvPN9grpc_core17BackendMetricDataEEE7__cloneEv', symObjAddr: 0x3C50, symBinAddr: 0x9838, symSize: 0x24 }
  - { offset: 0x7E4BD, size: 0x8, addend: 0x0, symName: '__ZNKSt3__110__function6__funcIZN4grpc12experimental20ServerMetricRecorder27ClearApplicationUtilizationEvE3$_0NS_9allocatorIS5_EEFvPN9grpc_core17BackendMetricDataEEE7__cloneEPNS0_6__baseISB_EE', symObjAddr: 0x3C74, symBinAddr: 0x985C, symSize: 0x10 }
  - { offset: 0x7E4F3, size: 0x8, addend: 0x0, symName: '__ZNKSt3__110__function6__funcIZN4grpc12experimental20ServerMetricRecorder27ClearApplicationUtilizationEvE3$_0NS_9allocatorIS5_EEFvPN9grpc_core17BackendMetricDataEEE7__cloneEPNS0_6__baseISB_EE', symObjAddr: 0x3C74, symBinAddr: 0x985C, symSize: 0x10 }
  - { offset: 0x7E50F, size: 0x8, addend: 0x0, symName: '__ZNKSt3__110__function6__funcIZN4grpc12experimental20ServerMetricRecorder27ClearApplicationUtilizationEvE3$_0NS_9allocatorIS5_EEFvPN9grpc_core17BackendMetricDataEEE7__cloneEPNS0_6__baseISB_EE', symObjAddr: 0x3C74, symBinAddr: 0x985C, symSize: 0x10 }
  - { offset: 0x7E52B, size: 0x8, addend: 0x0, symName: '__ZNSt3__110__function6__funcIZN4grpc12experimental20ServerMetricRecorder27ClearApplicationUtilizationEvE3$_0NS_9allocatorIS5_EEFvPN9grpc_core17BackendMetricDataEEE7destroyEv', symObjAddr: 0x3C84, symBinAddr: 0x986C, symSize: 0x4 }
  - { offset: 0x7E57C, size: 0x8, addend: 0x0, symName: '__ZNSt3__110__function6__funcIZN4grpc12experimental20ServerMetricRecorder27ClearApplicationUtilizationEvE3$_0NS_9allocatorIS5_EEFvPN9grpc_core17BackendMetricDataEEE18destroy_deallocateEv', symObjAddr: 0x3C88, symBinAddr: 0x9870, symSize: 0x4 }
  - { offset: 0x7E5B2, size: 0x8, addend: 0x0, symName: '__ZNSt3__110__function6__funcIZN4grpc12experimental20ServerMetricRecorder27ClearApplicationUtilizationEvE3$_0NS_9allocatorIS5_EEFvPN9grpc_core17BackendMetricDataEEE18destroy_deallocateEv', symObjAddr: 0x3C88, symBinAddr: 0x9870, symSize: 0x4 }
  - { offset: 0x7E5D5, size: 0x8, addend: 0x0, symName: '__ZNSt3__110__function6__funcIZN4grpc12experimental20ServerMetricRecorder27ClearApplicationUtilizationEvE3$_0NS_9allocatorIS5_EEFvPN9grpc_core17BackendMetricDataEEE18destroy_deallocateEv', symObjAddr: 0x3C88, symBinAddr: 0x9870, symSize: 0x4 }
  - { offset: 0x7E601, size: 0x8, addend: 0x0, symName: '__ZNSt3__110__function6__funcIZN4grpc12experimental20ServerMetricRecorder27ClearApplicationUtilizationEvE3$_0NS_9allocatorIS5_EEFvPN9grpc_core17BackendMetricDataEEE18destroy_deallocateEv', symObjAddr: 0x3C88, symBinAddr: 0x9870, symSize: 0x4 }
  - { offset: 0x7E627, size: 0x8, addend: 0x0, symName: '__ZNSt3__110__function6__funcIZN4grpc12experimental20ServerMetricRecorder27ClearApplicationUtilizationEvE3$_0NS_9allocatorIS5_EEFvPN9grpc_core17BackendMetricDataEEE18destroy_deallocateEv', symObjAddr: 0x3C88, symBinAddr: 0x9870, symSize: 0x4 }
  - { offset: 0x7E6CC, size: 0x8, addend: 0x0, symName: '__ZNSt3__110__function6__funcIZN4grpc12experimental20ServerMetricRecorder27ClearApplicationUtilizationEvE3$_0NS_9allocatorIS5_EEFvPN9grpc_core17BackendMetricDataEEEclEOSA_', symObjAddr: 0x3C8C, symBinAddr: 0x9874, symSize: 0x10 }
  - { offset: 0x7E702, size: 0x8, addend: 0x0, symName: '__ZNSt3__110__function6__funcIZN4grpc12experimental20ServerMetricRecorder27ClearApplicationUtilizationEvE3$_0NS_9allocatorIS5_EEFvPN9grpc_core17BackendMetricDataEEEclEOSA_', symObjAddr: 0x3C8C, symBinAddr: 0x9874, symSize: 0x10 }
  - { offset: 0x7E71E, size: 0x8, addend: 0x0, symName: '__ZNSt3__110__function6__funcIZN4grpc12experimental20ServerMetricRecorder27ClearApplicationUtilizationEvE3$_0NS_9allocatorIS5_EEFvPN9grpc_core17BackendMetricDataEEEclEOSA_', symObjAddr: 0x3C8C, symBinAddr: 0x9874, symSize: 0x10 }
  - { offset: 0x7E739, size: 0x8, addend: 0x0, symName: '__ZNSt3__110__function6__funcIZN4grpc12experimental20ServerMetricRecorder27ClearApplicationUtilizationEvE3$_0NS_9allocatorIS5_EEFvPN9grpc_core17BackendMetricDataEEEclEOSA_', symObjAddr: 0x3C8C, symBinAddr: 0x9874, symSize: 0x10 }
  - { offset: 0x7E773, size: 0x8, addend: 0x0, symName: '__ZNKSt3__110__function6__funcIZN4grpc12experimental20ServerMetricRecorder27ClearApplicationUtilizationEvE3$_0NS_9allocatorIS5_EEFvPN9grpc_core17BackendMetricDataEEE6targetERKSt9type_info', symObjAddr: 0x3C9C, symBinAddr: 0x9884, symSize: 0x3C }
  - { offset: 0x7E7C3, size: 0x8, addend: 0x0, symName: '__ZNKSt3__110__function6__funcIZN4grpc12experimental20ServerMetricRecorder27ClearApplicationUtilizationEvE3$_0NS_9allocatorIS5_EEFvPN9grpc_core17BackendMetricDataEEE11target_typeEv', symObjAddr: 0x3CD8, symBinAddr: 0x98C0, symSize: 0xC }
  - { offset: 0x7E7E8, size: 0x8, addend: 0x0, symName: '__ZNSt3__110__function6__funcIZN4grpc12experimental20ServerMetricRecorder8ClearQpsEvE3$_0NS_9allocatorIS5_EEFvPN9grpc_core17BackendMetricDataEEED1Ev', symObjAddr: 0x3CE4, symBinAddr: 0x98CC, symSize: 0x4 }
  - { offset: 0x7E813, size: 0x8, addend: 0x0, symName: '__ZNSt3__110__function6__funcIZN4grpc12experimental20ServerMetricRecorder8ClearQpsEvE3$_0NS_9allocatorIS5_EEFvPN9grpc_core17BackendMetricDataEEED0Ev', symObjAddr: 0x3CE8, symBinAddr: 0x98D0, symSize: 0x4 }
  - { offset: 0x7E8C8, size: 0x8, addend: 0x0, symName: '__ZNKSt3__110__function6__funcIZN4grpc12experimental20ServerMetricRecorder8ClearQpsEvE3$_0NS_9allocatorIS5_EEFvPN9grpc_core17BackendMetricDataEEE7__cloneEv', symObjAddr: 0x3CEC, symBinAddr: 0x98D4, symSize: 0x24 }
  - { offset: 0x7EA12, size: 0x8, addend: 0x0, symName: '__ZNKSt3__110__function6__funcIZN4grpc12experimental20ServerMetricRecorder8ClearQpsEvE3$_0NS_9allocatorIS5_EEFvPN9grpc_core17BackendMetricDataEEE7__cloneEPNS0_6__baseISB_EE', symObjAddr: 0x3D10, symBinAddr: 0x98F8, symSize: 0x10 }
  - { offset: 0x7EA48, size: 0x8, addend: 0x0, symName: '__ZNKSt3__110__function6__funcIZN4grpc12experimental20ServerMetricRecorder8ClearQpsEvE3$_0NS_9allocatorIS5_EEFvPN9grpc_core17BackendMetricDataEEE7__cloneEPNS0_6__baseISB_EE', symObjAddr: 0x3D10, symBinAddr: 0x98F8, symSize: 0x10 }
  - { offset: 0x7EA64, size: 0x8, addend: 0x0, symName: '__ZNKSt3__110__function6__funcIZN4grpc12experimental20ServerMetricRecorder8ClearQpsEvE3$_0NS_9allocatorIS5_EEFvPN9grpc_core17BackendMetricDataEEE7__cloneEPNS0_6__baseISB_EE', symObjAddr: 0x3D10, symBinAddr: 0x98F8, symSize: 0x10 }
  - { offset: 0x7EA80, size: 0x8, addend: 0x0, symName: '__ZNSt3__110__function6__funcIZN4grpc12experimental20ServerMetricRecorder8ClearQpsEvE3$_0NS_9allocatorIS5_EEFvPN9grpc_core17BackendMetricDataEEE7destroyEv', symObjAddr: 0x3D20, symBinAddr: 0x9908, symSize: 0x4 }
  - { offset: 0x7EAD1, size: 0x8, addend: 0x0, symName: '__ZNSt3__110__function6__funcIZN4grpc12experimental20ServerMetricRecorder8ClearQpsEvE3$_0NS_9allocatorIS5_EEFvPN9grpc_core17BackendMetricDataEEE18destroy_deallocateEv', symObjAddr: 0x3D24, symBinAddr: 0x990C, symSize: 0x4 }
  - { offset: 0x7EB07, size: 0x8, addend: 0x0, symName: '__ZNSt3__110__function6__funcIZN4grpc12experimental20ServerMetricRecorder8ClearQpsEvE3$_0NS_9allocatorIS5_EEFvPN9grpc_core17BackendMetricDataEEE18destroy_deallocateEv', symObjAddr: 0x3D24, symBinAddr: 0x990C, symSize: 0x4 }
  - { offset: 0x7EB2A, size: 0x8, addend: 0x0, symName: '__ZNSt3__110__function6__funcIZN4grpc12experimental20ServerMetricRecorder8ClearQpsEvE3$_0NS_9allocatorIS5_EEFvPN9grpc_core17BackendMetricDataEEE18destroy_deallocateEv', symObjAddr: 0x3D24, symBinAddr: 0x990C, symSize: 0x4 }
  - { offset: 0x7EB56, size: 0x8, addend: 0x0, symName: '__ZNSt3__110__function6__funcIZN4grpc12experimental20ServerMetricRecorder8ClearQpsEvE3$_0NS_9allocatorIS5_EEFvPN9grpc_core17BackendMetricDataEEE18destroy_deallocateEv', symObjAddr: 0x3D24, symBinAddr: 0x990C, symSize: 0x4 }
  - { offset: 0x7EB7C, size: 0x8, addend: 0x0, symName: '__ZNSt3__110__function6__funcIZN4grpc12experimental20ServerMetricRecorder8ClearQpsEvE3$_0NS_9allocatorIS5_EEFvPN9grpc_core17BackendMetricDataEEE18destroy_deallocateEv', symObjAddr: 0x3D24, symBinAddr: 0x990C, symSize: 0x4 }
  - { offset: 0x7EC21, size: 0x8, addend: 0x0, symName: '__ZNSt3__110__function6__funcIZN4grpc12experimental20ServerMetricRecorder8ClearQpsEvE3$_0NS_9allocatorIS5_EEFvPN9grpc_core17BackendMetricDataEEEclEOSA_', symObjAddr: 0x3D28, symBinAddr: 0x9910, symSize: 0x10 }
  - { offset: 0x7EC57, size: 0x8, addend: 0x0, symName: '__ZNSt3__110__function6__funcIZN4grpc12experimental20ServerMetricRecorder8ClearQpsEvE3$_0NS_9allocatorIS5_EEFvPN9grpc_core17BackendMetricDataEEEclEOSA_', symObjAddr: 0x3D28, symBinAddr: 0x9910, symSize: 0x10 }
  - { offset: 0x7EC73, size: 0x8, addend: 0x0, symName: '__ZNSt3__110__function6__funcIZN4grpc12experimental20ServerMetricRecorder8ClearQpsEvE3$_0NS_9allocatorIS5_EEFvPN9grpc_core17BackendMetricDataEEEclEOSA_', symObjAddr: 0x3D28, symBinAddr: 0x9910, symSize: 0x10 }
  - { offset: 0x7EC8E, size: 0x8, addend: 0x0, symName: '__ZNSt3__110__function6__funcIZN4grpc12experimental20ServerMetricRecorder8ClearQpsEvE3$_0NS_9allocatorIS5_EEFvPN9grpc_core17BackendMetricDataEEEclEOSA_', symObjAddr: 0x3D28, symBinAddr: 0x9910, symSize: 0x10 }
  - { offset: 0x7ECC8, size: 0x8, addend: 0x0, symName: '__ZNKSt3__110__function6__funcIZN4grpc12experimental20ServerMetricRecorder8ClearQpsEvE3$_0NS_9allocatorIS5_EEFvPN9grpc_core17BackendMetricDataEEE6targetERKSt9type_info', symObjAddr: 0x3D38, symBinAddr: 0x9920, symSize: 0x3C }
  - { offset: 0x7ED18, size: 0x8, addend: 0x0, symName: '__ZNKSt3__110__function6__funcIZN4grpc12experimental20ServerMetricRecorder8ClearQpsEvE3$_0NS_9allocatorIS5_EEFvPN9grpc_core17BackendMetricDataEEE11target_typeEv', symObjAddr: 0x3D74, symBinAddr: 0x995C, symSize: 0xC }
  - { offset: 0x7ED3D, size: 0x8, addend: 0x0, symName: '__ZNSt3__110__function6__funcIZN4grpc12experimental20ServerMetricRecorder8ClearEpsEvE3$_0NS_9allocatorIS5_EEFvPN9grpc_core17BackendMetricDataEEED1Ev', symObjAddr: 0x3D80, symBinAddr: 0x9968, symSize: 0x4 }
  - { offset: 0x7ED68, size: 0x8, addend: 0x0, symName: '__ZNSt3__110__function6__funcIZN4grpc12experimental20ServerMetricRecorder8ClearEpsEvE3$_0NS_9allocatorIS5_EEFvPN9grpc_core17BackendMetricDataEEED0Ev', symObjAddr: 0x3D84, symBinAddr: 0x996C, symSize: 0x4 }
  - { offset: 0x7EE1D, size: 0x8, addend: 0x0, symName: '__ZNKSt3__110__function6__funcIZN4grpc12experimental20ServerMetricRecorder8ClearEpsEvE3$_0NS_9allocatorIS5_EEFvPN9grpc_core17BackendMetricDataEEE7__cloneEv', symObjAddr: 0x3D88, symBinAddr: 0x9970, symSize: 0x24 }
  - { offset: 0x7EF67, size: 0x8, addend: 0x0, symName: '__ZNKSt3__110__function6__funcIZN4grpc12experimental20ServerMetricRecorder8ClearEpsEvE3$_0NS_9allocatorIS5_EEFvPN9grpc_core17BackendMetricDataEEE7__cloneEPNS0_6__baseISB_EE', symObjAddr: 0x3DAC, symBinAddr: 0x9994, symSize: 0x10 }
  - { offset: 0x7EF9D, size: 0x8, addend: 0x0, symName: '__ZNKSt3__110__function6__funcIZN4grpc12experimental20ServerMetricRecorder8ClearEpsEvE3$_0NS_9allocatorIS5_EEFvPN9grpc_core17BackendMetricDataEEE7__cloneEPNS0_6__baseISB_EE', symObjAddr: 0x3DAC, symBinAddr: 0x9994, symSize: 0x10 }
  - { offset: 0x7EFB9, size: 0x8, addend: 0x0, symName: '__ZNKSt3__110__function6__funcIZN4grpc12experimental20ServerMetricRecorder8ClearEpsEvE3$_0NS_9allocatorIS5_EEFvPN9grpc_core17BackendMetricDataEEE7__cloneEPNS0_6__baseISB_EE', symObjAddr: 0x3DAC, symBinAddr: 0x9994, symSize: 0x10 }
  - { offset: 0x7EFD5, size: 0x8, addend: 0x0, symName: '__ZNSt3__110__function6__funcIZN4grpc12experimental20ServerMetricRecorder8ClearEpsEvE3$_0NS_9allocatorIS5_EEFvPN9grpc_core17BackendMetricDataEEE7destroyEv', symObjAddr: 0x3DBC, symBinAddr: 0x99A4, symSize: 0x4 }
  - { offset: 0x7F026, size: 0x8, addend: 0x0, symName: '__ZNSt3__110__function6__funcIZN4grpc12experimental20ServerMetricRecorder8ClearEpsEvE3$_0NS_9allocatorIS5_EEFvPN9grpc_core17BackendMetricDataEEE18destroy_deallocateEv', symObjAddr: 0x3DC0, symBinAddr: 0x99A8, symSize: 0x4 }
  - { offset: 0x7F05C, size: 0x8, addend: 0x0, symName: '__ZNSt3__110__function6__funcIZN4grpc12experimental20ServerMetricRecorder8ClearEpsEvE3$_0NS_9allocatorIS5_EEFvPN9grpc_core17BackendMetricDataEEE18destroy_deallocateEv', symObjAddr: 0x3DC0, symBinAddr: 0x99A8, symSize: 0x4 }
  - { offset: 0x7F07F, size: 0x8, addend: 0x0, symName: '__ZNSt3__110__function6__funcIZN4grpc12experimental20ServerMetricRecorder8ClearEpsEvE3$_0NS_9allocatorIS5_EEFvPN9grpc_core17BackendMetricDataEEE18destroy_deallocateEv', symObjAddr: 0x3DC0, symBinAddr: 0x99A8, symSize: 0x4 }
  - { offset: 0x7F0AB, size: 0x8, addend: 0x0, symName: '__ZNSt3__110__function6__funcIZN4grpc12experimental20ServerMetricRecorder8ClearEpsEvE3$_0NS_9allocatorIS5_EEFvPN9grpc_core17BackendMetricDataEEE18destroy_deallocateEv', symObjAddr: 0x3DC0, symBinAddr: 0x99A8, symSize: 0x4 }
  - { offset: 0x7F0D1, size: 0x8, addend: 0x0, symName: '__ZNSt3__110__function6__funcIZN4grpc12experimental20ServerMetricRecorder8ClearEpsEvE3$_0NS_9allocatorIS5_EEFvPN9grpc_core17BackendMetricDataEEE18destroy_deallocateEv', symObjAddr: 0x3DC0, symBinAddr: 0x99A8, symSize: 0x4 }
  - { offset: 0x7F176, size: 0x8, addend: 0x0, symName: '__ZNSt3__110__function6__funcIZN4grpc12experimental20ServerMetricRecorder8ClearEpsEvE3$_0NS_9allocatorIS5_EEFvPN9grpc_core17BackendMetricDataEEEclEOSA_', symObjAddr: 0x3DC4, symBinAddr: 0x99AC, symSize: 0x10 }
  - { offset: 0x7F1AC, size: 0x8, addend: 0x0, symName: '__ZNSt3__110__function6__funcIZN4grpc12experimental20ServerMetricRecorder8ClearEpsEvE3$_0NS_9allocatorIS5_EEFvPN9grpc_core17BackendMetricDataEEEclEOSA_', symObjAddr: 0x3DC4, symBinAddr: 0x99AC, symSize: 0x10 }
  - { offset: 0x7F1C8, size: 0x8, addend: 0x0, symName: '__ZNSt3__110__function6__funcIZN4grpc12experimental20ServerMetricRecorder8ClearEpsEvE3$_0NS_9allocatorIS5_EEFvPN9grpc_core17BackendMetricDataEEEclEOSA_', symObjAddr: 0x3DC4, symBinAddr: 0x99AC, symSize: 0x10 }
  - { offset: 0x7F1E3, size: 0x8, addend: 0x0, symName: '__ZNSt3__110__function6__funcIZN4grpc12experimental20ServerMetricRecorder8ClearEpsEvE3$_0NS_9allocatorIS5_EEFvPN9grpc_core17BackendMetricDataEEEclEOSA_', symObjAddr: 0x3DC4, symBinAddr: 0x99AC, symSize: 0x10 }
  - { offset: 0x7F21D, size: 0x8, addend: 0x0, symName: '__ZNKSt3__110__function6__funcIZN4grpc12experimental20ServerMetricRecorder8ClearEpsEvE3$_0NS_9allocatorIS5_EEFvPN9grpc_core17BackendMetricDataEEE6targetERKSt9type_info', symObjAddr: 0x3DD4, symBinAddr: 0x99BC, symSize: 0x3C }
  - { offset: 0x7F26D, size: 0x8, addend: 0x0, symName: '__ZNKSt3__110__function6__funcIZN4grpc12experimental20ServerMetricRecorder8ClearEpsEvE3$_0NS_9allocatorIS5_EEFvPN9grpc_core17BackendMetricDataEEE11target_typeEv', symObjAddr: 0x3E10, symBinAddr: 0x99F8, symSize: 0xC }
  - { offset: 0x7F292, size: 0x8, addend: 0x0, symName: '__ZNSt3__110__function6__funcIZN4grpc12experimental20ServerMetricRecorder21ClearNamedUtilizationENS2_10string_refEE3$_0NS_9allocatorIS6_EEFvPN9grpc_core17BackendMetricDataEEED1Ev', symObjAddr: 0x3E1C, symBinAddr: 0x9A04, symSize: 0x4 }
  - { offset: 0x7F2BD, size: 0x8, addend: 0x0, symName: '__ZNSt3__110__function6__funcIZN4grpc12experimental20ServerMetricRecorder21ClearNamedUtilizationENS2_10string_refEE3$_0NS_9allocatorIS6_EEFvPN9grpc_core17BackendMetricDataEEED0Ev', symObjAddr: 0x3E20, symBinAddr: 0x9A08, symSize: 0x4 }
  - { offset: 0x7F4DC, size: 0x8, addend: 0x0, symName: '__ZNKSt3__110__function6__funcIZN4grpc12experimental20ServerMetricRecorder21ClearNamedUtilizationENS2_10string_refEE3$_0NS_9allocatorIS6_EEFvPN9grpc_core17BackendMetricDataEEE7__cloneEv', symObjAddr: 0x3E24, symBinAddr: 0x9A0C, symSize: 0x38 }
  - { offset: 0x7F80D, size: 0x8, addend: 0x0, symName: '__ZNKSt3__110__function6__funcIZN4grpc12experimental20ServerMetricRecorder21ClearNamedUtilizationENS2_10string_refEE3$_0NS_9allocatorIS6_EEFvPN9grpc_core17BackendMetricDataEEE7__cloneEPNS0_6__baseISC_EE', symObjAddr: 0x3E5C, symBinAddr: 0x9A44, symSize: 0x18 }
  - { offset: 0x7F845, size: 0x8, addend: 0x0, symName: '__ZNKSt3__110__function6__funcIZN4grpc12experimental20ServerMetricRecorder21ClearNamedUtilizationENS2_10string_refEE3$_0NS_9allocatorIS6_EEFvPN9grpc_core17BackendMetricDataEEE7__cloneEPNS0_6__baseISC_EE', symObjAddr: 0x3E5C, symBinAddr: 0x9A44, symSize: 0x18 }
  - { offset: 0x7F873, size: 0x8, addend: 0x0, symName: '__ZNKSt3__110__function6__funcIZN4grpc12experimental20ServerMetricRecorder21ClearNamedUtilizationENS2_10string_refEE3$_0NS_9allocatorIS6_EEFvPN9grpc_core17BackendMetricDataEEE7__cloneEPNS0_6__baseISC_EE', symObjAddr: 0x3E5C, symBinAddr: 0x9A44, symSize: 0x18 }
  - { offset: 0x7F970, size: 0x8, addend: 0x0, symName: '__ZNSt3__110__function6__funcIZN4grpc12experimental20ServerMetricRecorder21ClearNamedUtilizationENS2_10string_refEE3$_0NS_9allocatorIS6_EEFvPN9grpc_core17BackendMetricDataEEE7destroyEv', symObjAddr: 0x3E74, symBinAddr: 0x9A5C, symSize: 0x4 }
  - { offset: 0x7F9C1, size: 0x8, addend: 0x0, symName: '__ZNSt3__110__function6__funcIZN4grpc12experimental20ServerMetricRecorder21ClearNamedUtilizationENS2_10string_refEE3$_0NS_9allocatorIS6_EEFvPN9grpc_core17BackendMetricDataEEE18destroy_deallocateEv', symObjAddr: 0x3E78, symBinAddr: 0x9A60, symSize: 0x4 }
  - { offset: 0x7F9F7, size: 0x8, addend: 0x0, symName: '__ZNSt3__110__function6__funcIZN4grpc12experimental20ServerMetricRecorder21ClearNamedUtilizationENS2_10string_refEE3$_0NS_9allocatorIS6_EEFvPN9grpc_core17BackendMetricDataEEE18destroy_deallocateEv', symObjAddr: 0x3E78, symBinAddr: 0x9A60, symSize: 0x4 }
  - { offset: 0x7FA1A, size: 0x8, addend: 0x0, symName: '__ZNSt3__110__function6__funcIZN4grpc12experimental20ServerMetricRecorder21ClearNamedUtilizationENS2_10string_refEE3$_0NS_9allocatorIS6_EEFvPN9grpc_core17BackendMetricDataEEE18destroy_deallocateEv', symObjAddr: 0x3E78, symBinAddr: 0x9A60, symSize: 0x4 }
  - { offset: 0x7FA46, size: 0x8, addend: 0x0, symName: '__ZNSt3__110__function6__funcIZN4grpc12experimental20ServerMetricRecorder21ClearNamedUtilizationENS2_10string_refEE3$_0NS_9allocatorIS6_EEFvPN9grpc_core17BackendMetricDataEEE18destroy_deallocateEv', symObjAddr: 0x3E78, symBinAddr: 0x9A60, symSize: 0x4 }
  - { offset: 0x7FA6C, size: 0x8, addend: 0x0, symName: '__ZNSt3__110__function6__funcIZN4grpc12experimental20ServerMetricRecorder21ClearNamedUtilizationENS2_10string_refEE3$_0NS_9allocatorIS6_EEFvPN9grpc_core17BackendMetricDataEEE18destroy_deallocateEv', symObjAddr: 0x3E78, symBinAddr: 0x9A60, symSize: 0x4 }
  - { offset: 0x7FB33, size: 0x8, addend: 0x0, symName: '__ZNSt3__110__function6__funcIZN4grpc12experimental20ServerMetricRecorder21ClearNamedUtilizationENS2_10string_refEE3$_0NS_9allocatorIS6_EEFvPN9grpc_core17BackendMetricDataEEEclEOSB_', symObjAddr: 0x3E7C, symBinAddr: 0x9A64, symSize: 0x3C }
  - { offset: 0x7FCC5, size: 0x8, addend: 0x0, symName: '__ZNKSt3__110__function6__funcIZN4grpc12experimental20ServerMetricRecorder21ClearNamedUtilizationENS2_10string_refEE3$_0NS_9allocatorIS6_EEFvPN9grpc_core17BackendMetricDataEEE6targetERKSt9type_info', symObjAddr: 0x3EB8, symBinAddr: 0x9AA0, symSize: 0x3C }
  - { offset: 0x7FCD0, size: 0x8, addend: 0x0, symName: __ZNSt3__16__treeINS_12__value_typeIN4absl12lts_2024011611string_viewEdEENS_19__map_value_compareIS4_S5_NS_4lessIS4_EELb1EEENS_9allocatorIS5_EEE14__erase_uniqueIS4_EEmRKT_, symObjAddr: 0x3F00, symBinAddr: 0x9AE8, symSize: 0x50 }
  - { offset: 0x7FEAC, size: 0x8, addend: 0x0, symName: '__ZNKSt3__110__function6__funcIZN4grpc12experimental20ServerMetricRecorder21ClearNamedUtilizationENS2_10string_refEE3$_0NS_9allocatorIS6_EEFvPN9grpc_core17BackendMetricDataEEE6targetERKSt9type_info', symObjAddr: 0x3EB8, symBinAddr: 0x9AA0, symSize: 0x3C }
  - { offset: 0x7FEFC, size: 0x8, addend: 0x0, symName: '__ZNKSt3__110__function6__funcIZN4grpc12experimental20ServerMetricRecorder21ClearNamedUtilizationENS2_10string_refEE3$_0NS_9allocatorIS6_EEFvPN9grpc_core17BackendMetricDataEEE11target_typeEv', symObjAddr: 0x3EF4, symBinAddr: 0x9ADC, symSize: 0xC }
  - { offset: 0x7FF6C, size: 0x8, addend: 0x0, symName: __ZNSt3__16__treeINS_12__value_typeIN4absl12lts_2024011611string_viewEdEENS_19__map_value_compareIS4_S5_NS_4lessIS4_EELb1EEENS_9allocatorIS5_EEE4findIS4_EENS_15__tree_iteratorIS5_PNS_11__tree_nodeIS5_PvEElEERKT_, symObjAddr: 0x3F50, symBinAddr: 0x9B38, symSize: 0x68 }
  - { offset: 0x80082, size: 0x8, addend: 0x0, symName: __ZNSt3__16__treeINS_12__value_typeIN4absl12lts_2024011611string_viewEdEENS_19__map_value_compareIS4_S5_NS_4lessIS4_EELb1EEENS_9allocatorIS5_EEE21__remove_node_pointerEPNS_11__tree_nodeIS5_PvEE, symObjAddr: 0x4020, symBinAddr: 0x9C08, symSize: 0x70 }
  - { offset: 0x80147, size: 0x8, addend: 0x0, symName: __ZNSt3__16__treeINS_12__value_typeIN4absl12lts_2024011611string_viewEdEENS_19__map_value_compareIS4_S5_NS_4lessIS4_EELb1EEENS_9allocatorIS5_EEE13__lower_boundIS4_EENS_15__tree_iteratorIS5_PNS_11__tree_nodeIS5_PvEElEERKT_SI_PNS_15__tree_end_nodeIPNS_16__tree_node_baseISG_EEEE, symObjAddr: 0x3FB8, symBinAddr: 0x9BA0, symSize: 0x68 }
  - { offset: 0x80488, size: 0x8, addend: 0x0, symName: _OUTLINED_FUNCTION_0, symObjAddr: 0x4508, symBinAddr: 0x9FFC, symSize: 0x8 }
  - { offset: 0x85CDD, size: 0x8, addend: 0x0, symName: __ZNSt3__119__allocate_at_leastB8ne180100INS_9allocatorIN4grpc5SliceEEEEENS_19__allocation_resultINS_16allocator_traitsIT_E7pointerEEERS7_m, symObjAddr: 0xA80, symBinAddr: 0xAA20, symSize: 0x34 }
  - { offset: 0x85D7F, size: 0x8, addend: 0x0, symName: __ZNSt3__114__split_bufferIN4grpc5SliceERNS_9allocatorIS2_EEED2Ev, symObjAddr: 0xAB4, symBinAddr: 0xAA54, symSize: 0x4C }
  - { offset: 0x86DEA, size: 0x8, addend: 0x0, symName: __ZSt28__throw_bad_array_new_lengthB8ne180100v, symObjAddr: 0x810, symBinAddr: 0xA7C0, symSize: 0x28 }
  - { offset: 0x87086, size: 0x8, addend: 0x0, symName: __ZNSt3__16vectorIN4grpc5SliceENS_9allocatorIS2_EEE26__swap_out_circular_bufferERNS_14__split_bufferIS2_RS4_EE, symObjAddr: 0x9E8, symBinAddr: 0xA988, symSize: 0x84 }
  - { offset: 0x876A4, size: 0x8, addend: 0x0, symName: __ZNK4grpc10ByteBuffer14TrySingleSliceEPNS_5SliceE, symObjAddr: 0x0, symBinAddr: 0xA038, symSize: 0x1F4 }
  - { offset: 0x87D35, size: 0x8, addend: 0x0, symName: __ZN4grpc5SliceD2Ev, symObjAddr: 0x848, symBinAddr: 0xA7E8, symSize: 0x70 }
  - { offset: 0x87D76, size: 0x8, addend: 0x0, symName: __ZNSt3__112basic_stringIcNS_11char_traitsIcEENS_9allocatorIcEEEC2B8ne180100ILi0EEEPKc, symObjAddr: 0x8B8, symBinAddr: 0xA858, symSize: 0xB0 }
  - { offset: 0x88121, size: 0x8, addend: 0x0, symName: __ZN4grpc5SliceC2EOS0_, symObjAddr: 0x968, symBinAddr: 0xA908, symSize: 0x80 }
  - { offset: 0x8813B, size: 0x8, addend: 0x0, symName: __ZNSt3__112basic_stringIcNS_11char_traitsIcEENS_9allocatorIcEEE25__init_copy_ctor_externalEPKcm, symObjAddr: 0x6FC, symBinAddr: 0xA734, symSize: 0x8C }
  - { offset: 0x884BA, size: 0x8, addend: 0x0, symName: __ZNK4grpc10ByteBuffer17DumpToSingleSliceEPNS_5SliceE, symObjAddr: 0x1F4, symBinAddr: 0xA22C, symSize: 0x1E0 }
  - { offset: 0x88C72, size: 0x8, addend: 0x0, symName: __ZNK4grpc10ByteBuffer4DumpEPNSt3__16vectorINS_5SliceENS1_9allocatorIS3_EEEE, symObjAddr: 0x3D4, symBinAddr: 0xA40C, symSize: 0x228 }
  - { offset: 0x89401, size: 0x8, addend: 0x0, symName: __ZNSt3__16vectorIN4grpc5SliceENS_9allocatorIS2_EEE9push_backB8ne180100EOS2_, symObjAddr: 0x5FC, symBinAddr: 0xA634, symSize: 0x100 }
  - { offset: 0x89B4E, size: 0x8, addend: 0x0, symName: __ZN4grpc5SliceC2EOS0_, symObjAddr: 0x968, symBinAddr: 0xA908, symSize: 0x80 }
  - { offset: 0x89B9F, size: 0x8, addend: 0x0, symName: __ZNSt3__114__split_bufferIN4grpc5SliceERNS_9allocatorIS2_EEED2Ev, symObjAddr: 0xAB4, symBinAddr: 0xAA54, symSize: 0x4C }
  - { offset: 0x89D2A, size: 0x8, addend: 0x0, symName: __ZNKSt3__16vectorIN4grpc5SliceENS_9allocatorIS2_EEE20__throw_length_errorB8ne180100Ev, symObjAddr: 0xA6C, symBinAddr: 0xAA0C, symSize: 0x14 }
  - { offset: 0x89D54, size: 0x8, addend: 0x0, symName: __ZNSt3__119__allocate_at_leastB8ne180100INS_9allocatorIN4grpc5SliceEEEEENS_19__allocation_resultINS_16allocator_traitsIT_E7pointerEEERS7_m, symObjAddr: 0xA80, symBinAddr: 0xAA20, symSize: 0x34 }
  - { offset: 0xA0DFD, size: 0x8, addend: 0x0, symName: __ZN4grpc15CallCredentialsC2EP21grpc_call_credentials, symObjAddr: 0x0, symBinAddr: 0xAAA0, symSize: 0xC4 }
  - { offset: 0xA0F74, size: 0x8, addend: 0x0, symName: __ZN4grpc15CallCredentialsC1EP21grpc_call_credentials, symObjAddr: 0x104, symBinAddr: 0xAB64, symSize: 0x4 }
  - { offset: 0xA0FB0, size: 0x8, addend: 0x0, symName: __ZN4grpc15CallCredentialsC1EP21grpc_call_credentials, symObjAddr: 0x104, symBinAddr: 0xAB64, symSize: 0x4 }
  - { offset: 0xA0FCC, size: 0x8, addend: 0x0, symName: __ZN4grpc15CallCredentialsD2Ev, symObjAddr: 0x108, symBinAddr: 0xAB68, symSize: 0x38 }
  - { offset: 0xA1022, size: 0x8, addend: 0x0, symName: __ZN4grpc15CallCredentialsD1Ev, symObjAddr: 0x150, symBinAddr: 0xABA0, symSize: 0x4 }
  - { offset: 0xA1045, size: 0x8, addend: 0x0, symName: __ZN4grpc15CallCredentialsD1Ev, symObjAddr: 0x150, symBinAddr: 0xABA0, symSize: 0x4 }
  - { offset: 0xA107A, size: 0x8, addend: 0x0, symName: __ZN4grpc15CallCredentialsD0Ev, symObjAddr: 0x154, symBinAddr: 0xABA4, symSize: 0x14 }
  - { offset: 0xA12C0, size: 0x8, addend: 0x0, symName: __ZN4grpc15CallCredentials11DebugStringEv, symObjAddr: 0x168, symBinAddr: 0xABB8, symSize: 0xEC }
  - { offset: 0xA1729, size: 0x8, addend: 0x0, symName: __ZN4grpc15CallCredentials11ApplyToCallEP9grpc_call, symObjAddr: 0x254, symBinAddr: 0xACA4, symSize: 0x28 }
  - { offset: 0xA3E47, size: 0x8, addend: 0x0, symName: __ZN4grpc25MakeChannelArgumentOptionERKNSt3__112basic_stringIcNS0_11char_traitsIcEENS0_9allocatorIcEEEES8_, symObjAddr: 0x0, symBinAddr: 0xAD00, symSize: 0xD0 }
  - { offset: 0xA8554, size: 0x8, addend: 0x0, symName: __ZN4grpc25MakeChannelArgumentOptionERKNSt3__112basic_stringIcNS0_11char_traitsIcEENS0_9allocatorIcEEEES8_, symObjAddr: 0x0, symBinAddr: 0xAD00, symSize: 0xD0 }
  - { offset: 0xA893A, size: 0x8, addend: 0x0, symName: __ZN4grpc25MakeChannelArgumentOptionERKNSt3__112basic_stringIcNS0_11char_traitsIcEENS0_9allocatorIcEEEEi, symObjAddr: 0xD0, symBinAddr: 0xADD0, symSize: 0x84 }
  - { offset: 0xA8B7B, size: 0x8, addend: 0x0, symName: __ZN4grpc25MakeChannelArgumentOptionERKNSt3__112basic_stringIcNS0_11char_traitsIcEENS0_9allocatorIcEEEEPv, symObjAddr: 0x154, symBinAddr: 0xAE54, symSize: 0x84 }
  - { offset: 0xA964B, size: 0x8, addend: 0x0, symName: __ZZN4grpc25MakeChannelArgumentOptionERKNSt3__112basic_stringIcNS0_11char_traitsIcEENS0_9allocatorIcEEEES8_EN12StringOptionD1Ev, symObjAddr: 0x1D8, symBinAddr: 0xAED8, symSize: 0x40 }
  - { offset: 0xA98ED, size: 0x8, addend: 0x0, symName: __ZZN4grpc25MakeChannelArgumentOptionERKNSt3__112basic_stringIcNS0_11char_traitsIcEENS0_9allocatorIcEEEES8_EN12StringOptionD0Ev, symObjAddr: 0x218, symBinAddr: 0xAF18, symSize: 0x40 }
  - { offset: 0xA9B9A, size: 0x8, addend: 0x0, symName: __ZZN4grpc25MakeChannelArgumentOptionERKNSt3__112basic_stringIcNS0_11char_traitsIcEENS0_9allocatorIcEEEES8_EN12StringOption15UpdateArgumentsEPNS_16ChannelArgumentsE, symObjAddr: 0x258, symBinAddr: 0xAF58, symSize: 0x14 }
  - { offset: 0xA9BD5, size: 0x8, addend: 0x0, symName: __ZZN4grpc25MakeChannelArgumentOptionERKNSt3__112basic_stringIcNS0_11char_traitsIcEENS0_9allocatorIcEEEES8_EN12StringOption13UpdatePluginsEPNS0_6vectorINS0_10unique_ptrINS_19ServerBuilderPluginENS0_14default_deleteISC_EEEENS4_ISF_EEEE, symObjAddr: 0x26C, symBinAddr: 0xAF6C, symSize: 0x4 }
  - { offset: 0xA9DF1, size: 0x8, addend: 0x0, symName: __ZZN4grpc25MakeChannelArgumentOptionERKNSt3__112basic_stringIcNS0_11char_traitsIcEENS0_9allocatorIcEEEEiEN9IntOptionD1Ev, symObjAddr: 0x384, symBinAddr: 0xAF70, symSize: 0x30 }
  - { offset: 0xA9F6F, size: 0x8, addend: 0x0, symName: __ZZN4grpc25MakeChannelArgumentOptionERKNSt3__112basic_stringIcNS0_11char_traitsIcEENS0_9allocatorIcEEEEiEN9IntOptionD0Ev, symObjAddr: 0x3B4, symBinAddr: 0xAFA0, symSize: 0x30 }
  - { offset: 0xAA0F8, size: 0x8, addend: 0x0, symName: __ZZN4grpc25MakeChannelArgumentOptionERKNSt3__112basic_stringIcNS0_11char_traitsIcEENS0_9allocatorIcEEEEiEN9IntOption15UpdateArgumentsEPNS_16ChannelArgumentsE, symObjAddr: 0x3E4, symBinAddr: 0xAFD0, symSize: 0x14 }
  - { offset: 0xAA133, size: 0x8, addend: 0x0, symName: __ZZN4grpc25MakeChannelArgumentOptionERKNSt3__112basic_stringIcNS0_11char_traitsIcEENS0_9allocatorIcEEEEiEN9IntOption13UpdatePluginsEPNS0_6vectorINS0_10unique_ptrINS_19ServerBuilderPluginENS0_14default_deleteISC_EEEENS4_ISF_EEEE, symObjAddr: 0x3F8, symBinAddr: 0xAFE4, symSize: 0x4 }
  - { offset: 0xAA17E, size: 0x8, addend: 0x0, symName: __ZZN4grpc25MakeChannelArgumentOptionERKNSt3__112basic_stringIcNS0_11char_traitsIcEENS0_9allocatorIcEEEEPvEN13PointerOptionD1Ev, symObjAddr: 0x3FC, symBinAddr: 0xAFE8, symSize: 0x30 }
  - { offset: 0xAA2FC, size: 0x8, addend: 0x0, symName: __ZZN4grpc25MakeChannelArgumentOptionERKNSt3__112basic_stringIcNS0_11char_traitsIcEENS0_9allocatorIcEEEEPvEN13PointerOptionD0Ev, symObjAddr: 0x42C, symBinAddr: 0xB018, symSize: 0x30 }
  - { offset: 0xAA485, size: 0x8, addend: 0x0, symName: __ZZN4grpc25MakeChannelArgumentOptionERKNSt3__112basic_stringIcNS0_11char_traitsIcEENS0_9allocatorIcEEEEPvEN13PointerOption15UpdateArgumentsEPNS_16ChannelArgumentsE, symObjAddr: 0x45C, symBinAddr: 0xB048, symSize: 0x14 }
  - { offset: 0xAA4C0, size: 0x8, addend: 0x0, symName: __ZZN4grpc25MakeChannelArgumentOptionERKNSt3__112basic_stringIcNS0_11char_traitsIcEENS0_9allocatorIcEEEEPvEN13PointerOption13UpdatePluginsEPNS0_6vectorINS0_10unique_ptrINS_19ServerBuilderPluginENS0_14default_deleteISD_EEEENS4_ISG_EEEE, symObjAddr: 0x470, symBinAddr: 0xB05C, symSize: 0x4 }
  - { offset: 0xB0ED9, size: 0x8, addend: 0x0, symName: __ZNSt3__110__list_impINS_12basic_stringIcNS_11char_traitsIcEENS_9allocatorIcEEEENS4_IS6_EEE4swapERS8_, symObjAddr: 0x182C, symBinAddr: 0xC5D0, symSize: 0x74 }
  - { offset: 0xB15B2, size: 0x8, addend: 0x0, symName: __ZNSt3__120__throw_out_of_rangeB8ne180100EPKc, symObjAddr: 0x18B4, symBinAddr: 0xC658, symSize: 0x50 }
  - { offset: 0xB2883, size: 0x8, addend: 0x0, symName: __ZN4grpc16ChannelArguments10SetPointerERKNSt3__112basic_stringIcNS1_11char_traitsIcEENS1_9allocatorIcEEEEPv, symObjAddr: 0x1274, symBinAddr: 0xC2C0, symSize: 0xC }
  - { offset: 0xB28A9, size: 0x8, addend: 0x0, symName: __ZZN4grpc16ChannelArguments10SetPointerERKNSt3__112basic_stringIcNS1_11char_traitsIcEENS1_9allocatorIcEEEEPvE6vtable, symObjAddr: 0x1E98, symBinAddr: 0x456F8, symSize: 0x0 }
  - { offset: 0xB2DAA, size: 0x8, addend: 0x0, symName: __ZN4grpc16ChannelArgumentsC2Ev, symObjAddr: 0x0, symBinAddr: 0xB060, symSize: 0x130 }
  - { offset: 0xB3A74, size: 0x8, addend: 0x0, symName: __ZN4grpc16ChannelArguments9SetStringERKNSt3__112basic_stringIcNS1_11char_traitsIcEENS1_9allocatorIcEEEES9_, symObjAddr: 0x130, symBinAddr: 0xB190, symSize: 0x170 }
  - { offset: 0xB4151, size: 0x8, addend: 0x0, symName: __ZN4grpc16ChannelArgumentsC1Ev, symObjAddr: 0x2A0, symBinAddr: 0xB300, symSize: 0x4 }
  - { offset: 0xB4164, size: 0x8, addend: 0x0, symName: __ZNSt3__110__list_impINS_12basic_stringIcNS_11char_traitsIcEENS_9allocatorIcEEEENS4_IS6_EEE5clearEv, symObjAddr: 0x1464, symBinAddr: 0xC4B0, symSize: 0x60 }
  - { offset: 0xB469D, size: 0x8, addend: 0x0, symName: __ZNSt3__110__list_impINS_12basic_stringIcNS_11char_traitsIcEENS_9allocatorIcEEEENS4_IS6_EEE13__create_nodeB8ne180100IJRKS6_EEEPNS_11__list_nodeIS6_PvEEPNS_16__list_node_baseIS6_SD_EESI_DpOT_, symObjAddr: 0x19AC, symBinAddr: 0xC750, symSize: 0x78 }
  - { offset: 0xB4A40, size: 0x8, addend: 0x0, symName: __ZN4grpc16ChannelArgumentsC1Ev, symObjAddr: 0x2A0, symBinAddr: 0xB300, symSize: 0x4 }
  - { offset: 0xB4A6E, size: 0x8, addend: 0x0, symName: __ZN4grpc16ChannelArgumentsC1Ev, symObjAddr: 0x2A0, symBinAddr: 0xB300, symSize: 0x4 }
  - { offset: 0xB4BAB, size: 0x8, addend: 0x0, symName: __ZN4grpc16ChannelArgumentsC2ERKS0_, symObjAddr: 0x2A4, symBinAddr: 0xB304, symSize: 0x2A0 }
  - { offset: 0xB5699, size: 0x8, addend: 0x0, symName: __ZNSt3__14listINS_12basic_stringIcNS_11char_traitsIcEENS_9allocatorIcEEEENS4_IS6_EEEC2ERKS8_, symObjAddr: 0x1754, symBinAddr: 0xC540, symSize: 0x90 }
  - { offset: 0xB5849, size: 0x8, addend: 0x0, symName: __ZNSt3__16vectorI8grpc_argNS_9allocatorIS1_EEE7reserveEm, symObjAddr: 0x544, symBinAddr: 0xB5A4, symSize: 0x9C }
  - { offset: 0xB5B44, size: 0x8, addend: 0x0, symName: __ZN4grpc16ChannelArgumentsC1ERKS0_, symObjAddr: 0x5E0, symBinAddr: 0xB640, symSize: 0x4 }
  - { offset: 0xB5B57, size: 0x8, addend: 0x0, symName: __ZN4grpc16ChannelArgumentsC1ERKS0_, symObjAddr: 0x5E0, symBinAddr: 0xB640, symSize: 0x4 }
  - { offset: 0xB5B93, size: 0x8, addend: 0x0, symName: __ZN4grpc16ChannelArgumentsC1ERKS0_, symObjAddr: 0x5E0, symBinAddr: 0xB640, symSize: 0x4 }
  - { offset: 0xB5F39, size: 0x8, addend: 0x0, symName: __ZN4grpc16ChannelArgumentsD2Ev, symObjAddr: 0x5E4, symBinAddr: 0xB644, symSize: 0x88 }
  - { offset: 0xB62D6, size: 0x8, addend: 0x0, symName: __ZN4grpc16ChannelArgumentsD1Ev, symObjAddr: 0x680, symBinAddr: 0xB6CC, symSize: 0x4 }
  - { offset: 0xB6304, size: 0x8, addend: 0x0, symName: __ZN4grpc16ChannelArgumentsD1Ev, symObjAddr: 0x680, symBinAddr: 0xB6CC, symSize: 0x4 }
  - { offset: 0xB635E, size: 0x8, addend: 0x0, symName: __ZN4grpc16ChannelArguments4SwapERS0_, symObjAddr: 0x684, symBinAddr: 0xB6D0, symSize: 0x3C }
  - { offset: 0xB6399, size: 0x8, addend: 0x0, symName: __ZN4grpc16ChannelArguments4SwapERS0_, symObjAddr: 0x684, symBinAddr: 0xB6D0, symSize: 0x3C }
  - { offset: 0xB63BB, size: 0x8, addend: 0x0, symName: __ZN4grpc16ChannelArguments4SwapERS0_, symObjAddr: 0x684, symBinAddr: 0xB6D0, symSize: 0x3C }
  - { offset: 0xB647D, size: 0x8, addend: 0x0, symName: __ZNSt3__110__list_impINS_12basic_stringIcNS_11char_traitsIcEENS_9allocatorIcEEEENS4_IS6_EEE4swapERS8_, symObjAddr: 0x182C, symBinAddr: 0xC5D0, symSize: 0x74 }
  - { offset: 0xB6512, size: 0x8, addend: 0x0, symName: __ZN4grpc16ChannelArguments23SetCompressionAlgorithmE26grpc_compression_algorithm, symObjAddr: 0x6C0, symBinAddr: 0xB70C, symSize: 0x74 }
  - { offset: 0xB67F4, size: 0x8, addend: 0x0, symName: __ZN4grpc16ChannelArguments6SetIntERKNSt3__112basic_stringIcNS1_11char_traitsIcEENS1_9allocatorIcEEEEi, symObjAddr: 0x734, symBinAddr: 0xB780, symSize: 0x140 }
  - { offset: 0xB6D8B, size: 0x8, addend: 0x0, symName: __ZN4grpc16ChannelArguments24SetGrpclbFallbackTimeoutEi, symObjAddr: 0x874, symBinAddr: 0xB8C0, symSize: 0x74 }
  - { offset: 0xB6D9E, size: 0x8, addend: 0x0, symName: __ZN4grpc16ChannelArguments24SetGrpclbFallbackTimeoutEi, symObjAddr: 0x874, symBinAddr: 0xB8C0, symSize: 0x74 }
  - { offset: 0xB72BD, size: 0x8, addend: 0x0, symName: __ZN4grpc16ChannelArguments16SetSocketMutatorEP19grpc_socket_mutator, symObjAddr: 0x8E8, symBinAddr: 0xB934, symSize: 0x338 }
  - { offset: 0xB81EB, size: 0x8, addend: 0x0, symName: __ZN4grpc16ChannelArguments18SetUserAgentPrefixERKNSt3__112basic_stringIcNS1_11char_traitsIcEENS1_9allocatorIcEEEE, symObjAddr: 0xC20, symBinAddr: 0xBC6C, symSize: 0x2A8 }
  - { offset: 0xB8F8E, size: 0x8, addend: 0x0, symName: __ZNSt3__112basic_stringIcNS_11char_traitsIcEENS_9allocatorIcEEEC2B8ne180100ENS_24__uninitialized_size_tagEmRKS4_, symObjAddr: 0x1928, symBinAddr: 0xC6CC, symSize: 0x84 }
  - { offset: 0xB9150, size: 0x8, addend: 0x0, symName: __ZNSt3__110__list_impINS_12basic_stringIcNS_11char_traitsIcEENS_9allocatorIcEEEENS4_IS6_EEE13__create_nodeB8ne180100IJRKS6_EEEPNS_11__list_nodeIS6_PvEEPNS_16__list_node_baseIS6_SD_EESI_DpOT_, symObjAddr: 0x19AC, symBinAddr: 0xC750, symSize: 0x78 }
  - { offset: 0xB9163, size: 0x8, addend: 0x0, symName: __ZN4grpc16ChannelArguments18SetUserAgentPrefixERKNSt3__112basic_stringIcNS1_11char_traitsIcEENS1_9allocatorIcEEEE.cold.1, symObjAddr: 0x1AB0, symBinAddr: 0x2F9E8, symSize: 0x28 }
  - { offset: 0xB9196, size: 0x8, addend: 0x0, symName: __ZN4grpc16ChannelArguments16SetResourceQuotaERKNS_13ResourceQuotaE, symObjAddr: 0xEC8, symBinAddr: 0xBF14, symSize: 0x80 }
  - { offset: 0xB94AF, size: 0x8, addend: 0x0, symName: __ZN4grpc16ChannelArguments20SetPointerWithVtableERKNSt3__112basic_stringIcNS1_11char_traitsIcEENS1_9allocatorIcEEEEPvPK23grpc_arg_pointer_vtable, symObjAddr: 0xF48, symBinAddr: 0xBF94, symSize: 0x15C }
  - { offset: 0xB9A6A, size: 0x8, addend: 0x0, symName: __ZN4grpc16ChannelArguments24SetMaxReceiveMessageSizeEi, symObjAddr: 0x10A4, symBinAddr: 0xC0F0, symSize: 0x74 }
  - { offset: 0xB9A7D, size: 0x8, addend: 0x0, symName: __ZN4grpc16ChannelArguments24SetMaxReceiveMessageSizeEi, symObjAddr: 0x10A4, symBinAddr: 0xC0F0, symSize: 0x74 }
  - { offset: 0xB9D5F, size: 0x8, addend: 0x0, symName: __ZN4grpc16ChannelArguments21SetMaxSendMessageSizeEi, symObjAddr: 0x1118, symBinAddr: 0xC164, symSize: 0x74 }
  - { offset: 0xBA041, size: 0x8, addend: 0x0, symName: __ZN4grpc16ChannelArguments26SetLoadBalancingPolicyNameERKNSt3__112basic_stringIcNS1_11char_traitsIcEENS1_9allocatorIcEEEE, symObjAddr: 0x118C, symBinAddr: 0xC1D8, symSize: 0x74 }
  - { offset: 0xBA323, size: 0x8, addend: 0x0, symName: __ZN4grpc16ChannelArguments20SetServiceConfigJSONERKNSt3__112basic_stringIcNS1_11char_traitsIcEENS1_9allocatorIcEEEE, symObjAddr: 0x1200, symBinAddr: 0xC24C, symSize: 0x74 }
  - { offset: 0xBA605, size: 0x8, addend: 0x0, symName: __ZN4grpc16ChannelArguments20PointerVtableMembers4CopyEPv, symObjAddr: 0x1280, symBinAddr: 0xC2CC, symSize: 0x4 }
  - { offset: 0xBA628, size: 0x8, addend: 0x0, symName: __ZN4grpc16ChannelArguments20PointerVtableMembers7DestroyEPv, symObjAddr: 0x1284, symBinAddr: 0xC2D0, symSize: 0x4 }
  - { offset: 0xBA647, size: 0x8, addend: 0x0, symName: __ZN4grpc16ChannelArguments20PointerVtableMembers7CompareEPvS2_, symObjAddr: 0x1288, symBinAddr: 0xC2D4, symSize: 0x10 }
  - { offset: 0xBA67A, size: 0x8, addend: 0x0, symName: __ZNK4grpc16ChannelArguments14SetChannelArgsEP17grpc_channel_args, symObjAddr: 0x1298, symBinAddr: 0xC2E4, symSize: 0x1C }
  - { offset: 0xBA6B1, size: 0x8, addend: 0x0, symName: __ZNK4grpc16ChannelArguments14SetChannelArgsEP17grpc_channel_args, symObjAddr: 0x1298, symBinAddr: 0xC2E4, symSize: 0x1C }
  - { offset: 0xBA6CB, size: 0x8, addend: 0x0, symName: __ZN4grpc16ChannelArguments24SetSslTargetNameOverrideERKNSt3__112basic_stringIcNS1_11char_traitsIcEENS1_9allocatorIcEEEE, symObjAddr: 0x12B4, symBinAddr: 0xC300, symSize: 0x74 }
  - { offset: 0xBA9FA, size: 0x8, addend: 0x0, symName: __ZNK4grpc16ChannelArguments24GetSslTargetNameOverrideEv, symObjAddr: 0x1328, symBinAddr: 0xC374, symSize: 0x13C }
  - { offset: 0xBADE6, size: 0x8, addend: 0x0, symName: __ZNKSt3__112basic_stringIcNS_11char_traitsIcEENS_9allocatorIcEEE20__throw_out_of_rangeB8ne180100Ev, symObjAddr: 0x18A0, symBinAddr: 0xC644, symSize: 0x14 }
  - { offset: 0xBAE10, size: 0x8, addend: 0x0, symName: __ZNSt3__120__throw_out_of_rangeB8ne180100EPKc, symObjAddr: 0x18B4, symBinAddr: 0xC658, symSize: 0x50 }
  - { offset: 0xBAE53, size: 0x8, addend: 0x0, symName: __ZNSt3__110__list_impINS_12basic_stringIcNS_11char_traitsIcEENS_9allocatorIcEEEENS4_IS6_EEE13__delete_nodeB8ne180100IJEEEvPNS_11__list_nodeIS6_PvEE, symObjAddr: 0x14C4, symBinAddr: 0xC510, symSize: 0x30 }
  - { offset: 0xBB3D0, size: 0x8, addend: 0x0, symName: __ZNSt12out_of_rangeC1B8ne180100EPKc, symObjAddr: 0x1904, symBinAddr: 0xC6A8, symSize: 0x24 }
  - { offset: 0xBB845, size: 0x8, addend: 0x0, symName: __ZN4grpc16ChannelArguments18SetUserAgentPrefixERKNSt3__112basic_stringIcNS1_11char_traitsIcEENS1_9allocatorIcEEEE.cold.1, symObjAddr: 0x1AB0, symBinAddr: 0x2F9E8, symSize: 0x28 }
  - { offset: 0xBE1DC, size: 0x8, addend: 0x0, symName: __ZN4grpc12experimental29ChannelResetConnectionBackoffEPNS_7ChannelE, symObjAddr: 0x350, symBinAddr: 0xCAC8, symSize: 0x8 }
  - { offset: 0xBE955, size: 0x8, addend: 0x0, symName: __ZN4grpc12_GLOBAL__N_119GetChannelInfoFieldEP12grpc_channelP17grpc_channel_infoPPPc, symObjAddr: 0x2A4, symBinAddr: 0xCA1C, symSize: 0x80 }
  - { offset: 0xC6E5E, size: 0x8, addend: 0x0, symName: __ZNSt3__119__allocate_at_leastB8ne180100INS_9allocatorINS_10unique_ptrIN4grpc12experimental11InterceptorENS_14default_deleteIS5_EEEEEEEENS_19__allocation_resultINS_16allocator_traitsIT_E7pointerEEERSC_m, symObjAddr: 0x1070, symBinAddr: 0xD64C, symSize: 0x34 }
  - { offset: 0xC6F00, size: 0x8, addend: 0x0, symName: __ZNSt3__114__split_bufferINS_10unique_ptrIN4grpc12experimental11InterceptorENS_14default_deleteIS4_EEEERNS_9allocatorIS7_EEED2Ev, symObjAddr: 0x10A4, symBinAddr: 0xD680, symSize: 0x60 }
  - { offset: 0xC74EF, size: 0x8, addend: 0x0, symName: __ZNSt3__120__throw_bad_weak_ptrB8ne180100Ev, symObjAddr: 0x1F04, symBinAddr: 0xD908, symSize: 0x34 }
  - { offset: 0xC908F, size: 0x8, addend: 0x0, symName: __ZN4grpc7ChannelC2ERKNSt3__112basic_stringIcNS1_11char_traitsIcEENS1_9allocatorIcEEEEP12grpc_channelNS1_6vectorINS1_10unique_ptrINS_12experimental33ClientInterceptorFactoryInterfaceENS1_14default_deleteISF_EEEENS5_ISI_EEEE, symObjAddr: 0x0, symBinAddr: 0xC7C8, symSize: 0x138 }
  - { offset: 0xC9857, size: 0x8, addend: 0x0, symName: __ZN4grpc7ChannelC1ERKNSt3__112basic_stringIcNS1_11char_traitsIcEENS1_9allocatorIcEEEEP12grpc_channelNS1_6vectorINS1_10unique_ptrINS_12experimental33ClientInterceptorFactoryInterfaceENS1_14default_deleteISF_EEEENS5_ISI_EEEE, symObjAddr: 0x178, symBinAddr: 0xC900, symSize: 0x4 }
  - { offset: 0xC98B0, size: 0x8, addend: 0x0, symName: __ZN4grpc7ChannelC1ERKNSt3__112basic_stringIcNS1_11char_traitsIcEENS1_9allocatorIcEEEEP12grpc_channelNS1_6vectorINS1_10unique_ptrINS_12experimental33ClientInterceptorFactoryInterfaceENS1_14default_deleteISF_EEEENS5_ISI_EEEE, symObjAddr: 0x178, symBinAddr: 0xC900, symSize: 0x4 }
  - { offset: 0xC99C6, size: 0x8, addend: 0x0, symName: __ZN4grpc7ChannelD2Ev, symObjAddr: 0x17C, symBinAddr: 0xC904, symSize: 0x98 }
  - { offset: 0xC9E3D, size: 0x8, addend: 0x0, symName: __ZN4grpc7ChannelD1Ev, symObjAddr: 0x224, symBinAddr: 0xC99C, symSize: 0x4 }
  - { offset: 0xC9E60, size: 0x8, addend: 0x0, symName: __ZN4grpc7ChannelD1Ev, symObjAddr: 0x224, symBinAddr: 0xC99C, symSize: 0x4 }
  - { offset: 0xC9E95, size: 0x8, addend: 0x0, symName: __ZThn8_N4grpc7ChannelD1Ev, symObjAddr: 0x228, symBinAddr: 0xC9A0, symSize: 0x8 }
  - { offset: 0xC9ED6, size: 0x8, addend: 0x0, symName: __ZThn32_N4grpc7ChannelD1Ev, symObjAddr: 0x230, symBinAddr: 0xC9A8, symSize: 0x8 }
  - { offset: 0xC9F17, size: 0x8, addend: 0x0, symName: __ZN4grpc7ChannelD0Ev, symObjAddr: 0x238, symBinAddr: 0xC9B0, symSize: 0x14 }
  - { offset: 0xC9F86, size: 0x8, addend: 0x0, symName: __ZThn8_N4grpc7ChannelD0Ev, symObjAddr: 0x24C, symBinAddr: 0xC9C4, symSize: 0x18 }
  - { offset: 0xC9FE3, size: 0x8, addend: 0x0, symName: __ZThn32_N4grpc7ChannelD0Ev, symObjAddr: 0x264, symBinAddr: 0xC9DC, symSize: 0x18 }
  - { offset: 0xCA040, size: 0x8, addend: 0x0, symName: __ZNK4grpc7Channel26GetLoadBalancingPolicyNameEv, symObjAddr: 0x27C, symBinAddr: 0xC9F4, symSize: 0x28 }
  - { offset: 0xCA39D, size: 0x8, addend: 0x0, symName: __ZNK4grpc7Channel20GetServiceConfigJSONEv, symObjAddr: 0x324, symBinAddr: 0xCA9C, symSize: 0x2C }
  - { offset: 0xCA688, size: 0x8, addend: 0x0, symName: __ZN4grpc7Channel18CreateCallInternalERKNS_8internal9RpcMethodEPNS_13ClientContextEPNS_15CompletionQueueEm, symObjAddr: 0x358, symBinAddr: 0xCAD0, symSize: 0x2A0 }
  - { offset: 0xCAFA1, size: 0x8, addend: 0x0, symName: __ZN4grpc13ClientContext19set_client_rpc_infoEPKcS2_NS_8internal9RpcMethod7RpcTypeEPNS_16ChannelInterfaceERKNSt3__16vectorINS8_10unique_ptrINS_12experimental33ClientInterceptorFactoryInterfaceENS8_14default_deleteISC_EEEENS8_9allocatorISF_EEEEm, symObjAddr: 0x5F8, symBinAddr: 0xCD70, symSize: 0xB0 }
  - { offset: 0xCB226, size: 0x8, addend: 0x0, symName: __ZNSt3__110shared_ptrIN4grpc7ChannelEEC2B8ne180100IS2_vEERKNS_8weak_ptrIT_EE, symObjAddr: 0x1EC4, symBinAddr: 0xD8C8, symSize: 0x40 }
  - { offset: 0xCB264, size: 0x8, addend: 0x0, symName: __ZNSt3__120__throw_bad_weak_ptrB8ne180100Ev, symObjAddr: 0x1F04, symBinAddr: 0xD908, symSize: 0x34 }
  - { offset: 0xCB49D, size: 0x8, addend: 0x0, symName: __ZNSt3__16vectorINS_10unique_ptrIN4grpc12experimental11InterceptorENS_14default_deleteIS4_EEEENS_9allocatorIS7_EEE13__vdeallocateEv, symObjAddr: 0xF70, symBinAddr: 0xD560, symSize: 0x70 }
  - { offset: 0xCB6D9, size: 0x8, addend: 0x0, symName: __ZNSt3__16vectorINS_10unique_ptrIN4grpc12experimental11InterceptorENS_14default_deleteIS4_EEEENS_9allocatorIS7_EEE16__destroy_vectorclB8ne180100Ev, symObjAddr: 0xFE0, symBinAddr: 0xD5D0, symSize: 0x7C }
  - { offset: 0xCB8C3, size: 0x8, addend: 0x0, symName: __ZN4grpc12experimental13ClientRpcInfo20RegisterInterceptorsERKNSt3__16vectorINS2_10unique_ptrINS0_33ClientInterceptorFactoryInterfaceENS2_14default_deleteIS5_EEEENS2_9allocatorIS8_EEEEm, symObjAddr: 0xB84, symBinAddr: 0xD174, symSize: 0x3EC }
  - { offset: 0xCCBDC, size: 0x8, addend: 0x0, symName: __ZN4grpc7Channel10CreateCallERKNS_8internal9RpcMethodEPNS_13ClientContextEPNS_15CompletionQueueE, symObjAddr: 0x6A8, symBinAddr: 0xCE20, symSize: 0x8 }
  - { offset: 0xCCC6A, size: 0x8, addend: 0x0, symName: __ZN4grpc7Channel16PerformOpsOnCallEPNS_8internal18CallOpSetInterfaceEPNS1_4CallE, symObjAddr: 0x6B0, symBinAddr: 0xCE28, symSize: 0x14 }
  - { offset: 0xCCCE6, size: 0x8, addend: 0x0, symName: __ZThn8_N4grpc7Channel16PerformOpsOnCallEPNS_8internal18CallOpSetInterfaceEPNS1_4CallE, symObjAddr: 0x6C4, symBinAddr: 0xCE3C, symSize: 0x14 }
  - { offset: 0xCCD55, size: 0x8, addend: 0x0, symName: __ZN4grpc7Channel14RegisterMethodEPKc, symObjAddr: 0x6D8, symBinAddr: 0xCE50, symSize: 0x3C }
  - { offset: 0xCCE9D, size: 0x8, addend: 0x0, symName: __ZN4grpc7Channel8GetStateEb, symObjAddr: 0x714, symBinAddr: 0xCE8C, symSize: 0x8 }
  - { offset: 0xCCF5B, size: 0x8, addend: 0x0, symName: __ZN4grpc7Channel23NotifyOnStateChangeImplE23grpc_connectivity_state12gpr_timespecPNS_15CompletionQueueEPv, symObjAddr: 0x71C, symBinAddr: 0xCE94, symSize: 0x6C }
  - { offset: 0xCD158, size: 0x8, addend: 0x0, symName: __ZN4grpc7Channel22WaitForStateChangeImplE23grpc_connectivity_state12gpr_timespec, symObjAddr: 0x788, symBinAddr: 0xCF00, symSize: 0x160 }
  - { offset: 0xCD457, size: 0x8, addend: 0x0, symName: __ZN4grpc15CompletionQueueC2ERK32grpc_completion_queue_attributes, symObjAddr: 0x1C84, symBinAddr: 0xD800, symSize: 0xC8 }
  - { offset: 0xCD727, size: 0x8, addend: 0x0, symName: __ZN4grpc15CompletionQueueD2Ev, symObjAddr: 0x1B8C, symBinAddr: 0xD708, symSize: 0x50 }
  - { offset: 0xCD81F, size: 0x8, addend: 0x0, symName: __ZN4grpc15CompletionQueueD1Ev, symObjAddr: 0x8E8, symBinAddr: 0xD060, symSize: 0x4 }
  - { offset: 0xCD842, size: 0x8, addend: 0x0, symName: __ZN4grpc15CompletionQueueD1Ev, symObjAddr: 0x8E8, symBinAddr: 0xD060, symSize: 0x4 }
  - { offset: 0xCD990, size: 0x8, addend: 0x0, symName: __ZN4grpc7Channel10CallbackCQEv, symObjAddr: 0x8EC, symBinAddr: 0xD064, symSize: 0xF0 }
  - { offset: 0xCDC8B, size: 0x8, addend: 0x0, symName: __ZN4grpc16ChannelInterfaceD1Ev, symObjAddr: 0x9DC, symBinAddr: 0x2FA10, symSize: 0x4 }
  - { offset: 0xCDCB4, size: 0x8, addend: 0x0, symName: __ZN4grpc16ChannelInterfaceD0Ev, symObjAddr: 0x9E0, symBinAddr: 0x2FA14, symSize: 0x4 }
  - { offset: 0xCDD11, size: 0x8, addend: 0x0, symName: __ZN4grpc16ChannelInterface18CreateCallInternalERKNS_8internal9RpcMethodEPNS_13ClientContextEPNS_15CompletionQueueEm, symObjAddr: 0x9E4, symBinAddr: 0xD154, symSize: 0x18 }
  - { offset: 0xCDD60, size: 0x8, addend: 0x0, symName: __ZN4grpc16ChannelInterface18CreateCallInternalERKNS_8internal9RpcMethodEPNS_13ClientContextEPNS_15CompletionQueueEm, symObjAddr: 0x9E4, symBinAddr: 0xD154, symSize: 0x18 }
  - { offset: 0xCDD7B, size: 0x8, addend: 0x0, symName: __ZN4grpc16ChannelInterface18CreateCallInternalERKNS_8internal9RpcMethodEPNS_13ClientContextEPNS_15CompletionQueueEm, symObjAddr: 0x9E4, symBinAddr: 0xD154, symSize: 0x18 }
  - { offset: 0xCDD96, size: 0x8, addend: 0x0, symName: __ZN4grpc16ChannelInterface10CallbackCQEv, symObjAddr: 0x9FC, symBinAddr: 0xD16C, symSize: 0x8 }
  - { offset: 0xCDDBD, size: 0x8, addend: 0x0, symName: __ZN4grpc8internal8CallHookD1Ev, symObjAddr: 0xA04, symBinAddr: 0x2FA18, symSize: 0x4 }
  - { offset: 0xCDDE6, size: 0x8, addend: 0x0, symName: __ZN4grpc8internal8CallHookD0Ev, symObjAddr: 0xA08, symBinAddr: 0x2FA1C, symSize: 0x4 }
  - { offset: 0xCE637, size: 0x8, addend: 0x0, symName: __ZNSt3__114__split_bufferINS_10unique_ptrIN4grpc12experimental11InterceptorENS_14default_deleteIS4_EEEERNS_9allocatorIS7_EEED2Ev, symObjAddr: 0x10A4, symBinAddr: 0xD680, symSize: 0x60 }
  - { offset: 0xCE81B, size: 0x8, addend: 0x0, symName: __ZNSt3__119__allocate_at_leastB8ne180100INS_9allocatorINS_10unique_ptrIN4grpc12experimental11InterceptorENS_14default_deleteIS5_EEEEEEEENS_19__allocation_resultINS_16allocator_traitsIT_E7pointerEEERSC_m, symObjAddr: 0x1070, symBinAddr: 0xD64C, symSize: 0x34 }
  - { offset: 0xCE9B5, size: 0x8, addend: 0x0, symName: __ZN4grpc12_GLOBAL__N_18TagSaverD1Ev, symObjAddr: 0x1104, symBinAddr: 0xD6E0, symSize: 0x4 }
  - { offset: 0xCE9DE, size: 0x8, addend: 0x0, symName: __ZN4grpc12_GLOBAL__N_18TagSaverD0Ev, symObjAddr: 0x1108, symBinAddr: 0xD6E4, symSize: 0x4 }
  - { offset: 0xCEA07, size: 0x8, addend: 0x0, symName: __ZN4grpc12_GLOBAL__N_18TagSaver14FinalizeResultEPPvPb, symObjAddr: 0x110C, symBinAddr: 0xD6E8, symSize: 0x20 }
  - { offset: 0xCF0AB, size: 0x8, addend: 0x0, symName: __ZNSt3__110__list_impIPKN4grpc6ServerENS_9allocatorIS4_EEE5clearEv, symObjAddr: 0x1BF0, symBinAddr: 0xD76C, symSize: 0x60 }
  - { offset: 0xCF26D, size: 0x8, addend: 0x0, symName: __ZN4grpc15CompletionQueueD0Ev, symObjAddr: 0x1BDC, symBinAddr: 0xD758, symSize: 0x14 }
  - { offset: 0xCF39D, size: 0x8, addend: 0x0, symName: __ZN4grpc12_GLOBAL__N_116ShutdownCallback3RunEP29grpc_completion_queue_functori, symObjAddr: 0x1C50, symBinAddr: 0xD7CC, symSize: 0x34 }
  - { offset: 0xD7E86, size: 0x8, addend: 0x0, symName: __ZN4grpc18ChannelCredentialsC2EP24grpc_channel_credentials, symObjAddr: 0x0, symBinAddr: 0xD93C, symSize: 0x54 }
  - { offset: 0xD7F17, size: 0x8, addend: 0x0, symName: __ZN4grpc18ChannelCredentialsC1EP24grpc_channel_credentials, symObjAddr: 0x54, symBinAddr: 0xD990, symSize: 0x54 }
  - { offset: 0xD7FA9, size: 0x8, addend: 0x0, symName: __ZN4grpc18ChannelCredentialsD2Ev, symObjAddr: 0xA8, symBinAddr: 0xD9E4, symSize: 0x38 }
  - { offset: 0xD802F, size: 0x8, addend: 0x0, symName: __ZN4grpc18ChannelCredentialsD1Ev, symObjAddr: 0x130, symBinAddr: 0xDA1C, symSize: 0x4 }
  - { offset: 0xD8052, size: 0x8, addend: 0x0, symName: __ZN4grpc18ChannelCredentialsD1Ev, symObjAddr: 0x130, symBinAddr: 0xDA1C, symSize: 0x4 }
  - { offset: 0xD8082, size: 0x8, addend: 0x0, symName: __ZN4grpc18ChannelCredentialsD0Ev, symObjAddr: 0x134, symBinAddr: 0xDA20, symSize: 0x14 }
  - { offset: 0xD82B9, size: 0x8, addend: 0x0, symName: __ZN4grpc18ChannelCredentials29CreateChannelWithInterceptorsERKNSt3__112basic_stringIcNS1_11char_traitsIcEENS1_9allocatorIcEEEERKNS_16ChannelArgumentsENS1_6vectorINS1_10unique_ptrINS_12experimental33ClientInterceptorFactoryInterfaceENS1_14default_deleteISG_EEEENS5_ISJ_EEEE, symObjAddr: 0x148, symBinAddr: 0xDA34, symSize: 0xF4 }
  - { offset: 0xD891B, size: 0x8, addend: 0x0, symName: __ZN4grpc18ChannelCredentials17CreateChannelImplERKNSt3__112basic_stringIcNS1_11char_traitsIcEENS1_9allocatorIcEEEERKNS_16ChannelArgumentsE, symObjAddr: 0x23C, symBinAddr: 0xDB28, symSize: 0x64 }
  - { offset: 0xDD1A3, size: 0x8, addend: 0x0, symName: __ZNK4grpc8internal13ClientReactor20InternalTrailersOnlyEPK9grpc_call, symObjAddr: 0x0, symBinAddr: 0xDB8C, symSize: 0x8 }
  - { offset: 0xDD205, size: 0x8, addend: 0x0, symName: __ZN4grpc8internal13ClientReactorD1Ev, symObjAddr: 0x8, symBinAddr: 0x2FA20, symSize: 0x4 }
  - { offset: 0xDD22E, size: 0x8, addend: 0x0, symName: __ZN4grpc8internal13ClientReactorD0Ev, symObjAddr: 0xC, symBinAddr: 0x2FA24, symSize: 0x4 }
  - { offset: 0xDF1D0, size: 0x8, addend: 0x0, symName: __ZN4grpcL26g_default_client_callbacksE, symObjAddr: 0xAB680, symBinAddr: 0x491B0, symSize: 0x0 }
  - { offset: 0xE1673, size: 0x8, addend: 0x0, symName: __ZN4grpcL18g_client_callbacksE, symObjAddr: 0xAB688, symBinAddr: 0x491B8, symSize: 0x0 }
  - { offset: 0xED1A4, size: 0x8, addend: 0x0, symName: __ZNSt3__112__destroy_atB8ne180100INS_4pairIKNS_12basic_stringIcNS_11char_traitsIcEENS_9allocatorIcEEEES7_EELi0EEEvPT_, symObjAddr: 0x1FF8, symBinAddr: 0xEAF8, symSize: 0x44 }
  - { offset: 0xEFA3B, size: 0x8, addend: 0x0, symName: __ZN4absl12lts_2024011612log_internal17MakeCheckOpStringIPKcRKDnEEPNSt3__112basic_stringIcNS7_11char_traitsIcEENS7_9allocatorIcEEEET_T0_S4_, symObjAddr: 0x1690, symBinAddr: 0xE528, symSize: 0xB8 }
  - { offset: 0xF1868, size: 0x8, addend: 0x0, symName: __ZN4grpc13ClientContextC2Ev, symObjAddr: 0x0, symBinAddr: 0xDBC8, symSize: 0x1B4 }
  - { offset: 0xF2380, size: 0x8, addend: 0x0, symName: __ZN4grpc8internal11MetadataMapD2Ev, symObjAddr: 0xA50, symBinAddr: 0xE45C, symSize: 0x38 }
  - { offset: 0xF247B, size: 0x8, addend: 0x0, symName: __ZNSt3__16__treeINS_12__value_typeINS_12basic_stringIcNS_11char_traitsIcEENS_9allocatorIcEEEES7_EENS_19__map_value_compareIS7_S8_NS_4lessIS7_EELb1EEENS5_IS8_EEE7destroyEPNS_11__tree_nodeIS8_PvEE, symObjAddr: 0x1FB0, symBinAddr: 0xEAB0, symSize: 0x48 }
  - { offset: 0xF26FD, size: 0x8, addend: 0x0, symName: __ZN4grpc13ClientContextC1Ev, symObjAddr: 0x1B4, symBinAddr: 0xDD7C, symSize: 0x4 }
  - { offset: 0xF2720, size: 0x8, addend: 0x0, symName: __ZN4grpc13ClientContextC1Ev, symObjAddr: 0x1B4, symBinAddr: 0xDD7C, symSize: 0x4 }
  - { offset: 0xF2785, size: 0x8, addend: 0x0, symName: __ZN4grpc13ClientContextD2Ev, symObjAddr: 0x1B8, symBinAddr: 0xDD80, symSize: 0xC4 }
  - { offset: 0xF2CF8, size: 0x8, addend: 0x0, symName: __ZN4grpc13ClientContextD1Ev, symObjAddr: 0x28C, symBinAddr: 0xDE44, symSize: 0x4 }
  - { offset: 0xF2D26, size: 0x8, addend: 0x0, symName: __ZN4grpc13ClientContextD1Ev, symObjAddr: 0x28C, symBinAddr: 0xDE44, symSize: 0x4 }
  - { offset: 0xF2D6B, size: 0x8, addend: 0x0, symName: __ZN4grpc13ClientContext15set_credentialsERKNSt3__110shared_ptrINS_15CallCredentialsEEE, symObjAddr: 0x290, symBinAddr: 0xDE48, symSize: 0x64 }
  - { offset: 0xF2F33, size: 0x8, addend: 0x0, symName: __ZN4grpc13ClientContext24SendCancelToInterceptorsEv, symObjAddr: 0x36C, symBinAddr: 0xDEAC, symSize: 0x74 }
  - { offset: 0xF3179, size: 0x8, addend: 0x0, symName: __ZN4grpc12experimental13ClientRpcInfo14RunInterceptorEPNS0_23InterceptorBatchMethodsEm, symObjAddr: 0x870, symBinAddr: 0xE338, symSize: 0x4C }
  - { offset: 0xF321F, size: 0x8, addend: 0x0, symName: __ZN4grpc8internal29CancelInterceptorBatchMethodsD1Ev, symObjAddr: 0x8BC, symBinAddr: 0xE384, symSize: 0x4 }
  - { offset: 0xF3369, size: 0x8, addend: 0x0, symName: __ZN4grpc13ClientContext25FromInternalServerContextERKNS_17ServerContextBaseENS_18PropagationOptionsE, symObjAddr: 0x3E0, symBinAddr: 0xDF20, symSize: 0x60 }
  - { offset: 0xF3474, size: 0x8, addend: 0x0, symName: __ZN4grpc13ClientContext17FromServerContextERKNS_17ServerContextBaseENS_18PropagationOptionsE, symObjAddr: 0x440, symBinAddr: 0xDF80, symSize: 0x8 }
  - { offset: 0xF34C8, size: 0x8, addend: 0x0, symName: __ZN4grpc13ClientContext25FromCallbackServerContextERKNS_21CallbackServerContextENS_18PropagationOptionsE, symObjAddr: 0x448, symBinAddr: 0xDF88, symSize: 0x8 }
  - { offset: 0xF360F, size: 0x8, addend: 0x0, symName: __ZN4grpc13ClientContext11AddMetadataERKNSt3__112basic_stringIcNS1_11char_traitsIcEENS1_9allocatorIcEEEES9_, symObjAddr: 0x450, symBinAddr: 0xDF90, symSize: 0x6C }
  - { offset: 0xF39BA, size: 0x8, addend: 0x0, symName: __ZNSt3__14pairINS_12basic_stringIcNS_11char_traitsIcEENS_9allocatorIcEEEES6_EC2B8ne180100ILb1ELi0EEERKS6_SA_, symObjAddr: 0xA88, symBinAddr: 0xE494, symSize: 0x94 }
  - { offset: 0xF3C4A, size: 0x8, addend: 0x0, symName: __ZNSt3__16__treeINS_12__value_typeINS_12basic_stringIcNS_11char_traitsIcEENS_9allocatorIcEEEES7_EENS_19__map_value_compareIS7_S8_NS_4lessIS7_EELb1EEENS5_IS8_EEE15__emplace_multiIJNS_4pairIS7_S7_EEEEENS_15__tree_iteratorIS8_PNS_11__tree_nodeIS8_PvEElEEDpOT_, symObjAddr: 0x203C, symBinAddr: 0xEB3C, symSize: 0xC4 }
  - { offset: 0xF4054, size: 0x8, addend: 0x0, symName: __ZNSt3__14pairINS_12basic_stringIcNS_11char_traitsIcEENS_9allocatorIcEEEES6_ED1Ev, symObjAddr: 0x4BC, symBinAddr: 0xDFFC, symSize: 0x40 }
  - { offset: 0xF43F9, size: 0x8, addend: 0x0, symName: __ZN4grpc13ClientContext8set_callEP9grpc_callRKNSt3__110shared_ptrINS_7ChannelEEE, symObjAddr: 0x4FC, symBinAddr: 0xE03C, symSize: 0x11C }
  - { offset: 0xF4BF0, size: 0x8, addend: 0x0, symName: __ZN4grpc13ClientContext25set_compression_algorithmE26grpc_compression_algorithm, symObjAddr: 0x690, symBinAddr: 0xE158, symSize: 0x16C }
  - { offset: 0xF552D, size: 0x8, addend: 0x0, symName: __ZN4grpc13ClientContext25set_compression_algorithmE26grpc_compression_algorithm.cold.1, symObjAddr: 0x2410, symBinAddr: 0x2FA28, symSize: 0x54 }
  - { offset: 0xF563C, size: 0x8, addend: 0x0, symName: __ZN4grpc13ClientContext9TryCancelEv, symObjAddr: 0x7FC, symBinAddr: 0xE2C4, symSize: 0x74 }
  - { offset: 0xF57CA, size: 0x8, addend: 0x0, symName: __ZN4grpc12experimental13ClientRpcInfo14RunInterceptorEPNS0_23InterceptorBatchMethodsEm.cold.1, symObjAddr: 0x2464, symBinAddr: 0x2FA7C, symSize: 0x4C }
  - { offset: 0xF587A, size: 0x8, addend: 0x0, symName: __ZN4grpc8internal29CancelInterceptorBatchMethodsD1Ev, symObjAddr: 0x8BC, symBinAddr: 0xE384, symSize: 0x4 }
  - { offset: 0xF58C8, size: 0x8, addend: 0x0, symName: __ZNK4grpc13ClientContext4peerEv, symObjAddr: 0x8C0, symBinAddr: 0xE388, symSize: 0x64 }
  - { offset: 0xF5B2A, size: 0x8, addend: 0x0, symName: __ZN4grpc13ClientContext18SetGlobalCallbacksEPNS0_15GlobalCallbacksE, symObjAddr: 0x924, symBinAddr: 0xE3EC, symSize: 0x60 }
  - { offset: 0xF5BAE, size: 0x8, addend: 0x0, symName: __ZN4grpc28DefaultGlobalClientCallbacksD1Ev, symObjAddr: 0x984, symBinAddr: 0xE44C, symSize: 0x4 }
  - { offset: 0xF5BC1, size: 0x8, addend: 0x0, symName: __ZN4grpc13ClientContext18SetGlobalCallbacksEPNS0_15GlobalCallbacksE.cold.3, symObjAddr: 0x252C, symBinAddr: 0x2FB44, symSize: 0x28 }
  - { offset: 0xF5BD9, size: 0x8, addend: 0x0, symName: __ZN4grpc13ClientContext18SetGlobalCallbacksEPNS0_15GlobalCallbacksE.cold.1, symObjAddr: 0x24B0, symBinAddr: 0x2FAC8, symSize: 0x54 }
  - { offset: 0xF5C89, size: 0x8, addend: 0x0, symName: __ZN4grpc13ClientContext18SetGlobalCallbacksEPNS0_15GlobalCallbacksE.cold.2, symObjAddr: 0x2504, symBinAddr: 0x2FB1C, symSize: 0x28 }
  - { offset: 0xF5CA1, size: 0x8, addend: 0x0, symName: __ZN4grpc28DefaultGlobalClientCallbacksD1Ev, symObjAddr: 0x984, symBinAddr: 0xE44C, symSize: 0x4 }
  - { offset: 0xF5CCA, size: 0x8, addend: 0x0, symName: __ZN4grpc28DefaultGlobalClientCallbacksD0Ev, symObjAddr: 0x988, symBinAddr: 0xE450, symSize: 0x4 }
  - { offset: 0xF5CF3, size: 0x8, addend: 0x0, symName: __ZN4grpc28DefaultGlobalClientCallbacks18DefaultConstructorEPNS_13ClientContextE, symObjAddr: 0x98C, symBinAddr: 0xE454, symSize: 0x4 }
  - { offset: 0xF5D22, size: 0x8, addend: 0x0, symName: __ZN4grpc28DefaultGlobalClientCallbacks10DestructorEPNS_13ClientContextE, symObjAddr: 0x990, symBinAddr: 0xE458, symSize: 0x4 }
  - { offset: 0xF6B44, size: 0x8, addend: 0x0, symName: __ZN4grpc8internal29CancelInterceptorBatchMethodsD0Ev, symObjAddr: 0x1748, symBinAddr: 0xE5E0, symSize: 0x4 }
  - { offset: 0xF6B70, size: 0x8, addend: 0x0, symName: __ZN4grpc8internal29CancelInterceptorBatchMethods26QueryInterceptionHookPointENS_12experimental22InterceptionHookPointsE, symObjAddr: 0x174C, symBinAddr: 0xE5E4, symSize: 0xC }
  - { offset: 0xF6BA6, size: 0x8, addend: 0x0, symName: __ZN4grpc8internal29CancelInterceptorBatchMethods7ProceedEv, symObjAddr: 0x1758, symBinAddr: 0xE5F0, symSize: 0x4 }
  - { offset: 0xF6BCB, size: 0x8, addend: 0x0, symName: __ZN4grpc8internal29CancelInterceptorBatchMethods6HijackEv, symObjAddr: 0x175C, symBinAddr: 0xE5F4, symSize: 0x48 }
  - { offset: 0xF6D59, size: 0x8, addend: 0x0, symName: __ZN4absl12lts_2024011612log_internal10LogMessagelsILi73EEERS2_RAT__Kc, symObjAddr: 0x1BDC, symBinAddr: 0xEA74, symSize: 0x3C }
  - { offset: 0xF6E07, size: 0x8, addend: 0x0, symName: __ZN4grpc8internal29CancelInterceptorBatchMethods24GetSerializedSendMessageEv, symObjAddr: 0x17A4, symBinAddr: 0xE63C, symSize: 0x48 }
  - { offset: 0xF6EBC, size: 0x8, addend: 0x0, symName: __ZN4grpc8internal29CancelInterceptorBatchMethods14GetSendMessageEv, symObjAddr: 0x17EC, symBinAddr: 0xE684, symSize: 0x48 }
  - { offset: 0xF6F71, size: 0x8, addend: 0x0, symName: __ZN4grpc8internal29CancelInterceptorBatchMethods17ModifySendMessageEPKv, symObjAddr: 0x1834, symBinAddr: 0xE6CC, symSize: 0x48 }
  - { offset: 0xF7033, size: 0x8, addend: 0x0, symName: __ZN4grpc8internal29CancelInterceptorBatchMethods20GetSendMessageStatusEv, symObjAddr: 0x187C, symBinAddr: 0xE714, symSize: 0x48 }
  - { offset: 0xF70E8, size: 0x8, addend: 0x0, symName: __ZN4grpc8internal29CancelInterceptorBatchMethods22GetSendInitialMetadataEv, symObjAddr: 0x18C4, symBinAddr: 0xE75C, symSize: 0x48 }
  - { offset: 0xF7125, size: 0x8, addend: 0x0, symName: __ZN4grpc8internal29CancelInterceptorBatchMethods13GetSendStatusEv, symObjAddr: 0x190C, symBinAddr: 0xE7A4, symSize: 0x48 }
  - { offset: 0xF71DA, size: 0x8, addend: 0x0, symName: __ZN4grpc8internal29CancelInterceptorBatchMethods16ModifySendStatusERKNS_6StatusE, symObjAddr: 0x1954, symBinAddr: 0xE7EC, symSize: 0x48 }
  - { offset: 0xF729C, size: 0x8, addend: 0x0, symName: __ZN4grpc8internal29CancelInterceptorBatchMethods23GetSendTrailingMetadataEv, symObjAddr: 0x199C, symBinAddr: 0xE834, symSize: 0x48 }
  - { offset: 0xF7351, size: 0x8, addend: 0x0, symName: __ZN4grpc8internal29CancelInterceptorBatchMethods14GetRecvMessageEv, symObjAddr: 0x19E4, symBinAddr: 0xE87C, symSize: 0x48 }
  - { offset: 0xF738E, size: 0x8, addend: 0x0, symName: __ZN4grpc8internal29CancelInterceptorBatchMethods22GetRecvInitialMetadataEv, symObjAddr: 0x1A2C, symBinAddr: 0xE8C4, symSize: 0x48 }
  - { offset: 0xF73CB, size: 0x8, addend: 0x0, symName: __ZN4grpc8internal29CancelInterceptorBatchMethods13GetRecvStatusEv, symObjAddr: 0x1A74, symBinAddr: 0xE90C, symSize: 0x48 }
  - { offset: 0xF7408, size: 0x8, addend: 0x0, symName: __ZN4grpc8internal29CancelInterceptorBatchMethods23GetRecvTrailingMetadataEv, symObjAddr: 0x1ABC, symBinAddr: 0xE954, symSize: 0x48 }
  - { offset: 0xF7445, size: 0x8, addend: 0x0, symName: __ZN4grpc8internal29CancelInterceptorBatchMethods21GetInterceptedChannelEv, symObjAddr: 0x1B04, symBinAddr: 0xE99C, symSize: 0x48 }
  - { offset: 0xF74FA, size: 0x8, addend: 0x0, symName: __ZN4grpc8internal29CancelInterceptorBatchMethods23FailHijackedRecvMessageEv, symObjAddr: 0x1B4C, symBinAddr: 0xE9E4, symSize: 0x48 }
  - { offset: 0xF7537, size: 0x8, addend: 0x0, symName: __ZN4grpc8internal29CancelInterceptorBatchMethods23FailHijackedSendMessageEv, symObjAddr: 0x1B94, symBinAddr: 0xEA2C, symSize: 0x48 }
  - { offset: 0xF7A56, size: 0x8, addend: 0x0, symName: __ZNSt3__16__treeINS_12__value_typeINS_12basic_stringIcNS_11char_traitsIcEENS_9allocatorIcEEEES7_EENS_19__map_value_compareIS7_S8_NS_4lessIS7_EELb1EEENS5_IS8_EEE16__find_leaf_highERPNS_15__tree_end_nodeIPNS_16__tree_node_baseIPvEEEERKS7_, symObjAddr: 0x2100, symBinAddr: 0xEC00, symSize: 0x78 }
  - { offset: 0xF7B5E, size: 0x8, addend: 0x0, symName: __ZNSt3__110unique_ptrINS_11__tree_nodeINS_12__value_typeINS_12basic_stringIcNS_11char_traitsIcEENS_9allocatorIcEEEES8_EEPvEENS_22__tree_node_destructorINS6_ISB_EEEEE5resetB8ne180100EPSB_, symObjAddr: 0x23CC, symBinAddr: 0xECE0, symSize: 0x44 }
  - { offset: 0xF7CF9, size: 0x8, addend: 0x0, symName: __ZNKSt3__14lessINS_12basic_stringIcNS_11char_traitsIcEENS_9allocatorIcEEEEEclB8ne180100ERKS6_S9_, symObjAddr: 0x21CC, symBinAddr: 0xEC78, symSize: 0x68 }
  - { offset: 0xF9E69, size: 0x8, addend: 0x0, symName: __ZN4grpc12experimental38RegisterGlobalClientInterceptorFactoryEPNS0_33ClientInterceptorFactoryInterfaceE, symObjAddr: 0x0, symBinAddr: 0xED5C, symSize: 0x3C }
  - { offset: 0xF9E8D, size: 0x8, addend: 0x0, symName: __ZN4grpc8internal35g_global_client_interceptor_factoryE, symObjAddr: 0x33E58, symBinAddr: 0x49270, symSize: 0x0 }
  - { offset: 0xF9EA1, size: 0x8, addend: 0x0, symName: __ZN4grpc12experimental38RegisterGlobalClientInterceptorFactoryEPNS0_33ClientInterceptorFactoryInterfaceE, symObjAddr: 0x0, symBinAddr: 0xED5C, symSize: 0x3C }
  - { offset: 0xF9ECF, size: 0x8, addend: 0x0, symName: __ZN4grpc12experimental43TestOnlyResetGlobalClientInterceptorFactoryEv, symObjAddr: 0x3C, symBinAddr: 0xED98, symSize: 0xC }
  - { offset: 0xF9EE9, size: 0x8, addend: 0x0, symName: __ZN4grpc12experimental43TestOnlyResetGlobalClientInterceptorFactoryEv, symObjAddr: 0x3C, symBinAddr: 0xED98, symSize: 0xC }
  - { offset: 0xFE20D, size: 0x8, addend: 0x0, symName: __ZN4grpc8internal43RegisterGlobalClientStatsInterceptorFactoryEPNS_12experimental33ClientInterceptorFactoryInterfaceE, symObjAddr: 0x0, symBinAddr: 0xEDA4, symSize: 0x44 }
  - { offset: 0xFE231, size: 0x8, addend: 0x0, symName: __ZN4grpc8internal41g_global_client_stats_interceptor_factoryE, symObjAddr: 0x33D80, symBinAddr: 0x49278, symSize: 0x0 }
  - { offset: 0xFE23F, size: 0x8, addend: 0x0, symName: __ZN4grpc8internal43RegisterGlobalClientStatsInterceptorFactoryEPNS_12experimental33ClientInterceptorFactoryInterfaceE, symObjAddr: 0x0, symBinAddr: 0xEDA4, symSize: 0x44 }
  - { offset: 0x1025B1, size: 0x8, addend: 0x0, symName: __ZN4grpc12_GLOBAL__N_125g_callback_alternative_cqE.0, symObjAddr: 0x3AB48, symBinAddr: 0x491C0, symSize: 0x0 }
  - { offset: 0x1025BE, size: 0x8, addend: 0x0, symName: __ZN4grpc12_GLOBAL__N_125g_callback_alternative_cqE.1, symObjAddr: 0x3AB50, symBinAddr: 0x491C8, symSize: 0x0 }
  - { offset: 0x1025C9, size: 0x8, addend: 0x0, symName: __ZN4grpc12_GLOBAL__N_125g_callback_alternative_cqE.2, symObjAddr: 0x3AB58, symBinAddr: 0x491D0, symSize: 0x0 }
  - { offset: 0x10263B, size: 0x8, addend: 0x0, symName: __ZN4grpc12_GLOBAL__N_132g_once_init_callback_alternativeE, symObjAddr: 0x1160, symBinAddr: 0x48FF8, symSize: 0x0 }
  - { offset: 0x102655, size: 0x8, addend: 0x0, symName: __ZN4grpc12_GLOBAL__N_125g_callback_alternative_muE, symObjAddr: 0x3AB60, symBinAddr: 0x491D8, symSize: 0x0 }
  - { offset: 0x1081A3, size: 0x8, addend: 0x0, symName: __ZNSt3__16vectorIN9grpc_core6ThreadENS_9allocatorIS2_EEE26__swap_out_circular_bufferERNS_14__split_bufferIS2_RS4_EE, symObjAddr: 0x9E0, symBinAddr: 0xF620, symSize: 0x9C }
  - { offset: 0x108613, size: 0x8, addend: 0x0, symName: __ZN4grpc15CompletionQueueC2EP21grpc_completion_queue, symObjAddr: 0x0, symBinAddr: 0xEDE8, symSize: 0x6C }
  - { offset: 0x10881B, size: 0x8, addend: 0x0, symName: __ZN4grpc15CompletionQueueC1EP21grpc_completion_queue, symObjAddr: 0xAC, symBinAddr: 0xEE54, symSize: 0x4 }
  - { offset: 0x108857, size: 0x8, addend: 0x0, symName: __ZN4grpc15CompletionQueueC1EP21grpc_completion_queue, symObjAddr: 0xAC, symBinAddr: 0xEE54, symSize: 0x4 }
  - { offset: 0x1088C0, size: 0x8, addend: 0x0, symName: __ZN4grpc15CompletionQueue8ShutdownEv, symObjAddr: 0xB0, symBinAddr: 0xEE58, symSize: 0x94 }
  - { offset: 0x10894F, size: 0x8, addend: 0x0, symName: __ZNK4grpc15CompletionQueue15ServerListEmptyEv, symObjAddr: 0x144, symBinAddr: 0xEEEC, symSize: 0x40 }
  - { offset: 0x108B7A, size: 0x8, addend: 0x0, symName: __ZN4grpc15CompletionQueue17AsyncNextInternalEPPvPb12gpr_timespec, symObjAddr: 0x184, symBinAddr: 0xEF2C, symSize: 0xA4 }
  - { offset: 0x108CAB, size: 0x8, addend: 0x0, symName: __ZN4grpc15CompletionQueue23CompletionQueueTLSCacheC2EPS0_, symObjAddr: 0x228, symBinAddr: 0xEFD0, symSize: 0x30 }
  - { offset: 0x108D1D, size: 0x8, addend: 0x0, symName: __ZN4grpc15CompletionQueue23CompletionQueueTLSCacheC1EPS0_, symObjAddr: 0x258, symBinAddr: 0xF000, symSize: 0x30 }
  - { offset: 0x108D8B, size: 0x8, addend: 0x0, symName: __ZN4grpc15CompletionQueue23CompletionQueueTLSCacheD2Ev, symObjAddr: 0x288, symBinAddr: 0xF030, symSize: 0x4C }
  - { offset: 0x108DB8, size: 0x8, addend: 0x0, symName: __ZN4grpc15CompletionQueue23CompletionQueueTLSCacheD1Ev, symObjAddr: 0x2E4, symBinAddr: 0xF07C, symSize: 0x4 }
  - { offset: 0x108DE6, size: 0x8, addend: 0x0, symName: __ZN4grpc15CompletionQueue23CompletionQueueTLSCacheD1Ev, symObjAddr: 0x2E4, symBinAddr: 0xF07C, symSize: 0x4 }
  - { offset: 0x108DFA, size: 0x8, addend: 0x0, symName: __ZN4grpc15CompletionQueue23CompletionQueueTLSCache5FlushEPPvPb, symObjAddr: 0x2E8, symBinAddr: 0xF080, symSize: 0x84 }
  - { offset: 0x109579, size: 0x8, addend: 0x0, symName: __ZN4grpc15CompletionQueue21CallbackAlternativeCQEv, symObjAddr: 0x36C, symBinAddr: 0xF104, symSize: 0x2A0 }
  - { offset: 0x109E56, size: 0x8, addend: 0x0, symName: __ZNSt3__114__split_bufferIN9grpc_core6ThreadERNS_9allocatorIS2_EEED2Ev, symObjAddr: 0xBB4, symBinAddr: 0xF710, symSize: 0x4C }
  - { offset: 0x109FE1, size: 0x8, addend: 0x0, symName: __ZN9grpc_core6Thread5StartEv, symObjAddr: 0x7D4, symBinAddr: 0xF4DC, symSize: 0x64 }
  - { offset: 0x10A13A, size: 0x8, addend: 0x0, symName: __ZN4grpc15CompletionQueue28ReleaseCallbackAlternativeCQEPS0_, symObjAddr: 0x60C, symBinAddr: 0xF3A4, symSize: 0xF4 }
  - { offset: 0x10A3DF, size: 0x8, addend: 0x0, symName: __ZN9grpc_core6Thread4JoinEv, symObjAddr: 0xC00, symBinAddr: 0xF75C, symSize: 0x70 }
  - { offset: 0x10A421, size: 0x8, addend: 0x0, symName: __ZNSt3__16vectorIN9grpc_core6ThreadENS_9allocatorIS2_EEE16__destroy_vectorclB8ne180100Ev, symObjAddr: 0xC70, symBinAddr: 0xF7CC, symSize: 0x70 }
  - { offset: 0x10A434, size: 0x8, addend: 0x0, symName: __ZNSt3__16vectorIN9grpc_core6ThreadENS_9allocatorIS2_EEE16__destroy_vectorclB8ne180100Ev, symObjAddr: 0xC70, symBinAddr: 0xF7CC, symSize: 0x70 }
  - { offset: 0x10A5A9, size: 0x8, addend: 0x0, symName: __ZN4grpc15CompletionQueue28ReleaseCallbackAlternativeCQEPS0_.cold.1, symObjAddr: 0xD30, symBinAddr: 0x2FB6C, symSize: 0x28 }
  - { offset: 0x10A7E2, size: 0x8, addend: 0x0, symName: '__ZZN4grpc15CompletionQueue21CallbackAlternativeCQEvEN3$_08__invokeEv', symObjAddr: 0x790, symBinAddr: 0xF498, symSize: 0x44 }
  - { offset: 0x10A851, size: 0x8, addend: 0x0, symName: __ZN9grpc_core6Thread5StartEv.cold.2, symObjAddr: 0xD80, symBinAddr: 0x2FBBC, symSize: 0x28 }
  - { offset: 0x10A869, size: 0x8, addend: 0x0, symName: __ZN9grpc_core6Thread5StartEv.cold.1, symObjAddr: 0xD58, symBinAddr: 0x2FB94, symSize: 0x28 }
  - { offset: 0x10A9E1, size: 0x8, addend: 0x0, symName: __ZZN4grpc12_GLOBAL__N_121CallbackAlternativeCQ3RefEvENUlPvE_8__invokeES2_, symObjAddr: 0x900, symBinAddr: 0xF540, symSize: 0xE0 }
  - { offset: 0x10AB26, size: 0x8, addend: 0x0, symName: __ZNSt3__16vectorIN9grpc_core6ThreadENS_9allocatorIS2_EEE26__swap_out_circular_bufferERNS_14__split_bufferIS2_RS4_EE, symObjAddr: 0x9E0, symBinAddr: 0xF620, symSize: 0x9C }
  - { offset: 0x10AB86, size: 0x8, addend: 0x0, symName: __ZZN4grpc12_GLOBAL__N_121CallbackAlternativeCQ3RefEvENUlPvE_8__invokeES2_.cold.1, symObjAddr: 0xDA8, symBinAddr: 0x2FBE4, symSize: 0x28 }
  - { offset: 0x10AD4D, size: 0x8, addend: 0x0, symName: __ZN9grpc_core6ThreadD2Ev, symObjAddr: 0xB60, symBinAddr: 0xF6BC, symSize: 0x54 }
  - { offset: 0x10AEB6, size: 0x8, addend: 0x0, symName: __ZN9grpc_core6Thread4JoinEv.cold.1, symObjAddr: 0xDD0, symBinAddr: 0x2FC0C, symSize: 0x28 }
  - { offset: 0x10D3CC, size: 0x8, addend: 0x0, symName: __ZN4grpc12experimental35CreateCustomChannelWithInterceptorsERKNSt3__112basic_stringIcNS1_11char_traitsIcEENS1_9allocatorIcEEEERKNS1_10shared_ptrINS_18ChannelCredentialsEEERKNS_16ChannelArgumentsENS1_6vectorINS1_10unique_ptrINS0_33ClientInterceptorFactoryInterfaceENS1_14default_deleteISK_EEEENS5_ISN_EEEE, symObjAddr: 0x1A4, symBinAddr: 0xF9DC, symSize: 0x184 }
  - { offset: 0x10DB69, size: 0x8, addend: 0x0, symName: __ZN4grpc13CreateChannelERKNSt3__112basic_stringIcNS0_11char_traitsIcEENS0_9allocatorIcEEEERKNS0_10shared_ptrINS_18ChannelCredentialsEEE, symObjAddr: 0x0, symBinAddr: 0xF83C, symSize: 0x6C }
  - { offset: 0x10DBD3, size: 0x8, addend: 0x0, symName: __ZN4grpc19CreateCustomChannelERKNSt3__112basic_stringIcNS0_11char_traitsIcEENS0_9allocatorIcEEEERKNS0_10shared_ptrINS_18ChannelCredentialsEEERKNS_16ChannelArgumentsE, symObjAddr: 0x6C, symBinAddr: 0xF8A8, symSize: 0x134 }
  - { offset: 0x1171EE, size: 0x8, addend: 0x0, symName: __ZN4grpc21CreateChannelInternalERKNSt3__112basic_stringIcNS0_11char_traitsIcEENS0_9allocatorIcEEEEP12grpc_channelNS0_6vectorINS0_10unique_ptrINS_12experimental33ClientInterceptorFactoryInterfaceENS0_14default_deleteISE_EEEENS4_ISH_EEEE, symObjAddr: 0x0, symBinAddr: 0xFB60, symSize: 0xCC }
  - { offset: 0x117A0E, size: 0x8, addend: 0x0, symName: __ZN4grpc21CreateChannelInternalERKNSt3__112basic_stringIcNS0_11char_traitsIcEENS0_9allocatorIcEEEEP12grpc_channelNS0_6vectorINS0_10unique_ptrINS_12experimental33ClientInterceptorFactoryInterfaceENS0_14default_deleteISE_EEEENS4_ISH_EEEE, symObjAddr: 0x0, symBinAddr: 0xFB60, symSize: 0xCC }
  - { offset: 0x11CD8E, size: 0x8, addend: 0x0, symName: __ZNSt3__110shared_ptrIN4grpc7ChannelEE18__enable_weak_thisB8ne180100IS2_S2_vEEvPKNS_23enable_shared_from_thisIT_EEPT0_, symObjAddr: 0x1C4, symBinAddr: 0xFCA8, symSize: 0xB0 }
  - { offset: 0x11D1A3, size: 0x8, addend: 0x0, symName: __ZNSt3__110shared_ptrIN4grpc7ChannelEEC2B8ne180100IS2_vEEPT_, symObjAddr: 0x148, symBinAddr: 0xFC2C, symSize: 0x7C }
  - { offset: 0x11DAD8, size: 0x8, addend: 0x0, symName: __ZNSt3__120__shared_ptr_pointerIPN4grpc7ChannelENS_10shared_ptrIS2_E27__shared_ptr_default_deleteIS2_S2_EENS_9allocatorIS2_EEED1Ev, symObjAddr: 0x274, symBinAddr: 0xFD58, symSize: 0x4 }
  - { offset: 0x11DAFA, size: 0x8, addend: 0x0, symName: __ZNSt3__120__shared_ptr_pointerIPN4grpc7ChannelENS_10shared_ptrIS2_E27__shared_ptr_default_deleteIS2_S2_EENS_9allocatorIS2_EEED1Ev, symObjAddr: 0x274, symBinAddr: 0xFD58, symSize: 0x4 }
  - { offset: 0x11DB30, size: 0x8, addend: 0x0, symName: __ZNSt3__120__shared_ptr_pointerIPN4grpc7ChannelENS_10shared_ptrIS2_E27__shared_ptr_default_deleteIS2_S2_EENS_9allocatorIS2_EEED0Ev, symObjAddr: 0x278, symBinAddr: 0xFD5C, symSize: 0x14 }
  - { offset: 0x11DB93, size: 0x8, addend: 0x0, symName: __ZNSt3__120__shared_ptr_pointerIPN4grpc7ChannelENS_10shared_ptrIS2_E27__shared_ptr_default_deleteIS2_S2_EENS_9allocatorIS2_EEE16__on_zero_sharedEv, symObjAddr: 0x28C, symBinAddr: 0xFD70, symSize: 0x24 }
  - { offset: 0x11DBD7, size: 0x8, addend: 0x0, symName: __ZNKSt3__120__shared_ptr_pointerIPN4grpc7ChannelENS_10shared_ptrIS2_E27__shared_ptr_default_deleteIS2_S2_EENS_9allocatorIS2_EEE13__get_deleterERKSt9type_info, symObjAddr: 0x2B0, symBinAddr: 0xFD94, symSize: 0x3C }
  - { offset: 0x11DCE3, size: 0x8, addend: 0x0, symName: __ZNSt3__120__shared_ptr_pointerIPN4grpc7ChannelENS_10shared_ptrIS2_E27__shared_ptr_default_deleteIS2_S2_EENS_9allocatorIS2_EEE21__on_zero_shared_weakEv, symObjAddr: 0x2EC, symBinAddr: 0xFDD0, symSize: 0x4 }
  - { offset: 0x11DD17, size: 0x8, addend: 0x0, symName: __ZNSt3__120__shared_ptr_pointerIPN4grpc7ChannelENS_10shared_ptrIS2_E27__shared_ptr_default_deleteIS2_S2_EENS_9allocatorIS2_EEE21__on_zero_shared_weakEv, symObjAddr: 0x2EC, symBinAddr: 0xFDD0, symSize: 0x4 }
  - { offset: 0x11DD39, size: 0x8, addend: 0x0, symName: __ZNSt3__120__shared_ptr_pointerIPN4grpc7ChannelENS_10shared_ptrIS2_E27__shared_ptr_default_deleteIS2_S2_EENS_9allocatorIS2_EEE21__on_zero_shared_weakEv, symObjAddr: 0x2EC, symBinAddr: 0xFDD0, symSize: 0x4 }
  - { offset: 0x11DD65, size: 0x8, addend: 0x0, symName: __ZNSt3__120__shared_ptr_pointerIPN4grpc7ChannelENS_10shared_ptrIS2_E27__shared_ptr_default_deleteIS2_S2_EENS_9allocatorIS2_EEE21__on_zero_shared_weakEv, symObjAddr: 0x2EC, symBinAddr: 0xFDD0, symSize: 0x4 }
  - { offset: 0x11DD8B, size: 0x8, addend: 0x0, symName: __ZNSt3__120__shared_ptr_pointerIPN4grpc7ChannelENS_10shared_ptrIS2_E27__shared_ptr_default_deleteIS2_S2_EENS_9allocatorIS2_EEE21__on_zero_shared_weakEv, symObjAddr: 0x2EC, symBinAddr: 0xFDD0, symSize: 0x4 }
  - { offset: 0x122271, size: 0x8, addend: 0x0, symName: __ZN4grpc12_GLOBAL__N_110g_ctp_implE, symObjAddr: 0x3D0, symBinAddr: 0x49008, symSize: 0x0 }
  - { offset: 0x12227F, size: 0x8, addend: 0x0, symName: __ZN4grpc12_GLOBAL__N_127CreateDefaultThreadPoolImplEv, symObjAddr: 0x18, symBinAddr: 0xFDEC, symSize: 0x68 }
  - { offset: 0x122345, size: 0x8, addend: 0x0, symName: __ZN4grpc23CreateDefaultThreadPoolEv, symObjAddr: 0x0, symBinAddr: 0xFDD4, symSize: 0xC }
  - { offset: 0x122370, size: 0x8, addend: 0x0, symName: __ZN4grpc19SetCreateThreadPoolEPFPNS_19ThreadPoolInterfaceEvE, symObjAddr: 0xC, symBinAddr: 0xFDE0, symSize: 0xC }
  - { offset: 0x122739, size: 0x8, addend: 0x0, symName: __ZN4absl12lts_2024011622internal_any_invocable13RemoteInvokerILb0EvRNSt3__18functionIFvvEEEJEEET0_PNS1_15TypeErasedStateEDpNS1_18ForwardedParameterIT2_E4typeE, symObjAddr: 0x210, symBinAddr: 0xFF8C, symSize: 0x28 }
  - { offset: 0x122829, size: 0x8, addend: 0x0, symName: __ZN4absl12lts_2024011622internal_any_invocable23RemoteManagerNontrivialINSt3__18functionIFvvEEEEEvNS1_14FunctionToCallEPNS1_15TypeErasedStateES9_, symObjAddr: 0x238, symBinAddr: 0xFFB4, symSize: 0x64 }
  - { offset: 0x122934, size: 0x8, addend: 0x0, symName: __ZN4absl12lts_2024011622internal_any_invocable23RemoteManagerNontrivialINSt3__18functionIFvvEEEEEvNS1_14FunctionToCallEPNS1_15TypeErasedStateES9_, symObjAddr: 0x238, symBinAddr: 0xFFB4, symSize: 0x64 }
  - { offset: 0x1231C8, size: 0x8, addend: 0x0, symName: __ZN4grpc17DynamicThreadPoolD1Ev, symObjAddr: 0x80, symBinAddr: 0xFE54, symSize: 0x28 }
  - { offset: 0x1232A8, size: 0x8, addend: 0x0, symName: __ZN4grpc17DynamicThreadPoolD0Ev, symObjAddr: 0xA8, symBinAddr: 0xFE7C, symSize: 0x28 }
  - { offset: 0x123538, size: 0x8, addend: 0x0, symName: __ZN4grpc17DynamicThreadPool3AddERKNSt3__18functionIFvvEEE, symObjAddr: 0xD0, symBinAddr: 0xFEA4, symSize: 0x88 }
  - { offset: 0x1237CE, size: 0x8, addend: 0x0, symName: __ZN4absl12lts_2024011622internal_any_invocable8CoreImplILb0EvJEE23InitializeRemoteManagerINSt3__18functionIFvvEEEJRKS8_ELi0EEEvDpOT0_, symObjAddr: 0x1B0, symBinAddr: 0xFF2C, symSize: 0x60 }
  - { offset: 0x12394E, size: 0x8, addend: 0x0, symName: __ZNSt3__110__function12__value_funcIFvvEEC2B8ne180100ERKS3_, symObjAddr: 0x29C, symBinAddr: 0x10018, symSize: 0x64 }
  - { offset: 0x125A93, size: 0x8, addend: 0x0, symName: __ZN4grpc12_GLOBAL__N_122kHealthCheckMethodNameE, symObjAddr: 0xD40A, symBinAddr: 0x33910, symSize: 0x0 }
  - { offset: 0x125AAD, size: 0x8, addend: 0x0, symName: __ZN4grpc12_GLOBAL__N_122kHealthWatchMethodNameE, symObjAddr: 0xD427, symBinAddr: 0x3392D, symSize: 0x0 }
  - { offset: 0x12711F, size: 0x8, addend: 0x0, symName: __ZN4grpc8internalL22kBinaryErrorDetailsKeyE, symObjAddr: 0xDBA1, symBinAddr: 0x33EDF, symSize: 0x0 }
  - { offset: 0x127A31, size: 0x8, addend: 0x0, symName: __ZN4grpc8internal21CatchingReactorGetterINS_18ServerUnaryReactorERNSt3__18functionIFPS2_PNS_21CallbackServerContextEPKNS_10ByteBufferEPS8_EEEJS7_SA_SB_EEEPT_OT0_DpOT1_, symObjAddr: 0x53B4, symBinAddr: 0x13E50, symSize: 0x30 }
  - { offset: 0x127CA9, size: 0x8, addend: 0x0, symName: __ZN4grpc8internal17FillMetadataArrayERKNSt3__18multimapINS1_12basic_stringIcNS1_11char_traitsIcEENS1_9allocatorIcEEEES8_NS1_4lessIS8_EENS6_INS1_4pairIKS8_S8_EEEEEEPmRSC_, symObjAddr: 0x6D1C, symBinAddr: 0x155B8, symSize: 0x1E0 }
  - { offset: 0x12809E, size: 0x8, addend: 0x0, symName: __ZN4grpc8internal16CatchingCallbackIRNSt3__18functionIFvbEEEJRbEEEvOT_DpOT0_, symObjAddr: 0x80AC, symBinAddr: 0x16854, symSize: 0x4C }
  - { offset: 0x1281B2, size: 0x8, addend: 0x0, symName: __ZN4grpc8internal21CatchingReactorGetterINS_18ServerWriteReactorINS_10ByteBufferEEERNSt3__18functionIFPS4_PNS_21CallbackServerContextEPKS3_EEEJS9_SB_EEEPT_OT0_DpOT1_, symObjAddr: 0x8F90, symBinAddr: 0x17738, symSize: 0x2C }
  - { offset: 0x1402E1, size: 0x8, addend: 0x0, symName: __ZNSt3__1L19piecewise_constructE, symObjAddr: 0xD6E4, symBinAddr: 0x33B62, symSize: 0x0 }
  - { offset: 0x149332, size: 0x8, addend: 0x0, symName: __ZNSt3__112__destroy_atB8ne180100INS_4pairIKNS_12basic_stringIcNS_11char_traitsIcEENS_9allocatorIcEEEEN4grpc25DefaultHealthCheckService11ServiceDataEEELi0EEEvPT_, symObjAddr: 0x400C, symBinAddr: 0x1328C, symSize: 0x40 }
  - { offset: 0x1507FE, size: 0x8, addend: 0x0, symName: __ZN4absl12lts_2024011622internal_any_invocable12EmptyManagerENS1_14FunctionToCallEPNS1_15TypeErasedStateES4_, symObjAddr: 0x7E2C, symBinAddr: 0x16664, symSize: 0x4 }
  - { offset: 0x153223, size: 0x8, addend: 0x0, symName: __ZN4grpc25DefaultHealthCheckService22HealthCheckServiceImpl12WatchReactorC1EPS1_PKNS_10ByteBufferE, symObjAddr: 0x1F98, symBinAddr: 0x11FD0, symSize: 0x4 }
  - { offset: 0x153270, size: 0x8, addend: 0x0, symName: __ZN4grpc25DefaultHealthCheckService22HealthCheckServiceImpl12WatchReactorC1EPS1_PKNS_10ByteBufferE, symObjAddr: 0x1F98, symBinAddr: 0x11FD0, symSize: 0x4 }
  - { offset: 0x15331F, size: 0x8, addend: 0x0, symName: __ZN4grpc25DefaultHealthCheckService22HealthCheckServiceImpl12WatchReactor10SendHealthENS0_13ServingStatusE, symObjAddr: 0x4F0, symBinAddr: 0x105A0, symSize: 0x240 }
  - { offset: 0x15377E, size: 0x8, addend: 0x0, symName: __ZN4grpc25DefaultHealthCheckService22HealthCheckServiceImpl12WatchReactor16SendHealthLockedENS0_13ServingStatusE, symObjAddr: 0x2004, symBinAddr: 0x1203C, symSize: 0x300 }
  - { offset: 0x15488C, size: 0x8, addend: 0x0, symName: __ZN4grpc25DefaultHealthCheckService22HealthCheckServiceImpl12WatchReactor11OnWriteDoneEb, symObjAddr: 0x2304, symBinAddr: 0x1233C, symSize: 0x22C }
  - { offset: 0x15526E, size: 0x8, addend: 0x0, symName: __ZN4grpc25DefaultHealthCheckService22HealthCheckServiceImpl12WatchReactor6OnDoneEv, symObjAddr: 0x2634, symBinAddr: 0x1266C, symSize: 0x184 }
  - { offset: 0x1555E1, size: 0x8, addend: 0x0, symName: __ZN4grpc25DefaultHealthCheckService22HealthCheckServiceImpl12WatchReactor17MaybeFinishLockedENS_6StatusE, symObjAddr: 0x1C08, symBinAddr: 0x11C40, symSize: 0x334 }
  - { offset: 0x156157, size: 0x8, addend: 0x0, symName: __ZN4grpc8internal9CallOpSetINS0_25CallOpSendInitialMetadataENS0_8CallNoOpILi2EEENS3_ILi3EEENS3_ILi4EEENS3_ILi5EEENS3_ILi6EEEE32ContinueFillOpsAfterInterceptionEv, symObjAddr: 0x5DC0, symBinAddr: 0x147F8, symSize: 0x124 }
  - { offset: 0x1562EE, size: 0x8, addend: 0x0, symName: __ZN4grpc8internal9CallOpSetINS0_25CallOpSendInitialMetadataENS0_17CallOpSendMessageENS0_22CallOpServerSendStatusENS0_8CallNoOpILi4EEENS5_ILi5EEENS5_ILi6EEEE32ContinueFillOpsAfterInterceptionEv, symObjAddr: 0x71A0, symBinAddr: 0x15A3C, symSize: 0x144 }
  - { offset: 0x1564A4, size: 0x8, addend: 0x0, symName: __ZN4grpc8internal9CallOpSetINS0_25CallOpSendInitialMetadataENS0_17CallOpSendMessageENS0_8CallNoOpILi3EEENS4_ILi4EEENS4_ILi5EEENS4_ILi6EEEE32ContinueFillOpsAfterInterceptionEv, symObjAddr: 0x9B0C, symBinAddr: 0x182B4, symSize: 0x134 }
  - { offset: 0x156AAB, size: 0x8, addend: 0x0, symName: __ZN4grpc25DefaultHealthCheckService22HealthCheckServiceImplC1EPS0_, symObjAddr: 0xDC4, symBinAddr: 0x10E74, symSize: 0x4 }
  - { offset: 0x156B3A, size: 0x8, addend: 0x0, symName: __ZN4grpc25DefaultHealthCheckService22HealthCheckServiceImplC1EPS0_, symObjAddr: 0xDC4, symBinAddr: 0x10E74, symSize: 0x4 }
  - { offset: 0x156E50, size: 0x8, addend: 0x0, symName: __ZN4grpc8internal20CallbackUnaryHandlerINS_10ByteBufferES2_E23ServerCallbackUnaryImpl6FinishENS_6StatusE, symObjAddr: 0x58E8, symBinAddr: 0x14320, symSize: 0x1FC }
  - { offset: 0x157A2B, size: 0x8, addend: 0x0, symName: __ZN4grpc8internal20CallbackUnaryHandlerINS_10ByteBufferES2_E23ServerCallbackUnaryImpl19SendInitialMetadataEv, symObjAddr: 0x5AE4, symBinAddr: 0x1451C, symSize: 0x174 }
  - { offset: 0x157FD1, size: 0x8, addend: 0x0, symName: __ZN4grpc8internal20CallbackUnaryHandlerINS_10ByteBufferES2_E10RunHandlerERKNS0_13MethodHandler16HandlerParameterE, symObjAddr: 0x4F5C, symBinAddr: 0x139F8, symSize: 0x2A0 }
  - { offset: 0x1590FB, size: 0x8, addend: 0x0, symName: __ZN4grpc8internal30CallbackServerStreamingHandlerINS_10ByteBufferES2_E24ServerCallbackWriterImpl6FinishENS_6StatusE, symObjAddr: 0x9454, symBinAddr: 0x17BFC, symSize: 0x16C }
  - { offset: 0x159652, size: 0x8, addend: 0x0, symName: __ZN4grpc8internal30CallbackServerStreamingHandlerINS_10ByteBufferES2_E24ServerCallbackWriterImpl19SendInitialMetadataEv, symObjAddr: 0x95C0, symBinAddr: 0x17D68, symSize: 0x174 }
  - { offset: 0x159C05, size: 0x8, addend: 0x0, symName: __ZN4grpc8internal30CallbackServerStreamingHandlerINS_10ByteBufferES2_E10RunHandlerERKNS0_13MethodHandler16HandlerParameterE, symObjAddr: 0x8B78, symBinAddr: 0x17320, symSize: 0x298 }
  - { offset: 0x15AA35, size: 0x8, addend: 0x0, symName: __ZN4grpc8internal30CallbackServerStreamingHandlerINS_10ByteBufferES2_E24ServerCallbackWriterImpl12SetupReactorEPNS_18ServerWriteReactorIS2_EE, symObjAddr: 0x8FBC, symBinAddr: 0x17764, symSize: 0x164 }
  - { offset: 0x15B564, size: 0x8, addend: 0x0, symName: __ZN4grpc25DefaultHealthCheckServiceC2Ev, symObjAddr: 0x0, symBinAddr: 0x100B0, symSize: 0x10C }
  - { offset: 0x15BD41, size: 0x8, addend: 0x0, symName: __ZNSt3__16__treeINS_12__value_typeINS_12basic_stringIcNS_11char_traitsIcEENS_9allocatorIcEEEEN4grpc25DefaultHealthCheckService11ServiceDataEEENS_19__map_value_compareIS7_SB_NS_4lessIS7_EELb1EEENS5_ISB_EEE7destroyEPNS_11__tree_nodeISB_PvEE, symObjAddr: 0x3FC4, symBinAddr: 0x13244, symSize: 0x48 }
  - { offset: 0x15BD6B, size: 0x8, addend: 0x0, symName: __ZNSt3__16__treeINS_12__value_typeINS_12basic_stringIcNS_11char_traitsIcEENS_9allocatorIcEEEEN4grpc25DefaultHealthCheckService11ServiceDataEEENS_19__map_value_compareIS7_SB_NS_4lessIS7_EELb1EEENS5_ISB_EEE25__emplace_unique_key_argsIS7_JRKNS_21piecewise_construct_tENS_5tupleIJOS7_EEENSM_IJEEEEEENS_4pairINS_15__tree_iteratorISB_PNS_11__tree_nodeISB_PvEElEEbEERKT_DpOT0_, symObjAddr: 0x4094, symBinAddr: 0x13314, symSize: 0xD0 }
  - { offset: 0x15C235, size: 0x8, addend: 0x0, symName: __ZN4grpc25DefaultHealthCheckService11ServiceData16SetServingStatusENS0_13ServingStatusE, symObjAddr: 0x10C, symBinAddr: 0x101BC, symSize: 0x7C }
  - { offset: 0x15C3F7, size: 0x8, addend: 0x0, symName: __ZNSt3__16__treeINS_12__value_typeINS_12basic_stringIcNS_11char_traitsIcEENS_9allocatorIcEEEEN4grpc25DefaultHealthCheckService11ServiceDataEEENS_19__map_value_compareIS7_SB_NS_4lessIS7_EELb1EEENS5_ISB_EEE7destroyEPNS_11__tree_nodeISB_PvEE, symObjAddr: 0x3FC4, symBinAddr: 0x13244, symSize: 0x48 }
  - { offset: 0x15C623, size: 0x8, addend: 0x0, symName: __ZN4grpc25DefaultHealthCheckServiceC1Ev, symObjAddr: 0x188, symBinAddr: 0x10238, symSize: 0x4 }
  - { offset: 0x15C651, size: 0x8, addend: 0x0, symName: __ZN4grpc25DefaultHealthCheckServiceC1Ev, symObjAddr: 0x188, symBinAddr: 0x10238, symSize: 0x4 }
  - { offset: 0x15C738, size: 0x8, addend: 0x0, symName: __ZN4grpc25DefaultHealthCheckService16SetServingStatusERKNSt3__112basic_stringIcNS1_11char_traitsIcEENS1_9allocatorIcEEEEb, symObjAddr: 0x18C, symBinAddr: 0x1023C, symSize: 0xAC }
  - { offset: 0x15C90A, size: 0x8, addend: 0x0, symName: __ZNSt3__16__treeINS_12__value_typeINS_12basic_stringIcNS_11char_traitsIcEENS_9allocatorIcEEEEN4grpc25DefaultHealthCheckService11ServiceDataEEENS_19__map_value_compareIS7_SB_NS_4lessIS7_EELb1EEENS5_ISB_EEE25__emplace_unique_key_argsIS7_JRKNS_21piecewise_construct_tENS_5tupleIJRKS7_EEENSM_IJEEEEEENS_4pairINS_15__tree_iteratorISB_PNS_11__tree_nodeISB_PvEElEEbEERKT_DpOT0_, symObjAddr: 0x4498, symBinAddr: 0x134C4, symSize: 0xA8 }
  - { offset: 0x15CBB2, size: 0x8, addend: 0x0, symName: __ZN4grpc25DefaultHealthCheckService16SetServingStatusEb, symObjAddr: 0x238, symBinAddr: 0x102E8, symSize: 0xBC }
  - { offset: 0x15CED3, size: 0x8, addend: 0x0, symName: __ZN4grpc25DefaultHealthCheckService8ShutdownEv, symObjAddr: 0x2F4, symBinAddr: 0x103A4, symSize: 0xB8 }
  - { offset: 0x15D257, size: 0x8, addend: 0x0, symName: __ZNK4grpc25DefaultHealthCheckService16GetServingStatusERKNSt3__112basic_stringIcNS1_11char_traitsIcEENS1_9allocatorIcEEEE, symObjAddr: 0x3AC, symBinAddr: 0x1045C, symSize: 0x80 }
  - { offset: 0x15D474, size: 0x8, addend: 0x0, symName: __ZNKSt3__16__treeINS_12__value_typeINS_12basic_stringIcNS_11char_traitsIcEENS_9allocatorIcEEEEN4grpc25DefaultHealthCheckService11ServiceDataEEENS_19__map_value_compareIS7_SB_NS_4lessIS7_EELb1EEENS5_ISB_EEE4findIS7_EENS_21__tree_const_iteratorISB_PNS_11__tree_nodeISB_PvEElEERKT_, symObjAddr: 0x45DC, symBinAddr: 0x13608, symSize: 0x8C }
  - { offset: 0x15D64B, size: 0x8, addend: 0x0, symName: __ZN4grpc25DefaultHealthCheckService13RegisterWatchERKNSt3__112basic_stringIcNS1_11char_traitsIcEENS1_9allocatorIcEEEEN9grpc_core13RefCountedPtrINS0_22HealthCheckServiceImpl12WatchReactorEEE, symObjAddr: 0x42C, symBinAddr: 0x104DC, symSize: 0xC4 }
  - { offset: 0x15D925, size: 0x8, addend: 0x0, symName: __ZN4grpc25DefaultHealthCheckService11ServiceData8AddWatchEN9grpc_core13RefCountedPtrINS0_22HealthCheckServiceImpl12WatchReactorEEE, symObjAddr: 0x730, symBinAddr: 0x107E0, symSize: 0x5C }
  - { offset: 0x15D9DB, size: 0x8, addend: 0x0, symName: __ZN9grpc_core13RefCountedPtrIN4grpc25DefaultHealthCheckService22HealthCheckServiceImpl12WatchReactorEED2Ev, symObjAddr: 0x4668, symBinAddr: 0x13694, symSize: 0x4C }
  - { offset: 0x15DBCC, size: 0x8, addend: 0x0, symName: __ZN4absl12lts_2024011612log_internal10LogMessagelsIPN4grpc25DefaultHealthCheckService22HealthCheckServiceImplELi0EEERS2_RKT_, symObjAddr: 0x1B38, symBinAddr: 0x11BD8, symSize: 0x68 }
  - { offset: 0x15DC9C, size: 0x8, addend: 0x0, symName: __ZN4absl12lts_2024011612log_internal10LogMessagelsIN4grpc25DefaultHealthCheckService13ServingStatusELi0EEERS2_RKT_, symObjAddr: 0x1F9C, symBinAddr: 0x11FD4, symSize: 0x68 }
  - { offset: 0x15DD4B, size: 0x8, addend: 0x0, symName: __ZNSt3__16__treeINS_12__value_typeIPN4grpc25DefaultHealthCheckService22HealthCheckServiceImpl12WatchReactorEN9grpc_core13RefCountedPtrIS5_EEEENS_19__map_value_compareIS6_SA_NS_4lessIS6_EELb1EEENS_9allocatorISA_EEE25__emplace_unique_key_argsIS6_JRKNS_21piecewise_construct_tENS_5tupleIJOS6_EEENSM_IJEEEEEENS_4pairINS_15__tree_iteratorISA_PNS_11__tree_nodeISA_PvEElEEbEERKT_DpOT0_, symObjAddr: 0x4B34, symBinAddr: 0x136E0, symSize: 0xE0 }
  - { offset: 0x15E175, size: 0x8, addend: 0x0, symName: __ZN9grpc_core13RefCountedPtrIN4grpc25DefaultHealthCheckService22HealthCheckServiceImpl12WatchReactorEEaSEOS5_, symObjAddr: 0x900, symBinAddr: 0x109B0, symSize: 0x58 }
  - { offset: 0x15E41C, size: 0x8, addend: 0x0, symName: __ZN4grpc25DefaultHealthCheckService15UnregisterWatchERKNSt3__112basic_stringIcNS1_11char_traitsIcEENS1_9allocatorIcEEEEPNS0_22HealthCheckServiceImpl12WatchReactorE, symObjAddr: 0x78C, symBinAddr: 0x1083C, symSize: 0xD0 }
  - { offset: 0x15E8E4, size: 0x8, addend: 0x0, symName: __ZNSt3__16__treeINS_12__value_typeIPN4grpc25DefaultHealthCheckService22HealthCheckServiceImpl12WatchReactorEN9grpc_core13RefCountedPtrIS5_EEEENS_19__map_value_compareIS6_SA_NS_4lessIS6_EELb1EEENS_9allocatorISA_EEE14__erase_uniqueIS6_EEmRKT_, symObjAddr: 0x4CAC, symBinAddr: 0x13804, symSize: 0x80 }
  - { offset: 0x15EC74, size: 0x8, addend: 0x0, symName: __ZN4grpc25DefaultHealthCheckService11ServiceData11RemoveWatchEPNS0_22HealthCheckServiceImpl12WatchReactorE, symObjAddr: 0x85C, symBinAddr: 0x1090C, symSize: 0x28 }
  - { offset: 0x15ED5F, size: 0x8, addend: 0x0, symName: __ZN4grpc25DefaultHealthCheckService21GetHealthCheckServiceEv, symObjAddr: 0x884, symBinAddr: 0x10934, symSize: 0x7C }
  - { offset: 0x15EEB6, size: 0x8, addend: 0x0, symName: __ZN4grpc25DefaultHealthCheckService22HealthCheckServiceImplC2EPS0_, symObjAddr: 0x958, symBinAddr: 0x10A08, symSize: 0x2A8 }
  - { offset: 0x15F997, size: 0x8, addend: 0x0, symName: __ZN4grpc25DefaultHealthCheckService21GetHealthCheckServiceEv.cold.1, symObjAddr: 0xA6C4, symBinAddr: 0x2FC44, symSize: 0x28 }
  - { offset: 0x15FA37, size: 0x8, addend: 0x0, symName: __ZN9grpc_core8RefCount5UnrefEv, symObjAddr: 0xA5AC, symBinAddr: 0x18CEC, symSize: 0x118 }
  - { offset: 0x160544, size: 0x8, addend: 0x0, symName: __ZN4grpc7Service9AddMethodEPNS_8internal16RpcServiceMethodE, symObjAddr: 0xC00, symBinAddr: 0x10CB0, symSize: 0x10C }
  - { offset: 0x160A9D, size: 0x8, addend: 0x0, symName: __ZN4grpc7Service18MarkMethodCallbackEiPNS_8internal13MethodHandlerE, symObjAddr: 0xD0C, symBinAddr: 0x10DBC, symSize: 0xB8 }
  - { offset: 0x160AA8, size: 0x8, addend: 0x0, symName: __ZNSt3__110__function12__value_funcIFPN4grpc18ServerUnaryReactorEPNS2_21CallbackServerContextEPKNS2_10ByteBufferEPS7_EEC2B8ne180100EOSC_, symObjAddr: 0x5350, symBinAddr: 0x13DEC, symSize: 0x64 }
  - { offset: 0x160AF7, size: 0x8, addend: 0x0, symName: __ZN4grpc7Service18MarkMethodCallbackEiPNS_8internal13MethodHandlerE, symObjAddr: 0xD0C, symBinAddr: 0x10DBC, symSize: 0xB8 }
  - { offset: 0x160D0F, size: 0x8, addend: 0x0, symName: __ZNSt3__110__function12__value_funcIFPN4grpc18ServerWriteReactorINS2_10ByteBufferEEEPNS2_21CallbackServerContextEPKS4_EEC2B8ne180100EOSC_, symObjAddr: 0x8F2C, symBinAddr: 0x176D4, symSize: 0x64 }
  - { offset: 0x160D6B, size: 0x8, addend: 0x0, symName: __ZNSt3__16vectorINS_10unique_ptrIN4grpc8internal16RpcServiceMethodENS_14default_deleteIS4_EEEENS_9allocatorIS7_EEE16__destroy_vectorclB8ne180100Ev, symObjAddr: 0x3BE0, symBinAddr: 0x1301C, symSize: 0x74 }
  - { offset: 0x16152A, size: 0x8, addend: 0x0, symName: __ZNSt3__114__split_bufferINS_10unique_ptrIN4grpc8internal16RpcServiceMethodENS_14default_deleteIS4_EEEERNS_9allocatorIS7_EEED2Ev, symObjAddr: 0x2ED0, symBinAddr: 0x12DBC, symSize: 0x50 }
  - { offset: 0x161827, size: 0x8, addend: 0x0, symName: __ZN4grpc8internal16RpcServiceMethod16SetServerApiTypeENS1_7ApiTypeE, symObjAddr: 0x2F5C, symBinAddr: 0x12E0C, symSize: 0x13C }
  - { offset: 0x161A91, size: 0x8, addend: 0x0, symName: __ZN4grpc25DefaultHealthCheckService22HealthCheckServiceImplD2Ev, symObjAddr: 0xDC8, symBinAddr: 0x10E78, symSize: 0xC8 }
  - { offset: 0x161D50, size: 0x8, addend: 0x0, symName: __ZN4grpc25DefaultHealthCheckService22HealthCheckServiceImplD1Ev, symObjAddr: 0xEA0, symBinAddr: 0x10F40, symSize: 0x4 }
  - { offset: 0x161D73, size: 0x8, addend: 0x0, symName: __ZN4grpc25DefaultHealthCheckService22HealthCheckServiceImplD1Ev, symObjAddr: 0xEA0, symBinAddr: 0x10F40, symSize: 0x4 }
  - { offset: 0x161DA3, size: 0x8, addend: 0x0, symName: __ZN4grpc25DefaultHealthCheckService22HealthCheckServiceImplD0Ev, symObjAddr: 0xEA4, symBinAddr: 0x10F44, symSize: 0x14 }
  - { offset: 0x16201D, size: 0x8, addend: 0x0, symName: __ZN4grpc25DefaultHealthCheckService22HealthCheckServiceImpl18HandleCheckRequestEPS0_PNS_21CallbackServerContextEPKNS_10ByteBufferEPS5_, symObjAddr: 0xEB8, symBinAddr: 0x10F58, symSize: 0x344 }
  - { offset: 0x163362, size: 0x8, addend: 0x0, symName: __ZN4grpc17ServerContextBase14DefaultReactorEv, symObjAddr: 0x11FC, symBinAddr: 0x1129C, symSize: 0x88 }
  - { offset: 0x1636D4, size: 0x8, addend: 0x0, symName: __ZN4grpc25DefaultHealthCheckService22HealthCheckServiceImpl13DecodeRequestERKNS_10ByteBufferEPNSt3__112basic_stringIcNS5_11char_traitsIcEENS5_9allocatorIcEEEE, symObjAddr: 0x1284, symBinAddr: 0x11324, symSize: 0x214 }
  - { offset: 0x1636DF, size: 0x8, addend: 0x0, symName: __ZN4grpc25DefaultHealthCheckService22HealthCheckServiceImpl13DecodeRequestERKNS_10ByteBufferEPNSt3__112basic_stringIcNS5_11char_traitsIcEENS5_9allocatorIcEEEE, symObjAddr: 0x1284, symBinAddr: 0x11324, symSize: 0x214 }
  - { offset: 0x163E2A, size: 0x8, addend: 0x0, symName: __ZN4grpc25DefaultHealthCheckService22HealthCheckServiceImpl14EncodeResponseENS0_13ServingStatusEPNS_10ByteBufferE, symObjAddr: 0x1634, symBinAddr: 0x116D4, symSize: 0x1DC }
  - { offset: 0x1645A7, size: 0x8, addend: 0x0, symName: __ZN4grpc18ServerUnaryReactor6FinishENS_6StatusE, symObjAddr: 0x1498, symBinAddr: 0x11538, symSize: 0x15C }
  - { offset: 0x164DFB, size: 0x8, addend: 0x0, symName: __ZN4grpc6StatusD1Ev, symObjAddr: 0x15F4, symBinAddr: 0x11694, symSize: 0x40 }
  - { offset: 0x1652A4, size: 0x8, addend: 0x0, symName: __ZN4grpc17ServerContextBase14DefaultReactorEv.cold.1, symObjAddr: 0xA6EC, symBinAddr: 0x2FC6C, symSize: 0x28 }
  - { offset: 0x165DE5, size: 0x8, addend: 0x0, symName: __ZN4grpc10ByteBufferD2Ev, symObjAddr: 0x3ED4, symBinAddr: 0x1320C, symSize: 0x30 }
  - { offset: 0x16616A, size: 0x8, addend: 0x0, symName: __ZN4grpc25DefaultHealthCheckService22HealthCheckServiceImpl12WatchReactorC2EPS1_PKNS_10ByteBufferE, symObjAddr: 0x1810, symBinAddr: 0x118B0, symSize: 0x328 }
  - { offset: 0x167125, size: 0x8, addend: 0x0, symName: __ZN9grpc_core8RefCount3RefEl, symObjAddr: 0xA3A0, symBinAddr: 0x18B48, symSize: 0x100 }
  - { offset: 0x1672A3, size: 0x8, addend: 0x0, symName: __ZN4grpc18ServerWriteReactorINS_10ByteBufferEED2Ev, symObjAddr: 0x1F3C, symBinAddr: 0x11F74, symSize: 0x5C }
  - { offset: 0x1676B0, size: 0x8, addend: 0x0, symName: __ZN4grpc18ServerWriteReactorINS_10ByteBufferEE6FinishENS_6StatusE, symObjAddr: 0x2820, symBinAddr: 0x127F0, symSize: 0x15C }
  - { offset: 0x167FED, size: 0x8, addend: 0x0, symName: __ZN4grpc18ServerWriteReactorINS_10ByteBufferEE10StartWriteEPKS1_NS_12WriteOptionsE, symObjAddr: 0xA508, symBinAddr: 0x18C48, symSize: 0xA4 }
  - { offset: 0x168233, size: 0x8, addend: 0x0, symName: __ZN4grpc25DefaultHealthCheckService22HealthCheckServiceImpl12WatchReactor8OnCancelEv, symObjAddr: 0x2530, symBinAddr: 0x12568, symSize: 0x104 }
  - { offset: 0x168ABD, size: 0x8, addend: 0x0, symName: __ZN4grpc25DefaultHealthCheckServiceD1Ev, symObjAddr: 0x297C, symBinAddr: 0x1294C, symSize: 0x50 }
  - { offset: 0x168C9A, size: 0x8, addend: 0x0, symName: __ZN4grpc25DefaultHealthCheckServiceD0Ev, symObjAddr: 0x29CC, symBinAddr: 0x1299C, symSize: 0x50 }
  - { offset: 0x168E99, size: 0x8, addend: 0x0, symName: __ZN4grpc25DefaultHealthCheckService22HealthCheckServiceImpl12WatchReactorD1Ev, symObjAddr: 0x2A1C, symBinAddr: 0x129EC, symSize: 0x58 }
  - { offset: 0x16909C, size: 0x8, addend: 0x0, symName: __ZN4grpc25DefaultHealthCheckService22HealthCheckServiceImpl12WatchReactorD0Ev, symObjAddr: 0x2A74, symBinAddr: 0x12A44, symSize: 0x5C }
  - { offset: 0x16929B, size: 0x8, addend: 0x0, symName: __ZN4grpc8internal13ServerReactor18InternalInlineableEv, symObjAddr: 0x2AD0, symBinAddr: 0x12AA0, symSize: 0x8 }
  - { offset: 0x1692C2, size: 0x8, addend: 0x0, symName: __ZN4grpc18ServerWriteReactorINS_10ByteBufferEE25OnSendInitialMetadataDoneEb, symObjAddr: 0x2AD8, symBinAddr: 0x12AA8, symSize: 0x4 }
  - { offset: 0x16932D, size: 0x8, addend: 0x0, symName: __ZN4grpc18ServerWriteReactorINS_10ByteBufferEE18InternalBindWriterEPNS_20ServerCallbackWriterIS1_EE, symObjAddr: 0x2ADC, symBinAddr: 0x12AAC, symSize: 0x17C }
  - { offset: 0x1696B9, size: 0x8, addend: 0x0, symName: __ZThn160_N4grpc25DefaultHealthCheckService22HealthCheckServiceImpl12WatchReactorD1Ev, symObjAddr: 0x2C58, symBinAddr: 0x12C28, symSize: 0x58 }
  - { offset: 0x1698CC, size: 0x8, addend: 0x0, symName: __ZThn160_N4grpc25DefaultHealthCheckService22HealthCheckServiceImpl12WatchReactorD0Ev, symObjAddr: 0x2CB0, symBinAddr: 0x12C80, symSize: 0x5C }
  - { offset: 0x169ADB, size: 0x8, addend: 0x0, symName: __ZN4grpc7ServiceD1Ev, symObjAddr: 0x2D0C, symBinAddr: 0x12CDC, symSize: 0x48 }
  - { offset: 0x169BCE, size: 0x8, addend: 0x0, symName: __ZN4grpc7ServiceD0Ev, symObjAddr: 0x2D54, symBinAddr: 0x12D24, symSize: 0x4C }
  - { offset: 0x169DE3, size: 0x8, addend: 0x0, symName: __ZNSt3__110unique_ptrIN4grpc8internal16RpcServiceMethodENS_14default_deleteIS3_EEE5resetB8ne180100EPS3_, symObjAddr: 0x2E84, symBinAddr: 0x12D70, symSize: 0x4C }
  - { offset: 0x16A17E, size: 0x8, addend: 0x0, symName: __ZN4absl12lts_2024011612log_internal10LogMessagelsIPKcLi0EEERS2_RKT_, symObjAddr: 0x3B0C, symBinAddr: 0x12F48, symSize: 0x98 }
  - { offset: 0x16A2A0, size: 0x8, addend: 0x0, symName: __ZN4grpc8internal16RpcServiceMethod12TypeToStringENS1_7ApiTypeE, symObjAddr: 0x3BA4, symBinAddr: 0x12FE0, symSize: 0x3C }
  - { offset: 0x16A2DA, size: 0x8, addend: 0x0, symName: __ZNSt3__16vectorINS_10unique_ptrIN4grpc8internal16RpcServiceMethodENS_14default_deleteIS4_EEEENS_9allocatorIS7_EEE16__destroy_vectorclB8ne180100Ev, symObjAddr: 0x3BE0, symBinAddr: 0x1301C, symSize: 0x74 }
  - { offset: 0x16AA4E, size: 0x8, addend: 0x0, symName: __ZN4grpc17ServerContextBase7ReactorD1Ev, symObjAddr: 0x3C54, symBinAddr: 0x13090, symSize: 0x4 }
  - { offset: 0x16AA70, size: 0x8, addend: 0x0, symName: __ZN4grpc17ServerContextBase7ReactorD1Ev, symObjAddr: 0x3C54, symBinAddr: 0x13090, symSize: 0x4 }
  - { offset: 0x16AA8E, size: 0x8, addend: 0x0, symName: __ZN4grpc17ServerContextBase7ReactorD1Ev, symObjAddr: 0x3C54, symBinAddr: 0x13090, symSize: 0x4 }
  - { offset: 0x16AAA2, size: 0x8, addend: 0x0, symName: __ZN4grpc18ServerUnaryReactorD2Ev, symObjAddr: 0x3D7C, symBinAddr: 0x131B0, symSize: 0x5C }
  - { offset: 0x16AE21, size: 0x8, addend: 0x0, symName: __ZN4grpc17ServerContextBase7ReactorD0Ev, symObjAddr: 0x3C58, symBinAddr: 0x13094, symSize: 0x14 }
  - { offset: 0x16AE9E, size: 0x8, addend: 0x0, symName: __ZN4grpc17ServerContextBase7Reactor6OnDoneEv, symObjAddr: 0x3C6C, symBinAddr: 0x130A8, symSize: 0x4 }
  - { offset: 0x16AEC3, size: 0x8, addend: 0x0, symName: __ZN4grpc17ServerContextBase7Reactor8OnCancelEv, symObjAddr: 0x3C70, symBinAddr: 0x130AC, symSize: 0x4 }
  - { offset: 0x16AEE8, size: 0x8, addend: 0x0, symName: __ZN4grpc17ServerContextBase7Reactor18InternalInlineableEv, symObjAddr: 0x3C74, symBinAddr: 0x130B0, symSize: 0x8 }
  - { offset: 0x16AF0F, size: 0x8, addend: 0x0, symName: __ZN4grpc18ServerUnaryReactor25OnSendInitialMetadataDoneEb, symObjAddr: 0x3C7C, symBinAddr: 0x130B8, symSize: 0x4 }
  - { offset: 0x16AF70, size: 0x8, addend: 0x0, symName: __ZN4grpc18ServerUnaryReactor16InternalBindCallEPNS_19ServerCallbackUnaryE, symObjAddr: 0x3C80, symBinAddr: 0x130BC, symSize: 0xF0 }
  - { offset: 0x16B22D, size: 0x8, addend: 0x0, symName: __ZN4grpc18ServerUnaryReactorD1Ev, symObjAddr: 0x3D70, symBinAddr: 0x2FC34, symSize: 0x4 }
  - { offset: 0x16B256, size: 0x8, addend: 0x0, symName: __ZN4grpc18ServerUnaryReactorD0Ev, symObjAddr: 0x3D74, symBinAddr: 0x2FC38, symSize: 0x4 }
  - { offset: 0x16B27F, size: 0x8, addend: 0x0, symName: __ZN4grpc18ServerUnaryReactor8OnCancelEv, symObjAddr: 0x3D78, symBinAddr: 0x131AC, symSize: 0x4 }
  - { offset: 0x16B36F, size: 0x8, addend: 0x0, symName: __ZN4grpc18ServerWriteReactorINS_10ByteBufferEED1Ev, symObjAddr: 0x3F04, symBinAddr: 0x2FC3C, symSize: 0x4 }
  - { offset: 0x16B398, size: 0x8, addend: 0x0, symName: __ZN4grpc18ServerWriteReactorINS_10ByteBufferEED0Ev, symObjAddr: 0x3F08, symBinAddr: 0x2FC40, symSize: 0x4 }
  - { offset: 0x16B3C1, size: 0x8, addend: 0x0, symName: __ZN4grpc18ServerWriteReactorINS_10ByteBufferEE8OnCancelEv, symObjAddr: 0x3F0C, symBinAddr: 0x1323C, symSize: 0x4 }
  - { offset: 0x16B3E6, size: 0x8, addend: 0x0, symName: __ZN4grpc18ServerWriteReactorINS_10ByteBufferEE11OnWriteDoneEb, symObjAddr: 0x3F10, symBinAddr: 0x13240, symSize: 0x4 }
  - { offset: 0x16B55F, size: 0x8, addend: 0x0, symName: __ZNSt3__16__treeINS_12__value_typeIPN4grpc25DefaultHealthCheckService22HealthCheckServiceImpl12WatchReactorEN9grpc_core13RefCountedPtrIS5_EEEENS_19__map_value_compareIS6_SA_NS_4lessIS6_EELb1EEENS_9allocatorISA_EEE7destroyEPNS_11__tree_nodeISA_PvEE, symObjAddr: 0x404C, symBinAddr: 0x132CC, symSize: 0x48 }
  - { offset: 0x16BD08, size: 0x8, addend: 0x0, symName: __ZNSt3__16__treeINS_12__value_typeINS_12basic_stringIcNS_11char_traitsIcEENS_9allocatorIcEEEEN4grpc25DefaultHealthCheckService11ServiceDataEEENS_19__map_value_compareIS7_SB_NS_4lessIS7_EELb1EEENS5_ISB_EEE12__find_equalIS7_EERPNS_16__tree_node_baseIPvEERPNS_15__tree_end_nodeISM_EERKT_, symObjAddr: 0x4164, symBinAddr: 0x133E4, symSize: 0x9C }
  - { offset: 0x16BE80, size: 0x8, addend: 0x0, symName: __ZNSt3__110unique_ptrINS_11__tree_nodeINS_12__value_typeINS_12basic_stringIcNS_11char_traitsIcEENS_9allocatorIcEEEEN4grpc25DefaultHealthCheckService11ServiceDataEEEPvEENS_22__tree_node_destructorINS6_ISE_EEEEE5resetB8ne180100EPSE_, symObjAddr: 0x4454, symBinAddr: 0x13480, symSize: 0x44 }
  - { offset: 0x16C2C8, size: 0x8, addend: 0x0, symName: __ZNSt3__16__treeINS_12__value_typeINS_12basic_stringIcNS_11char_traitsIcEENS_9allocatorIcEEEEN4grpc25DefaultHealthCheckService11ServiceDataEEENS_19__map_value_compareIS7_SB_NS_4lessIS7_EELb1EEENS5_ISB_EEE16__construct_nodeIJRKNS_21piecewise_construct_tENS_5tupleIJRKS7_EEENSM_IJEEEEEENS_10unique_ptrINS_11__tree_nodeISB_PvEENS_22__tree_node_destructorINS5_ISU_EEEEEEDpOT_, symObjAddr: 0x4540, symBinAddr: 0x1356C, symSize: 0x9C }
  - { offset: 0x16CF1C, size: 0x8, addend: 0x0, symName: __ZNSt3__110unique_ptrINS_11__tree_nodeINS_12__value_typeIPN4grpc25DefaultHealthCheckService22HealthCheckServiceImpl12WatchReactorEN9grpc_core13RefCountedPtrIS6_EEEEPvEENS_22__tree_node_destructorINS_9allocatorISD_EEEEE5resetB8ne180100EPSD_, symObjAddr: 0x4C68, symBinAddr: 0x137C0, symSize: 0x44 }
  - { offset: 0x16D296, size: 0x8, addend: 0x0, symName: '__ZNSt3__110__function6__funcIZN4grpc25DefaultHealthCheckService22HealthCheckServiceImplC1EPS3_E3$_0NS_9allocatorIS6_EEFPNS2_18ServerUnaryReactorEPNS2_21CallbackServerContextEPKNS2_10ByteBufferEPSD_EED1Ev', symObjAddr: 0x4D9C, symBinAddr: 0x13884, symSize: 0x4 }
  - { offset: 0x16D2C1, size: 0x8, addend: 0x0, symName: '__ZNSt3__110__function6__funcIZN4grpc25DefaultHealthCheckService22HealthCheckServiceImplC1EPS3_E3$_0NS_9allocatorIS6_EEFPNS2_18ServerUnaryReactorEPNS2_21CallbackServerContextEPKNS2_10ByteBufferEPSD_EED0Ev', symObjAddr: 0x4DA0, symBinAddr: 0x13888, symSize: 0x4 }
  - { offset: 0x16D4C4, size: 0x8, addend: 0x0, symName: '__ZNKSt3__110__function6__funcIZN4grpc25DefaultHealthCheckService22HealthCheckServiceImplC1EPS3_E3$_0NS_9allocatorIS6_EEFPNS2_18ServerUnaryReactorEPNS2_21CallbackServerContextEPKNS2_10ByteBufferEPSD_EE7__cloneEv', symObjAddr: 0x4DA4, symBinAddr: 0x1388C, symSize: 0x34 }
  - { offset: 0x16D7BD, size: 0x8, addend: 0x0, symName: '__ZNKSt3__110__function6__funcIZN4grpc25DefaultHealthCheckService22HealthCheckServiceImplC1EPS3_E3$_0NS_9allocatorIS6_EEFPNS2_18ServerUnaryReactorEPNS2_21CallbackServerContextEPKNS2_10ByteBufferEPSD_EE7__cloneEPNS0_6__baseISH_EE', symObjAddr: 0x4DD8, symBinAddr: 0x138C0, symSize: 0x14 }
  - { offset: 0x16D7F5, size: 0x8, addend: 0x0, symName: '__ZNKSt3__110__function6__funcIZN4grpc25DefaultHealthCheckService22HealthCheckServiceImplC1EPS3_E3$_0NS_9allocatorIS6_EEFPNS2_18ServerUnaryReactorEPNS2_21CallbackServerContextEPKNS2_10ByteBufferEPSD_EE7__cloneEPNS0_6__baseISH_EE', symObjAddr: 0x4DD8, symBinAddr: 0x138C0, symSize: 0x14 }
  - { offset: 0x16D823, size: 0x8, addend: 0x0, symName: '__ZNKSt3__110__function6__funcIZN4grpc25DefaultHealthCheckService22HealthCheckServiceImplC1EPS3_E3$_0NS_9allocatorIS6_EEFPNS2_18ServerUnaryReactorEPNS2_21CallbackServerContextEPKNS2_10ByteBufferEPSD_EE7__cloneEPNS0_6__baseISH_EE', symObjAddr: 0x4DD8, symBinAddr: 0x138C0, symSize: 0x14 }
  - { offset: 0x16D851, size: 0x8, addend: 0x0, symName: '__ZNKSt3__110__function6__funcIZN4grpc25DefaultHealthCheckService22HealthCheckServiceImplC1EPS3_E3$_0NS_9allocatorIS6_EEFPNS2_18ServerUnaryReactorEPNS2_21CallbackServerContextEPKNS2_10ByteBufferEPSD_EE7__cloneEPNS0_6__baseISH_EE', symObjAddr: 0x4DD8, symBinAddr: 0x138C0, symSize: 0x14 }
  - { offset: 0x16D866, size: 0x8, addend: 0x0, symName: '__ZNKSt3__110__function6__funcIZN4grpc25DefaultHealthCheckService22HealthCheckServiceImplC1EPS3_E3$_0NS_9allocatorIS6_EEFPNS2_18ServerUnaryReactorEPNS2_21CallbackServerContextEPKNS2_10ByteBufferEPSD_EE7__cloneEPNS0_6__baseISH_EE', symObjAddr: 0x4DD8, symBinAddr: 0x138C0, symSize: 0x14 }
  - { offset: 0x16D87A, size: 0x8, addend: 0x0, symName: '__ZNKSt3__110__function6__funcIZN4grpc25DefaultHealthCheckService22HealthCheckServiceImplC1EPS3_E3$_0NS_9allocatorIS6_EEFPNS2_18ServerUnaryReactorEPNS2_21CallbackServerContextEPKNS2_10ByteBufferEPSD_EE7__cloneEPNS0_6__baseISH_EE', symObjAddr: 0x4DD8, symBinAddr: 0x138C0, symSize: 0x14 }
  - { offset: 0x16D88E, size: 0x8, addend: 0x0, symName: '__ZNKSt3__110__function6__funcIZN4grpc25DefaultHealthCheckService22HealthCheckServiceImplC1EPS3_E3$_0NS_9allocatorIS6_EEFPNS2_18ServerUnaryReactorEPNS2_21CallbackServerContextEPKNS2_10ByteBufferEPSD_EE7__cloneEPNS0_6__baseISH_EE', symObjAddr: 0x4DD8, symBinAddr: 0x138C0, symSize: 0x14 }
  - { offset: 0x16D8A3, size: 0x8, addend: 0x0, symName: '__ZNKSt3__110__function6__funcIZN4grpc25DefaultHealthCheckService22HealthCheckServiceImplC1EPS3_E3$_0NS_9allocatorIS6_EEFPNS2_18ServerUnaryReactorEPNS2_21CallbackServerContextEPKNS2_10ByteBufferEPSD_EE7__cloneEPNS0_6__baseISH_EE', symObjAddr: 0x4DD8, symBinAddr: 0x138C0, symSize: 0x14 }
  - { offset: 0x16D8BB, size: 0x8, addend: 0x0, symName: '__ZNSt3__110__function6__funcIZN4grpc25DefaultHealthCheckService22HealthCheckServiceImplC1EPS3_E3$_0NS_9allocatorIS6_EEFPNS2_18ServerUnaryReactorEPNS2_21CallbackServerContextEPKNS2_10ByteBufferEPSD_EE7destroyEv', symObjAddr: 0x4DEC, symBinAddr: 0x138D4, symSize: 0x4 }
  - { offset: 0x16D90C, size: 0x8, addend: 0x0, symName: '__ZNSt3__110__function6__funcIZN4grpc25DefaultHealthCheckService22HealthCheckServiceImplC1EPS3_E3$_0NS_9allocatorIS6_EEFPNS2_18ServerUnaryReactorEPNS2_21CallbackServerContextEPKNS2_10ByteBufferEPSD_EE18destroy_deallocateEv', symObjAddr: 0x4DF0, symBinAddr: 0x138D8, symSize: 0x4 }
  - { offset: 0x16D942, size: 0x8, addend: 0x0, symName: '__ZNSt3__110__function6__funcIZN4grpc25DefaultHealthCheckService22HealthCheckServiceImplC1EPS3_E3$_0NS_9allocatorIS6_EEFPNS2_18ServerUnaryReactorEPNS2_21CallbackServerContextEPKNS2_10ByteBufferEPSD_EE18destroy_deallocateEv', symObjAddr: 0x4DF0, symBinAddr: 0x138D8, symSize: 0x4 }
  - { offset: 0x16D965, size: 0x8, addend: 0x0, symName: '__ZNSt3__110__function6__funcIZN4grpc25DefaultHealthCheckService22HealthCheckServiceImplC1EPS3_E3$_0NS_9allocatorIS6_EEFPNS2_18ServerUnaryReactorEPNS2_21CallbackServerContextEPKNS2_10ByteBufferEPSD_EE18destroy_deallocateEv', symObjAddr: 0x4DF0, symBinAddr: 0x138D8, symSize: 0x4 }
  - { offset: 0x16D991, size: 0x8, addend: 0x0, symName: '__ZNSt3__110__function6__funcIZN4grpc25DefaultHealthCheckService22HealthCheckServiceImplC1EPS3_E3$_0NS_9allocatorIS6_EEFPNS2_18ServerUnaryReactorEPNS2_21CallbackServerContextEPKNS2_10ByteBufferEPSD_EE18destroy_deallocateEv', symObjAddr: 0x4DF0, symBinAddr: 0x138D8, symSize: 0x4 }
  - { offset: 0x16D9B7, size: 0x8, addend: 0x0, symName: '__ZNSt3__110__function6__funcIZN4grpc25DefaultHealthCheckService22HealthCheckServiceImplC1EPS3_E3$_0NS_9allocatorIS6_EEFPNS2_18ServerUnaryReactorEPNS2_21CallbackServerContextEPKNS2_10ByteBufferEPSD_EE18destroy_deallocateEv', symObjAddr: 0x4DF0, symBinAddr: 0x138D8, symSize: 0x4 }
  - { offset: 0x16DAAA, size: 0x8, addend: 0x0, symName: '__ZNSt3__110__function6__funcIZN4grpc25DefaultHealthCheckService22HealthCheckServiceImplC1EPS3_E3$_0NS_9allocatorIS6_EEFPNS2_18ServerUnaryReactorEPNS2_21CallbackServerContextEPKNS2_10ByteBufferEPSD_EEclEOSC_OSF_OSG_', symObjAddr: 0x4DF4, symBinAddr: 0x138DC, symSize: 0x14 }
  - { offset: 0x16DB05, size: 0x8, addend: 0x0, symName: '__ZNSt3__110__function6__funcIZN4grpc25DefaultHealthCheckService22HealthCheckServiceImplC1EPS3_E3$_0NS_9allocatorIS6_EEFPNS2_18ServerUnaryReactorEPNS2_21CallbackServerContextEPKNS2_10ByteBufferEPSD_EEclEOSC_OSF_OSG_', symObjAddr: 0x4DF4, symBinAddr: 0x138DC, symSize: 0x14 }
  - { offset: 0x16DB3E, size: 0x8, addend: 0x0, symName: '__ZNSt3__110__function6__funcIZN4grpc25DefaultHealthCheckService22HealthCheckServiceImplC1EPS3_E3$_0NS_9allocatorIS6_EEFPNS2_18ServerUnaryReactorEPNS2_21CallbackServerContextEPKNS2_10ByteBufferEPSD_EEclEOSC_OSF_OSG_', symObjAddr: 0x4DF4, symBinAddr: 0x138DC, symSize: 0x14 }
  - { offset: 0x16DB76, size: 0x8, addend: 0x0, symName: '__ZNSt3__110__function6__funcIZN4grpc25DefaultHealthCheckService22HealthCheckServiceImplC1EPS3_E3$_0NS_9allocatorIS6_EEFPNS2_18ServerUnaryReactorEPNS2_21CallbackServerContextEPKNS2_10ByteBufferEPSD_EEclEOSC_OSF_OSG_', symObjAddr: 0x4DF4, symBinAddr: 0x138DC, symSize: 0x14 }
  - { offset: 0x16DBF2, size: 0x8, addend: 0x0, symName: '__ZNKSt3__110__function6__funcIZN4grpc25DefaultHealthCheckService22HealthCheckServiceImplC1EPS3_E3$_0NS_9allocatorIS6_EEFPNS2_18ServerUnaryReactorEPNS2_21CallbackServerContextEPKNS2_10ByteBufferEPSD_EE6targetERKSt9type_info', symObjAddr: 0x4E08, symBinAddr: 0x138F0, symSize: 0x3C }
  - { offset: 0x16DCA8, size: 0x8, addend: 0x0, symName: '__ZNKSt3__110__function6__funcIZN4grpc25DefaultHealthCheckService22HealthCheckServiceImplC1EPS3_E3$_0NS_9allocatorIS6_EEFPNS2_18ServerUnaryReactorEPNS2_21CallbackServerContextEPKNS2_10ByteBufferEPSD_EE11target_typeEv', symObjAddr: 0x4E44, symBinAddr: 0x1392C, symSize: 0xC }
  - { offset: 0x16DD31, size: 0x8, addend: 0x0, symName: __ZN4grpc8internal20CallbackUnaryHandlerINS_10ByteBufferES2_ED1Ev, symObjAddr: 0x4E9C, symBinAddr: 0x13938, symSize: 0x60 }
  - { offset: 0x16DE12, size: 0x8, addend: 0x0, symName: __ZN4grpc8internal20CallbackUnaryHandlerINS_10ByteBufferES2_ED0Ev, symObjAddr: 0x4EFC, symBinAddr: 0x13998, symSize: 0x60 }
  - { offset: 0x16E355, size: 0x8, addend: 0x0, symName: __ZN4grpc8internal20CallbackUnaryHandlerINS_10ByteBufferES2_E23ServerCallbackUnaryImplC2EPNS_21CallbackServerContextEPNS0_4CallEPNS_13MessageHolderIS2_S2_EENSt3__18functionIFvvEEE, symObjAddr: 0x54E4, symBinAddr: 0x13F1C, symSize: 0x150 }
  - { offset: 0x16EAC8, size: 0x8, addend: 0x0, symName: __ZN4grpc8internal17FinishOnlyReactorINS_18ServerUnaryReactorEEC2ENS_6StatusE, symObjAddr: 0x8758, symBinAddr: 0x16F00, symSize: 0xE4 }
  - { offset: 0x16F0F7, size: 0x8, addend: 0x0, symName: __ZN4grpc8internal20CallbackUnaryHandlerINS_10ByteBufferES2_E23ServerCallbackUnaryImpl12SetupReactorEPNS_18ServerUnaryReactorE, symObjAddr: 0x53E4, symBinAddr: 0x13E80, symSize: 0x9C }
  - { offset: 0x16F388, size: 0x8, addend: 0x0, symName: __ZN4grpc8internal20CallbackUnaryHandlerINS_10ByteBufferES2_E11DeserializeEP9grpc_callP16grpc_byte_bufferPNS_6StatusEPPv, symObjAddr: 0x51FC, symBinAddr: 0x13C98, symSize: 0x154 }
  - { offset: 0x16F9ED, size: 0x8, addend: 0x0, symName: __ZN4grpc19SerializationTraitsINS_10ByteBufferEvE11DeserializeEPS1_S3_, symObjAddr: 0x8860, symBinAddr: 0x17008, symSize: 0xC8 }
  - { offset: 0x16FCAD, size: 0x8, addend: 0x0, symName: __ZNKSt3__18functionIFPN4grpc18ServerUnaryReactorEPNS1_21CallbackServerContextEPKNS1_10ByteBufferEPS6_EEclES5_S8_S9_, symObjAddr: 0x8714, symBinAddr: 0x16EBC, symSize: 0x44 }
  - { offset: 0x16FD5D, size: 0x8, addend: 0x0, symName: __ZN4grpc8internal17FinishOnlyReactorINS_18ServerUnaryReactorEEC2ENS_6StatusE, symObjAddr: 0x8758, symBinAddr: 0x16F00, symSize: 0xE4 }
  - { offset: 0x17031E, size: 0x8, addend: 0x0, symName: __ZN4grpc8internal9CallOpSetINS0_25CallOpSendInitialMetadataENS0_17CallOpSendMessageENS0_22CallOpServerSendStatusENS0_8CallNoOpILi4EEENS5_ILi5EEENS5_ILi6EEEEC2Ev, symObjAddr: 0x6EFC, symBinAddr: 0x15798, symSize: 0x9C }
  - { offset: 0x170349, size: 0x8, addend: 0x0, symName: __ZN4grpc8internal9CallOpSetINS0_25CallOpSendInitialMetadataENS0_17CallOpSendMessageENS0_22CallOpServerSendStatusENS0_8CallNoOpILi4EEENS5_ILi5EEENS5_ILi6EEEEC2Ev, symObjAddr: 0x6EFC, symBinAddr: 0x15798, symSize: 0x9C }
  - { offset: 0x1706BE, size: 0x8, addend: 0x0, symName: __ZNSt3__110__function12__value_funcIFvvEEC2B8ne180100EOS3_, symObjAddr: 0x7BC0, symBinAddr: 0x163F8, symSize: 0x64 }
  - { offset: 0x17070D, size: 0x8, addend: 0x0, symName: __ZN4grpc8internal22CallbackWithSuccessTagD2Ev, symObjAddr: 0x7C24, symBinAddr: 0x1645C, symSize: 0x58 }
  - { offset: 0x1707D6, size: 0x8, addend: 0x0, symName: __ZN4grpc8internal27InterceptorBatchMethodsImplD2Ev, symObjAddr: 0x63C4, symBinAddr: 0x14DFC, symSize: 0x90 }
  - { offset: 0x1709D7, size: 0x8, addend: 0x0, symName: __ZN4grpc8internal9CallOpSetINS0_25CallOpSendInitialMetadataENS0_17CallOpSendMessageENS0_22CallOpServerSendStatusENS0_8CallNoOpILi4EEENS5_ILi5EEENS5_ILi6EEEED1Ev, symObjAddr: 0x5634, symBinAddr: 0x1406C, symSize: 0x90 }
  - { offset: 0x170D9E, size: 0x8, addend: 0x0, symName: __ZN4grpc8internal9CallOpSetINS0_25CallOpSendInitialMetadataENS0_8CallNoOpILi2EEENS3_ILi3EEENS3_ILi4EEENS3_ILi5EEENS3_ILi6EEEED1Ev, symObjAddr: 0x56C4, symBinAddr: 0x140FC, symSize: 0x34 }
  - { offset: 0x170E08, size: 0x8, addend: 0x0, symName: __ZN4grpc8internal20CallbackUnaryHandlerINS_10ByteBufferES2_E23ServerCallbackUnaryImplD1Ev, symObjAddr: 0x56F8, symBinAddr: 0x14130, symSize: 0x4 }
  - { offset: 0x170E2B, size: 0x8, addend: 0x0, symName: __ZN4grpc8internal20CallbackUnaryHandlerINS_10ByteBufferES2_E23ServerCallbackUnaryImplD1Ev, symObjAddr: 0x56F8, symBinAddr: 0x14130, symSize: 0x4 }
  - { offset: 0x170E3F, size: 0x8, addend: 0x0, symName: __ZN4grpc8internal20CallbackUnaryHandlerINS_10ByteBufferES2_E23ServerCallbackUnaryImplD2Ev, symObjAddr: 0x7CE8, symBinAddr: 0x16520, symSize: 0xF8 }
  - { offset: 0x171388, size: 0x8, addend: 0x0, symName: __ZN4grpc8internal20CallbackUnaryHandlerINS_10ByteBufferES2_E23ServerCallbackUnaryImplD0Ev, symObjAddr: 0x56FC, symBinAddr: 0x14134, symSize: 0x14 }
  - { offset: 0x171417, size: 0x8, addend: 0x0, symName: __ZN4grpc8internal20CallbackUnaryHandlerINS_10ByteBufferES2_E23ServerCallbackUnaryImpl7reactorEv, symObjAddr: 0x5710, symBinAddr: 0x14148, symSize: 0x8 }
  - { offset: 0x171440, size: 0x8, addend: 0x0, symName: __ZN4grpc8internal20CallbackUnaryHandlerINS_10ByteBufferES2_E23ServerCallbackUnaryImpl7reactorEv, symObjAddr: 0x5710, symBinAddr: 0x14148, symSize: 0x8 }
  - { offset: 0x171465, size: 0x8, addend: 0x0, symName: __ZN4grpc8internal20CallbackUnaryHandlerINS_10ByteBufferES2_E23ServerCallbackUnaryImpl7reactorEv, symObjAddr: 0x5710, symBinAddr: 0x14148, symSize: 0x8 }
  - { offset: 0x17148A, size: 0x8, addend: 0x0, symName: __ZN4grpc8internal20CallbackUnaryHandlerINS_10ByteBufferES2_E23ServerCallbackUnaryImpl4callEv, symObjAddr: 0x5718, symBinAddr: 0x14150, symSize: 0x8 }
  - { offset: 0x1714B3, size: 0x8, addend: 0x0, symName: __ZN4grpc8internal20CallbackUnaryHandlerINS_10ByteBufferES2_E23ServerCallbackUnaryImpl4callEv, symObjAddr: 0x5718, symBinAddr: 0x14150, symSize: 0x8 }
  - { offset: 0x1715B6, size: 0x8, addend: 0x0, symName: __ZN4grpc8internal18ServerCallbackCall8RunAsyncEN4absl12lts_2024011612AnyInvocableIFvvEEE, symObjAddr: 0x5720, symBinAddr: 0x14158, symSize: 0x88 }
  - { offset: 0x1717B6, size: 0x8, addend: 0x0, symName: __ZN4absl12lts_2024011622internal_any_invocable8CoreImplILb0EvJEEC2EOS3_, symObjAddr: 0x7DE0, symBinAddr: 0x16618, symSize: 0x4C }
  - { offset: 0x171887, size: 0x8, addend: 0x0, symName: __ZN4grpc8internal20CallbackUnaryHandlerINS_10ByteBufferES2_E23ServerCallbackUnaryImpl10CallOnDoneEv, symObjAddr: 0x57A8, symBinAddr: 0x141E0, symSize: 0x140 }
  - { offset: 0x171EAF, size: 0x8, addend: 0x0, symName: __ZN4grpc8internal22CallbackWithSuccessTag3SetEP9grpc_callNSt3__18functionIFvbEEEPNS0_18CompletionQueueTagEb, symObjAddr: 0x7E30, symBinAddr: 0x16668, symSize: 0x8C }
  - { offset: 0x171FAE, size: 0x8, addend: 0x0, symName: __ZN4grpc8internal22CallOpServerSendStatus16ServerSendStatusEPNSt3__18multimapINS2_12basic_stringIcNS2_11char_traitsIcEENS2_9allocatorIcEEEES9_NS2_4lessIS9_EENS7_INS2_4pairIKS9_S9_EEEEEERKNS_6StatusE, symObjAddr: 0x7EBC, symBinAddr: 0x166F4, symSize: 0xE8 }
  - { offset: 0x172396, size: 0x8, addend: 0x0, symName: __ZNSt3__18functionIFN4grpc6StatusEPKvEEaSIZNS1_8internal17CallOpSendMessage14SendMessagePtrINS1_10ByteBufferEEES2_PKT_NS1_12WriteOptionsEEUlS4_E_vEERS6_OSC_, symObjAddr: 0x81F0, symBinAddr: 0x16998, symSize: 0xA8 }
  - { offset: 0x17278C, size: 0x8, addend: 0x0, symName: __ZN4grpc8internal20CallbackUnaryHandlerINS_10ByteBufferES2_E23ServerCallbackUnaryImpl19SendInitialMetadataEv.cold.1, symObjAddr: 0xA714, symBinAddr: 0x2FC94, symSize: 0x28 }
  - { offset: 0x1727A4, size: 0x8, addend: 0x0, symName: __ZN4grpc8internal9CallOpSetINS0_25CallOpSendInitialMetadataENS0_8CallNoOpILi2EEENS3_ILi3EEENS3_ILi4EEENS3_ILi5EEENS3_ILi6EEEED0Ev, symObjAddr: 0x5C58, symBinAddr: 0x14690, symSize: 0x34 }
  - { offset: 0x1728D3, size: 0x8, addend: 0x0, symName: __ZN4grpc8internal9CallOpSetINS0_25CallOpSendInitialMetadataENS0_8CallNoOpILi2EEENS3_ILi3EEENS3_ILi4EEENS3_ILi5EEENS3_ILi6EEEE14FinalizeResultEPPvPb, symObjAddr: 0x5C8C, symBinAddr: 0x146C4, symSize: 0xC0 }
  - { offset: 0x172A5B, size: 0x8, addend: 0x0, symName: __ZN4grpc8internal27InterceptorBatchMethodsImpl15RunInterceptorsEv, symObjAddr: 0x6A7C, symBinAddr: 0x15354, symSize: 0x6C }
  - { offset: 0x172B35, size: 0x8, addend: 0x0, symName: __ZN4grpc8internal27InterceptorBatchMethodsImpl21RunClientInterceptorsEv, symObjAddr: 0x6AE8, symBinAddr: 0x153C0, symSize: 0x44 }
  - { offset: 0x172B48, size: 0x8, addend: 0x0, symName: __ZN4grpc8internal9CallOpSetINS0_25CallOpSendInitialMetadataENS0_8CallNoOpILi2EEENS3_ILi3EEENS3_ILi4EEENS3_ILi5EEENS3_ILi6EEEE7FillOpsEPNS0_4CallE, symObjAddr: 0x5D4C, symBinAddr: 0x14784, symSize: 0x60 }
  - { offset: 0x172BCC, size: 0x8, addend: 0x0, symName: __ZN4grpc8internal9CallOpSetINS0_25CallOpSendInitialMetadataENS0_8CallNoOpILi2EEENS3_ILi3EEENS3_ILi4EEENS3_ILi5EEENS3_ILi6EEEE15RunInterceptorsEv, symObjAddr: 0x6B60, symBinAddr: 0x15438, symSize: 0x8C }
  - { offset: 0x172BF5, size: 0x8, addend: 0x0, symName: __ZN4grpc8internal9CallOpSetINS0_25CallOpSendInitialMetadataENS0_8CallNoOpILi2EEENS3_ILi3EEENS3_ILi4EEENS3_ILi5EEENS3_ILi6EEEE15RunInterceptorsEv, symObjAddr: 0x6B60, symBinAddr: 0x15438, symSize: 0x8C }
  - { offset: 0x172D90, size: 0x8, addend: 0x0, symName: __ZN4grpc8internal9CallOpSetINS0_25CallOpSendInitialMetadataENS0_8CallNoOpILi2EEENS3_ILi3EEENS3_ILi4EEENS3_ILi5EEENS3_ILi6EEEE11core_cq_tagEv, symObjAddr: 0x5DAC, symBinAddr: 0x147E4, symSize: 0x8 }
  - { offset: 0x172DD6, size: 0x8, addend: 0x0, symName: __ZN4grpc8internal9CallOpSetINS0_25CallOpSendInitialMetadataENS0_8CallNoOpILi2EEENS3_ILi3EEENS3_ILi4EEENS3_ILi5EEENS3_ILi6EEEE17SetHijackingStateEv, symObjAddr: 0x5DB4, symBinAddr: 0x147EC, symSize: 0xC }
  - { offset: 0x172E56, size: 0x8, addend: 0x0, symName: __ZN4grpc8internal25CallOpSendInitialMetadata5AddOpEP7grpc_opPm, symObjAddr: 0x6BEC, symBinAddr: 0x154C4, symSize: 0xF4 }
  - { offset: 0x173211, size: 0x8, addend: 0x0, symName: __ZN4grpc8internal9CallOpSetINS0_25CallOpSendInitialMetadataENS0_8CallNoOpILi2EEENS3_ILi3EEENS3_ILi4EEENS3_ILi5EEENS3_ILi6EEEE32ContinueFillOpsAfterInterceptionEv.cold.1, symObjAddr: 0xA73C, symBinAddr: 0x2FCBC, symSize: 0x28 }
  - { offset: 0x173229, size: 0x8, addend: 0x0, symName: __ZN4grpc8internal9CallOpSetINS0_25CallOpSendInitialMetadataENS0_8CallNoOpILi2EEENS3_ILi3EEENS3_ILi4EEENS3_ILi5EEENS3_ILi6EEEE39ContinueFinalizeResultAfterInterceptionEv, symObjAddr: 0x5EE4, symBinAddr: 0x1491C, symSize: 0x5C }
  - { offset: 0x1732B0, size: 0x8, addend: 0x0, symName: __ZN4grpc8internal27InterceptorBatchMethodsImplD1Ev, symObjAddr: 0x5F40, symBinAddr: 0x14978, symSize: 0x4 }
  - { offset: 0x1732C3, size: 0x8, addend: 0x0, symName: __ZN4grpc8internal9CallOpSetINS0_25CallOpSendInitialMetadataENS0_8CallNoOpILi2EEENS3_ILi3EEENS3_ILi4EEENS3_ILi5EEENS3_ILi6EEEE39ContinueFinalizeResultAfterInterceptionEv.cold.1, symObjAddr: 0xA764, symBinAddr: 0x2FCE4, symSize: 0x20 }
  - { offset: 0x1732DB, size: 0x8, addend: 0x0, symName: __ZN4grpc8internal27InterceptorBatchMethodsImplD1Ev, symObjAddr: 0x5F40, symBinAddr: 0x14978, symSize: 0x4 }
  - { offset: 0x1732FE, size: 0x8, addend: 0x0, symName: __ZN4grpc8internal27InterceptorBatchMethodsImplD1Ev, symObjAddr: 0x5F40, symBinAddr: 0x14978, symSize: 0x4 }
  - { offset: 0x173312, size: 0x8, addend: 0x0, symName: __ZN4grpc8internal27InterceptorBatchMethodsImplD0Ev, symObjAddr: 0x5F44, symBinAddr: 0x1497C, symSize: 0x14 }
  - { offset: 0x17336E, size: 0x8, addend: 0x0, symName: __ZN4grpc8internal27InterceptorBatchMethodsImpl26QueryInterceptionHookPointENS_12experimental22InterceptionHookPointsE, symObjAddr: 0x5F58, symBinAddr: 0x14990, symSize: 0xC }
  - { offset: 0x1733DB, size: 0x8, addend: 0x0, symName: __ZN4grpc8internal27InterceptorBatchMethodsImpl7ProceedEv, symObjAddr: 0x5F64, symBinAddr: 0x1499C, symSize: 0x48 }
  - { offset: 0x173480, size: 0x8, addend: 0x0, symName: __ZN4grpc8internal27InterceptorBatchMethodsImpl6HijackEv, symObjAddr: 0x5FAC, symBinAddr: 0x149E4, symSize: 0x94 }
  - { offset: 0x17349A, size: 0x8, addend: 0x0, symName: __ZN4grpc8internal27InterceptorBatchMethodsImpl13ProceedClientEv, symObjAddr: 0x6454, symBinAddr: 0x14E8C, symSize: 0xE4 }
  - { offset: 0x17356A, size: 0x8, addend: 0x0, symName: __ZN4grpc8internal27InterceptorBatchMethodsImpl13ProceedServerEv, symObjAddr: 0x6538, symBinAddr: 0x14F70, symSize: 0x98 }
  - { offset: 0x17364C, size: 0x8, addend: 0x0, symName: __ZN4grpc8internal27InterceptorBatchMethodsImpl7ProceedEv.cold.1, symObjAddr: 0xA784, symBinAddr: 0x2FD04, symSize: 0x48 }
  - { offset: 0x1736DF, size: 0x8, addend: 0x0, symName: __ZN4grpc8internal27InterceptorBatchMethodsImpl6HijackEv, symObjAddr: 0x5FAC, symBinAddr: 0x149E4, symSize: 0x94 }
  - { offset: 0x17379A, size: 0x8, addend: 0x0, symName: __ZN4grpc8internal27InterceptorBatchMethodsImpl24GetSerializedSendMessageEv, symObjAddr: 0x6040, symBinAddr: 0x14A78, symSize: 0xD8 }
  - { offset: 0x173815, size: 0x8, addend: 0x0, symName: __ZN4grpc12experimental13ServerRpcInfo14RunInterceptorEPNS0_23InterceptorBatchMethodsEm, symObjAddr: 0x661C, symBinAddr: 0x15008, symSize: 0x4C }
  - { offset: 0x173826, size: 0x8, addend: 0x0, symName: __ZN4grpc8internal27InterceptorBatchMethodsImpl6HijackEv.cold.1, symObjAddr: 0xA7CC, symBinAddr: 0x2FD4C, symSize: 0x28 }
  - { offset: 0x17383E, size: 0x8, addend: 0x0, symName: __ZN4grpc8internal27InterceptorBatchMethodsImpl6HijackEv.cold.2, symObjAddr: 0xA7F4, symBinAddr: 0x2FD74, symSize: 0x28 }
  - { offset: 0x1738B2, size: 0x8, addend: 0x0, symName: __ZN4grpc8internal27InterceptorBatchMethodsImpl24GetSerializedSendMessageEv, symObjAddr: 0x6040, symBinAddr: 0x14A78, symSize: 0xD8 }
  - { offset: 0x173C57, size: 0x8, addend: 0x0, symName: __ZN4grpc8internal27InterceptorBatchMethodsImpl24GetSerializedSendMessageEv.cold.1, symObjAddr: 0xA81C, symBinAddr: 0x2FD9C, symSize: 0x48 }
  - { offset: 0x173CEA, size: 0x8, addend: 0x0, symName: __ZN4grpc8internal27InterceptorBatchMethodsImpl14GetSendMessageEv, symObjAddr: 0x6118, symBinAddr: 0x14B50, symSize: 0x34 }
  - { offset: 0x173D44, size: 0x8, addend: 0x0, symName: __ZN4grpc8internal27InterceptorBatchMethodsImpl17ModifySendMessageEPKv, symObjAddr: 0x614C, symBinAddr: 0x14B84, symSize: 0x34 }
  - { offset: 0x173D5E, size: 0x8, addend: 0x0, symName: __ZN4grpc8internal27InterceptorBatchMethodsImpl14GetSendMessageEv.cold.1, symObjAddr: 0xA864, symBinAddr: 0x2FDE4, symSize: 0x48 }
  - { offset: 0x173DF1, size: 0x8, addend: 0x0, symName: __ZN4grpc8internal27InterceptorBatchMethodsImpl17ModifySendMessageEPKv, symObjAddr: 0x614C, symBinAddr: 0x14B84, symSize: 0x34 }
  - { offset: 0x173E5B, size: 0x8, addend: 0x0, symName: __ZN4grpc8internal27InterceptorBatchMethodsImpl20GetSendMessageStatusEv, symObjAddr: 0x6180, symBinAddr: 0x14BB8, symSize: 0x14 }
  - { offset: 0x173E75, size: 0x8, addend: 0x0, symName: __ZN4grpc8internal27InterceptorBatchMethodsImpl17ModifySendMessageEPKv.cold.1, symObjAddr: 0xA8AC, symBinAddr: 0x2FE2C, symSize: 0x48 }
  - { offset: 0x173F08, size: 0x8, addend: 0x0, symName: __ZN4grpc8internal27InterceptorBatchMethodsImpl20GetSendMessageStatusEv, symObjAddr: 0x6180, symBinAddr: 0x14BB8, symSize: 0x14 }
  - { offset: 0x173F2F, size: 0x8, addend: 0x0, symName: __ZN4grpc8internal27InterceptorBatchMethodsImpl22GetSendInitialMetadataEv, symObjAddr: 0x6194, symBinAddr: 0x14BCC, symSize: 0x8 }
  - { offset: 0x173F91, size: 0x8, addend: 0x0, symName: __ZN4grpc8internal27InterceptorBatchMethodsImpl13GetSendStatusEv, symObjAddr: 0x619C, symBinAddr: 0x14BD4, symSize: 0x14 }
  - { offset: 0x173FF2, size: 0x8, addend: 0x0, symName: __ZN4grpc6StatusC2ENS_10StatusCodeERKNSt3__112basic_stringIcNS2_11char_traitsIcEENS2_9allocatorIcEEEESA_, symObjAddr: 0x66B4, symBinAddr: 0x15054, symSize: 0xA0 }
  - { offset: 0x174297, size: 0x8, addend: 0x0, symName: __ZN4grpc8internal27InterceptorBatchMethodsImpl16ModifySendStatusERKNS_6StatusE, symObjAddr: 0x61B0, symBinAddr: 0x14BE8, symSize: 0xDC }
  - { offset: 0x17466A, size: 0x8, addend: 0x0, symName: __ZN4grpc8internal27InterceptorBatchMethodsImpl23GetSendTrailingMetadataEv, symObjAddr: 0x628C, symBinAddr: 0x14CC4, symSize: 0x8 }
  - { offset: 0x174691, size: 0x8, addend: 0x0, symName: __ZN4grpc8internal27InterceptorBatchMethodsImpl14GetRecvMessageEv, symObjAddr: 0x6294, symBinAddr: 0x14CCC, symSize: 0x8 }
  - { offset: 0x1746CE, size: 0x8, addend: 0x0, symName: __ZN4grpc8internal27InterceptorBatchMethodsImpl22GetRecvInitialMetadataEv, symObjAddr: 0x629C, symBinAddr: 0x14CD4, symSize: 0x28 }
  - { offset: 0x174727, size: 0x8, addend: 0x0, symName: __ZN4grpc8internal11MetadataMap7FillMapEv, symObjAddr: 0x6754, symBinAddr: 0x150F4, symSize: 0xB8 }
  - { offset: 0x1748BF, size: 0x8, addend: 0x0, symName: __ZN4grpc8internal27InterceptorBatchMethodsImpl13GetRecvStatusEv, symObjAddr: 0x62C4, symBinAddr: 0x14CFC, symSize: 0x8 }
  - { offset: 0x1748E6, size: 0x8, addend: 0x0, symName: __ZN4grpc8internal27InterceptorBatchMethodsImpl23GetRecvTrailingMetadataEv, symObjAddr: 0x62CC, symBinAddr: 0x14D04, symSize: 0x28 }
  - { offset: 0x1749BF, size: 0x8, addend: 0x0, symName: __ZN4grpc8internal27InterceptorBatchMethodsImpl21GetInterceptedChannelEv, symObjAddr: 0x62F4, symBinAddr: 0x14D2C, symSize: 0x68 }
  - { offset: 0x174A82, size: 0x8, addend: 0x0, symName: __ZN4grpc8internal27InterceptorBatchMethodsImpl23FailHijackedRecvMessageEv, symObjAddr: 0x635C, symBinAddr: 0x14D94, symSize: 0x34 }
  - { offset: 0x174AAC, size: 0x8, addend: 0x0, symName: __ZN4grpc8internal27InterceptorBatchMethodsImpl23FailHijackedSendMessageEv, symObjAddr: 0x6390, symBinAddr: 0x14DC8, symSize: 0x34 }
  - { offset: 0x174ABF, size: 0x8, addend: 0x0, symName: __ZN4grpc8internal27InterceptorBatchMethodsImpl23FailHijackedRecvMessageEv.cold.1, symObjAddr: 0xA8F4, symBinAddr: 0x2FE74, symSize: 0x28 }
  - { offset: 0x174AD7, size: 0x8, addend: 0x0, symName: __ZN4grpc8internal27InterceptorBatchMethodsImpl23FailHijackedSendMessageEv, symObjAddr: 0x6390, symBinAddr: 0x14DC8, symSize: 0x34 }
  - { offset: 0x174B01, size: 0x8, addend: 0x0, symName: __ZN4grpc8internal27InterceptorBatchMethodsImplD2Ev, symObjAddr: 0x63C4, symBinAddr: 0x14DFC, symSize: 0x90 }
  - { offset: 0x174B14, size: 0x8, addend: 0x0, symName: __ZN4grpc8internal27InterceptorBatchMethodsImpl23FailHijackedSendMessageEv.cold.1, symObjAddr: 0xA91C, symBinAddr: 0x2FE9C, symSize: 0x28 }
  - { offset: 0x174B73, size: 0x8, addend: 0x0, symName: __ZN4grpc12experimental13ServerRpcInfo14RunInterceptorEPNS0_23InterceptorBatchMethodsEm, symObjAddr: 0x661C, symBinAddr: 0x15008, symSize: 0x4C }
  - { offset: 0x174C2C, size: 0x8, addend: 0x0, symName: __ZN4grpc8internal27InterceptorBatchMethodsImpl13ProceedServerEv.cold.1, symObjAddr: 0xA944, symBinAddr: 0x2FEC4, symSize: 0x28 }
  - { offset: 0x174CAB, size: 0x8, addend: 0x0, symName: __ZN4grpc12experimental13ServerRpcInfo14RunInterceptorEPNS0_23InterceptorBatchMethodsEm.cold.1, symObjAddr: 0xA9B0, symBinAddr: 0x2FEEC, symSize: 0x44 }
  - { offset: 0x174ECB, size: 0x8, addend: 0x0, symName: __ZNSt3__16__treeINS_12__value_typeIN4grpc10string_refES3_EENS_19__map_value_compareIS3_S4_NS_4lessIS3_EELb1EEENS_9allocatorIS4_EEE15__emplace_multiIJNS_4pairIS3_S3_EEEEENS_15__tree_iteratorIS4_PNS_11__tree_nodeIS4_PvEElEEDpOT_, symObjAddr: 0x680C, symBinAddr: 0x151AC, symSize: 0x90 }
  - { offset: 0x1754EB, size: 0x8, addend: 0x0, symName: __ZNSt3__16__treeINS_12__value_typeIN4grpc10string_refES3_EENS_19__map_value_compareIS3_S4_NS_4lessIS3_EELb1EEENS_9allocatorIS4_EEE16__find_leaf_highERPNS_15__tree_end_nodeIPNS_16__tree_node_baseIPvEEEERKS3_, symObjAddr: 0x689C, symBinAddr: 0x1523C, symSize: 0x8C }
  - { offset: 0x1757E5, size: 0x8, addend: 0x0, symName: __ZN4grpc8internal18InterceptedChannelD1Ev, symObjAddr: 0x69D8, symBinAddr: 0x152C8, symSize: 0x14 }
  - { offset: 0x175810, size: 0x8, addend: 0x0, symName: __ZN4grpc8internal18InterceptedChannelD1Ev, symObjAddr: 0x69D8, symBinAddr: 0x152C8, symSize: 0x14 }
  - { offset: 0x17582A, size: 0x8, addend: 0x0, symName: __ZN4grpc8internal18InterceptedChannelD0Ev, symObjAddr: 0x69EC, symBinAddr: 0x152DC, symSize: 0x4 }
  - { offset: 0x175853, size: 0x8, addend: 0x0, symName: __ZN4grpc8internal18InterceptedChannel8GetStateEb, symObjAddr: 0x69F0, symBinAddr: 0x152E0, symSize: 0x10 }
  - { offset: 0x1758A2, size: 0x8, addend: 0x0, symName: __ZN4grpc8internal18InterceptedChannel10CreateCallERKNS0_9RpcMethodEPNS_13ClientContextEPNS_15CompletionQueueE, symObjAddr: 0x6A00, symBinAddr: 0x152F0, symSize: 0x14 }
  - { offset: 0x175920, size: 0x8, addend: 0x0, symName: __ZN4grpc8internal18InterceptedChannel16PerformOpsOnCallEPNS0_18CallOpSetInterfaceEPNS0_4CallE, symObjAddr: 0x6A14, symBinAddr: 0x15304, symSize: 0x10 }
  - { offset: 0x175980, size: 0x8, addend: 0x0, symName: __ZN4grpc8internal18InterceptedChannel14RegisterMethodEPKc, symObjAddr: 0x6A24, symBinAddr: 0x15314, symSize: 0x10 }
  - { offset: 0x1759CA, size: 0x8, addend: 0x0, symName: __ZN4grpc8internal18InterceptedChannel23NotifyOnStateChangeImplE23grpc_connectivity_state12gpr_timespecPNS_15CompletionQueueEPv, symObjAddr: 0x6A34, symBinAddr: 0x15324, symSize: 0x10 }
  - { offset: 0x175A5B, size: 0x8, addend: 0x0, symName: __ZN4grpc8internal18InterceptedChannel22WaitForStateChangeImplE23grpc_connectivity_state12gpr_timespec, symObjAddr: 0x6A44, symBinAddr: 0x15334, symSize: 0x10 }
  - { offset: 0x175AC0, size: 0x8, addend: 0x0, symName: __ZN4grpc8internal18InterceptedChannel10CallbackCQEv, symObjAddr: 0x6A6C, symBinAddr: 0x15344, symSize: 0x10 }
  - { offset: 0x175B09, size: 0x8, addend: 0x0, symName: __ZN4grpc8internal27InterceptorBatchMethodsImpl21RunClientInterceptorsEv, symObjAddr: 0x6AE8, symBinAddr: 0x153C0, symSize: 0x44 }
  - { offset: 0x175B8B, size: 0x8, addend: 0x0, symName: __ZN4grpc8internal27InterceptorBatchMethodsImpl21RunServerInterceptorsEv, symObjAddr: 0x6B2C, symBinAddr: 0x15404, symSize: 0x34 }
  - { offset: 0x175C0D, size: 0x8, addend: 0x0, symName: __ZN4grpc8internal27InterceptorBatchMethodsImpl15RunInterceptorsEv.cold.1, symObjAddr: 0xA9F4, symBinAddr: 0x2FF30, symSize: 0x28 }
  - { offset: 0x175E2C, size: 0x8, addend: 0x0, symName: __ZN4grpc8internal9CallOpSetINS0_25CallOpSendInitialMetadataENS0_17CallOpSendMessageENS0_22CallOpServerSendStatusENS0_8CallNoOpILi4EEENS5_ILi5EEENS5_ILi6EEEED0Ev, symObjAddr: 0x6F98, symBinAddr: 0x15834, symSize: 0x90 }
  - { offset: 0x176251, size: 0x8, addend: 0x0, symName: __ZN4grpc8internal9CallOpSetINS0_25CallOpSendInitialMetadataENS0_17CallOpSendMessageENS0_22CallOpServerSendStatusENS0_8CallNoOpILi4EEENS5_ILi5EEENS5_ILi6EEEE14FinalizeResultEPPvPb, symObjAddr: 0x7028, symBinAddr: 0x158C4, symSize: 0xFC }
  - { offset: 0x17642D, size: 0x8, addend: 0x0, symName: __ZN4grpc8internal17CallOpSendMessage8FinishOpEPb, symObjAddr: 0x7340, symBinAddr: 0x15BDC, symSize: 0x68 }
  - { offset: 0x176489, size: 0x8, addend: 0x0, symName: __ZN4grpc8internal17CallOpSendMessage30SetFinishInterceptionHookPointEPNS0_27InterceptorBatchMethodsImplE, symObjAddr: 0x73A8, symBinAddr: 0x15C44, symSize: 0x108 }
  - { offset: 0x1766F9, size: 0x8, addend: 0x0, symName: __ZN4grpc8internal9CallOpSetINS0_25CallOpSendInitialMetadataENS0_17CallOpSendMessageENS0_22CallOpServerSendStatusENS0_8CallNoOpILi4EEENS5_ILi5EEENS5_ILi6EEEE7FillOpsEPNS0_4CallE, symObjAddr: 0x7124, symBinAddr: 0x159C0, symSize: 0x60 }
  - { offset: 0x17677D, size: 0x8, addend: 0x0, symName: __ZN4grpc8internal9CallOpSetINS0_25CallOpSendInitialMetadataENS0_17CallOpSendMessageENS0_22CallOpServerSendStatusENS0_8CallNoOpILi4EEENS5_ILi5EEENS5_ILi6EEEE15RunInterceptorsEv, symObjAddr: 0x7720, symBinAddr: 0x15F58, symSize: 0xE4 }
  - { offset: 0x176A30, size: 0x8, addend: 0x0, symName: __ZN4grpc8internal9CallOpSetINS0_25CallOpSendInitialMetadataENS0_17CallOpSendMessageENS0_22CallOpServerSendStatusENS0_8CallNoOpILi4EEENS5_ILi5EEENS5_ILi6EEEE11core_cq_tagEv, symObjAddr: 0x7184, symBinAddr: 0x15A20, symSize: 0x8 }
  - { offset: 0x176A95, size: 0x8, addend: 0x0, symName: __ZN4grpc8internal9CallOpSetINS0_25CallOpSendInitialMetadataENS0_17CallOpSendMessageENS0_22CallOpServerSendStatusENS0_8CallNoOpILi4EEENS5_ILi5EEENS5_ILi6EEEE17SetHijackingStateEv, symObjAddr: 0x718C, symBinAddr: 0x15A28, symSize: 0x14 }
  - { offset: 0x176B36, size: 0x8, addend: 0x0, symName: __ZN4grpc8internal17CallOpSendMessage5AddOpEP7grpc_opPm, symObjAddr: 0x7908, symBinAddr: 0x16140, symSize: 0x18C }
  - { offset: 0x176FF3, size: 0x8, addend: 0x0, symName: __ZN4grpc8internal22CallOpServerSendStatus5AddOpEP7grpc_opPm, symObjAddr: 0x7A94, symBinAddr: 0x162CC, symSize: 0x12C }
  - { offset: 0x177184, size: 0x8, addend: 0x0, symName: __ZN4grpc8internal9CallOpSetINS0_25CallOpSendInitialMetadataENS0_17CallOpSendMessageENS0_22CallOpServerSendStatusENS0_8CallNoOpILi4EEENS5_ILi5EEENS5_ILi6EEEE39ContinueFinalizeResultAfterInterceptionEv, symObjAddr: 0x72E4, symBinAddr: 0x15B80, symSize: 0x5C }
  - { offset: 0x17720B, size: 0x8, addend: 0x0, symName: __ZN4grpc8internal17CallOpSendMessage8FinishOpEPb, symObjAddr: 0x7340, symBinAddr: 0x15BDC, symSize: 0x68 }
  - { offset: 0x1772B0, size: 0x8, addend: 0x0, symName: __ZNSt3__18functionIFN4grpc6StatusEPKvEEaSERKS6_, symObjAddr: 0x74B0, symBinAddr: 0x15D4C, symSize: 0x98 }
  - { offset: 0x177521, size: 0x8, addend: 0x0, symName: __ZNSt3__110__function12__value_funcIFN4grpc6StatusEPKvEE4swapB8ne180100ERS7_, symObjAddr: 0x75AC, symBinAddr: 0x15DE4, symSize: 0x174 }
  - { offset: 0x1776E0, size: 0x8, addend: 0x0, symName: __ZN4grpc8internal17CallOpSendMessage24SetInterceptionHookPointEPNS0_27InterceptorBatchMethodsImplE, symObjAddr: 0x7804, symBinAddr: 0x1603C, symSize: 0x104 }
  - { offset: 0x177A20, size: 0x8, addend: 0x0, symName: __ZN4grpc8internal22CallbackWithSuccessTag5ClearEv, symObjAddr: 0x7C7C, symBinAddr: 0x164B4, symSize: 0x6C }
  - { offset: 0x177BA0, size: 0x8, addend: 0x0, symName: __ZN4grpc8internal22CallbackWithSuccessTag3SetEP9grpc_callNSt3__18functionIFvbEEEPNS0_18CompletionQueueTagEb.cold.1, symObjAddr: 0xAA64, symBinAddr: 0x2FF58, symSize: 0x44 }
  - { offset: 0x177C33, size: 0x8, addend: 0x0, symName: __ZN4grpc8internal22CallbackWithSuccessTag9StaticRunEP29grpc_completion_queue_functori, symObjAddr: 0x7FA4, symBinAddr: 0x167DC, symSize: 0xC }
  - { offset: 0x177C7D, size: 0x8, addend: 0x0, symName: __ZN4grpc8internal22CallbackWithSuccessTag3RunEb, symObjAddr: 0x8040, symBinAddr: 0x167E8, symSize: 0x6C }
  - { offset: 0x177D22, size: 0x8, addend: 0x0, symName: __ZN4grpc8internal16CatchingCallbackIRNSt3__18functionIFvbEEEJRbEEEvOT_DpOT0_, symObjAddr: 0x80AC, symBinAddr: 0x16854, symSize: 0x4C }
  - { offset: 0x177D35, size: 0x8, addend: 0x0, symName: __ZN4grpc8internal22CallbackWithSuccessTag3RunEb.cold.1, symObjAddr: 0xAAA8, symBinAddr: 0x2FF9C, symSize: 0x28 }
  - { offset: 0x177D9D, size: 0x8, addend: 0x0, symName: __ZNSt3__110__function6__funcIZN4grpc8internal20CallbackUnaryHandlerINS2_10ByteBufferES5_E23ServerCallbackUnaryImpl6FinishENS2_6StatusEEUlbE_NS_9allocatorIS9_EEFvbEED1Ev, symObjAddr: 0x80F8, symBinAddr: 0x168A0, symSize: 0x4 }
  - { offset: 0x177DC8, size: 0x8, addend: 0x0, symName: __ZNSt3__110__function6__funcIZN4grpc8internal20CallbackUnaryHandlerINS2_10ByteBufferES5_E23ServerCallbackUnaryImpl6FinishENS2_6StatusEEUlbE_NS_9allocatorIS9_EEFvbEED0Ev, symObjAddr: 0x80FC, symBinAddr: 0x168A4, symSize: 0x4 }
  - { offset: 0x177FCB, size: 0x8, addend: 0x0, symName: __ZNKSt3__110__function6__funcIZN4grpc8internal20CallbackUnaryHandlerINS2_10ByteBufferES5_E23ServerCallbackUnaryImpl6FinishENS2_6StatusEEUlbE_NS_9allocatorIS9_EEFvbEE7__cloneEv, symObjAddr: 0x8100, symBinAddr: 0x168A8, symSize: 0x34 }
  - { offset: 0x1782C4, size: 0x8, addend: 0x0, symName: __ZNKSt3__110__function6__funcIZN4grpc8internal20CallbackUnaryHandlerINS2_10ByteBufferES5_E23ServerCallbackUnaryImpl6FinishENS2_6StatusEEUlbE_NS_9allocatorIS9_EEFvbEE7__cloneEPNS0_6__baseISC_EE, symObjAddr: 0x8134, symBinAddr: 0x168DC, symSize: 0x14 }
  - { offset: 0x1782FC, size: 0x8, addend: 0x0, symName: __ZNKSt3__110__function6__funcIZN4grpc8internal20CallbackUnaryHandlerINS2_10ByteBufferES5_E23ServerCallbackUnaryImpl6FinishENS2_6StatusEEUlbE_NS_9allocatorIS9_EEFvbEE7__cloneEPNS0_6__baseISC_EE, symObjAddr: 0x8134, symBinAddr: 0x168DC, symSize: 0x14 }
  - { offset: 0x17832A, size: 0x8, addend: 0x0, symName: __ZNKSt3__110__function6__funcIZN4grpc8internal20CallbackUnaryHandlerINS2_10ByteBufferES5_E23ServerCallbackUnaryImpl6FinishENS2_6StatusEEUlbE_NS_9allocatorIS9_EEFvbEE7__cloneEPNS0_6__baseISC_EE, symObjAddr: 0x8134, symBinAddr: 0x168DC, symSize: 0x14 }
  - { offset: 0x178358, size: 0x8, addend: 0x0, symName: __ZNKSt3__110__function6__funcIZN4grpc8internal20CallbackUnaryHandlerINS2_10ByteBufferES5_E23ServerCallbackUnaryImpl6FinishENS2_6StatusEEUlbE_NS_9allocatorIS9_EEFvbEE7__cloneEPNS0_6__baseISC_EE, symObjAddr: 0x8134, symBinAddr: 0x168DC, symSize: 0x14 }
  - { offset: 0x17836D, size: 0x8, addend: 0x0, symName: __ZNKSt3__110__function6__funcIZN4grpc8internal20CallbackUnaryHandlerINS2_10ByteBufferES5_E23ServerCallbackUnaryImpl6FinishENS2_6StatusEEUlbE_NS_9allocatorIS9_EEFvbEE7__cloneEPNS0_6__baseISC_EE, symObjAddr: 0x8134, symBinAddr: 0x168DC, symSize: 0x14 }
  - { offset: 0x178381, size: 0x8, addend: 0x0, symName: __ZNKSt3__110__function6__funcIZN4grpc8internal20CallbackUnaryHandlerINS2_10ByteBufferES5_E23ServerCallbackUnaryImpl6FinishENS2_6StatusEEUlbE_NS_9allocatorIS9_EEFvbEE7__cloneEPNS0_6__baseISC_EE, symObjAddr: 0x8134, symBinAddr: 0x168DC, symSize: 0x14 }
  - { offset: 0x178395, size: 0x8, addend: 0x0, symName: __ZNKSt3__110__function6__funcIZN4grpc8internal20CallbackUnaryHandlerINS2_10ByteBufferES5_E23ServerCallbackUnaryImpl6FinishENS2_6StatusEEUlbE_NS_9allocatorIS9_EEFvbEE7__cloneEPNS0_6__baseISC_EE, symObjAddr: 0x8134, symBinAddr: 0x168DC, symSize: 0x14 }
  - { offset: 0x1783AA, size: 0x8, addend: 0x0, symName: __ZNKSt3__110__function6__funcIZN4grpc8internal20CallbackUnaryHandlerINS2_10ByteBufferES5_E23ServerCallbackUnaryImpl6FinishENS2_6StatusEEUlbE_NS_9allocatorIS9_EEFvbEE7__cloneEPNS0_6__baseISC_EE, symObjAddr: 0x8134, symBinAddr: 0x168DC, symSize: 0x14 }
  - { offset: 0x1783C2, size: 0x8, addend: 0x0, symName: __ZNSt3__110__function6__funcIZN4grpc8internal20CallbackUnaryHandlerINS2_10ByteBufferES5_E23ServerCallbackUnaryImpl6FinishENS2_6StatusEEUlbE_NS_9allocatorIS9_EEFvbEE7destroyEv, symObjAddr: 0x8148, symBinAddr: 0x168F0, symSize: 0x4 }
  - { offset: 0x178415, size: 0x8, addend: 0x0, symName: __ZNSt3__110__function6__funcIZN4grpc8internal20CallbackUnaryHandlerINS2_10ByteBufferES5_E23ServerCallbackUnaryImpl6FinishENS2_6StatusEEUlbE_NS_9allocatorIS9_EEFvbEE18destroy_deallocateEv, symObjAddr: 0x814C, symBinAddr: 0x168F4, symSize: 0x4 }
  - { offset: 0x17844B, size: 0x8, addend: 0x0, symName: __ZNSt3__110__function6__funcIZN4grpc8internal20CallbackUnaryHandlerINS2_10ByteBufferES5_E23ServerCallbackUnaryImpl6FinishENS2_6StatusEEUlbE_NS_9allocatorIS9_EEFvbEE18destroy_deallocateEv, symObjAddr: 0x814C, symBinAddr: 0x168F4, symSize: 0x4 }
  - { offset: 0x17846E, size: 0x8, addend: 0x0, symName: __ZNSt3__110__function6__funcIZN4grpc8internal20CallbackUnaryHandlerINS2_10ByteBufferES5_E23ServerCallbackUnaryImpl6FinishENS2_6StatusEEUlbE_NS_9allocatorIS9_EEFvbEE18destroy_deallocateEv, symObjAddr: 0x814C, symBinAddr: 0x168F4, symSize: 0x4 }
  - { offset: 0x17849A, size: 0x8, addend: 0x0, symName: __ZNSt3__110__function6__funcIZN4grpc8internal20CallbackUnaryHandlerINS2_10ByteBufferES5_E23ServerCallbackUnaryImpl6FinishENS2_6StatusEEUlbE_NS_9allocatorIS9_EEFvbEE18destroy_deallocateEv, symObjAddr: 0x814C, symBinAddr: 0x168F4, symSize: 0x4 }
  - { offset: 0x1784C0, size: 0x8, addend: 0x0, symName: __ZNSt3__110__function6__funcIZN4grpc8internal20CallbackUnaryHandlerINS2_10ByteBufferES5_E23ServerCallbackUnaryImpl6FinishENS2_6StatusEEUlbE_NS_9allocatorIS9_EEFvbEE18destroy_deallocateEv, symObjAddr: 0x814C, symBinAddr: 0x168F4, symSize: 0x4 }
  - { offset: 0x178562, size: 0x8, addend: 0x0, symName: __ZNSt3__110__function6__funcIZN4grpc8internal20CallbackUnaryHandlerINS2_10ByteBufferES5_E23ServerCallbackUnaryImpl6FinishENS2_6StatusEEUlbE_NS_9allocatorIS9_EEFvbEEclEOb, symObjAddr: 0x8150, symBinAddr: 0x168F8, symSize: 0x58 }
  - { offset: 0x1786D6, size: 0x8, addend: 0x0, symName: __ZNKSt3__110__function6__funcIZN4grpc8internal20CallbackUnaryHandlerINS2_10ByteBufferES5_E23ServerCallbackUnaryImpl6FinishENS2_6StatusEEUlbE_NS_9allocatorIS9_EEFvbEE6targetERKSt9type_info, symObjAddr: 0x81A8, symBinAddr: 0x16950, symSize: 0x3C }
  - { offset: 0x178726, size: 0x8, addend: 0x0, symName: __ZNKSt3__110__function6__funcIZN4grpc8internal20CallbackUnaryHandlerINS2_10ByteBufferES5_E23ServerCallbackUnaryImpl6FinishENS2_6StatusEEUlbE_NS_9allocatorIS9_EEFvbEE11target_typeEv, symObjAddr: 0x81E4, symBinAddr: 0x1698C, symSize: 0xC }
  - { offset: 0x17891F, size: 0x8, addend: 0x0, symName: __ZNSt3__110__function6__funcIZN4grpc8internal17CallOpSendMessage14SendMessagePtrINS2_10ByteBufferEEENS2_6StatusEPKT_NS2_12WriteOptionsEEUlPKvE_NS_9allocatorISE_EEFS7_SD_EED1Ev, symObjAddr: 0x8298, symBinAddr: 0x16A40, symSize: 0x4 }
  - { offset: 0x17894A, size: 0x8, addend: 0x0, symName: __ZNSt3__110__function6__funcIZN4grpc8internal17CallOpSendMessage14SendMessagePtrINS2_10ByteBufferEEENS2_6StatusEPKT_NS2_12WriteOptionsEEUlPKvE_NS_9allocatorISE_EEFS7_SD_EED0Ev, symObjAddr: 0x829C, symBinAddr: 0x16A44, symSize: 0x4 }
  - { offset: 0x178B4D, size: 0x8, addend: 0x0, symName: __ZNKSt3__110__function6__funcIZN4grpc8internal17CallOpSendMessage14SendMessagePtrINS2_10ByteBufferEEENS2_6StatusEPKT_NS2_12WriteOptionsEEUlPKvE_NS_9allocatorISE_EEFS7_SD_EE7__cloneEv, symObjAddr: 0x82A0, symBinAddr: 0x16A48, symSize: 0x38 }
  - { offset: 0x178E46, size: 0x8, addend: 0x0, symName: __ZNKSt3__110__function6__funcIZN4grpc8internal17CallOpSendMessage14SendMessagePtrINS2_10ByteBufferEEENS2_6StatusEPKT_NS2_12WriteOptionsEEUlPKvE_NS_9allocatorISE_EEFS7_SD_EE7__cloneEPNS0_6__baseISH_EE, symObjAddr: 0x82D8, symBinAddr: 0x16A80, symSize: 0x18 }
  - { offset: 0x178E7E, size: 0x8, addend: 0x0, symName: __ZNKSt3__110__function6__funcIZN4grpc8internal17CallOpSendMessage14SendMessagePtrINS2_10ByteBufferEEENS2_6StatusEPKT_NS2_12WriteOptionsEEUlPKvE_NS_9allocatorISE_EEFS7_SD_EE7__cloneEPNS0_6__baseISH_EE, symObjAddr: 0x82D8, symBinAddr: 0x16A80, symSize: 0x18 }
  - { offset: 0x178EAC, size: 0x8, addend: 0x0, symName: __ZNKSt3__110__function6__funcIZN4grpc8internal17CallOpSendMessage14SendMessagePtrINS2_10ByteBufferEEENS2_6StatusEPKT_NS2_12WriteOptionsEEUlPKvE_NS_9allocatorISE_EEFS7_SD_EE7__cloneEPNS0_6__baseISH_EE, symObjAddr: 0x82D8, symBinAddr: 0x16A80, symSize: 0x18 }
  - { offset: 0x178F44, size: 0x8, addend: 0x0, symName: __ZNSt3__110__function6__funcIZN4grpc8internal17CallOpSendMessage14SendMessagePtrINS2_10ByteBufferEEENS2_6StatusEPKT_NS2_12WriteOptionsEEUlPKvE_NS_9allocatorISE_EEFS7_SD_EE7destroyEv, symObjAddr: 0x82F0, symBinAddr: 0x16A98, symSize: 0x4 }
  - { offset: 0x178F97, size: 0x8, addend: 0x0, symName: __ZNSt3__110__function6__funcIZN4grpc8internal17CallOpSendMessage14SendMessagePtrINS2_10ByteBufferEEENS2_6StatusEPKT_NS2_12WriteOptionsEEUlPKvE_NS_9allocatorISE_EEFS7_SD_EE18destroy_deallocateEv, symObjAddr: 0x82F4, symBinAddr: 0x16A9C, symSize: 0x4 }
  - { offset: 0x178FCD, size: 0x8, addend: 0x0, symName: __ZNSt3__110__function6__funcIZN4grpc8internal17CallOpSendMessage14SendMessagePtrINS2_10ByteBufferEEENS2_6StatusEPKT_NS2_12WriteOptionsEEUlPKvE_NS_9allocatorISE_EEFS7_SD_EE18destroy_deallocateEv, symObjAddr: 0x82F4, symBinAddr: 0x16A9C, symSize: 0x4 }
  - { offset: 0x178FF0, size: 0x8, addend: 0x0, symName: __ZNSt3__110__function6__funcIZN4grpc8internal17CallOpSendMessage14SendMessagePtrINS2_10ByteBufferEEENS2_6StatusEPKT_NS2_12WriteOptionsEEUlPKvE_NS_9allocatorISE_EEFS7_SD_EE18destroy_deallocateEv, symObjAddr: 0x82F4, symBinAddr: 0x16A9C, symSize: 0x4 }
  - { offset: 0x17901C, size: 0x8, addend: 0x0, symName: __ZNSt3__110__function6__funcIZN4grpc8internal17CallOpSendMessage14SendMessagePtrINS2_10ByteBufferEEENS2_6StatusEPKT_NS2_12WriteOptionsEEUlPKvE_NS_9allocatorISE_EEFS7_SD_EE18destroy_deallocateEv, symObjAddr: 0x82F4, symBinAddr: 0x16A9C, symSize: 0x4 }
  - { offset: 0x179042, size: 0x8, addend: 0x0, symName: __ZNSt3__110__function6__funcIZN4grpc8internal17CallOpSendMessage14SendMessagePtrINS2_10ByteBufferEEENS2_6StatusEPKT_NS2_12WriteOptionsEEUlPKvE_NS_9allocatorISE_EEFS7_SD_EE18destroy_deallocateEv, symObjAddr: 0x82F4, symBinAddr: 0x16A9C, symSize: 0x4 }
  - { offset: 0x17908D, size: 0x8, addend: 0x0, symName: __ZNSt3__110__function6__funcIZN4grpc8internal17CallOpSendMessage14SendMessagePtrINS2_10ByteBufferEEENS2_6StatusEPKT_NS2_12WriteOptionsEEUlPKvE_NS_9allocatorISE_EEFS7_SD_EEclEOSD_, symObjAddr: 0x82F8, symBinAddr: 0x16AA0, symSize: 0x8 }
  - { offset: 0x179108, size: 0x8, addend: 0x0, symName: __ZNSt3__128__invoke_void_return_wrapperIN4grpc6StatusELb0EE6__callB8ne180100IJRZNS1_8internal17CallOpSendMessage14SendMessagePtrINS1_10ByteBufferEEES2_PKT_NS1_12WriteOptionsEEUlPKvE_SE_EEES2_DpOT_, symObjAddr: 0x8348, symBinAddr: 0x16AF0, symSize: 0xA4 }
  - { offset: 0x179438, size: 0x8, addend: 0x0, symName: __ZNKSt3__110__function6__funcIZN4grpc8internal17CallOpSendMessage14SendMessagePtrINS2_10ByteBufferEEENS2_6StatusEPKT_NS2_12WriteOptionsEEUlPKvE_NS_9allocatorISE_EEFS7_SD_EE6targetERKSt9type_info, symObjAddr: 0x8300, symBinAddr: 0x16AA8, symSize: 0x3C }
  - { offset: 0x179488, size: 0x8, addend: 0x0, symName: __ZNKSt3__110__function6__funcIZN4grpc8internal17CallOpSendMessage14SendMessagePtrINS2_10ByteBufferEEENS2_6StatusEPKT_NS2_12WriteOptionsEEUlPKvE_NS_9allocatorISE_EEFS7_SD_EE11target_typeEv, symObjAddr: 0x833C, symBinAddr: 0x16AE4, symSize: 0xC }
  - { offset: 0x17950C, size: 0x8, addend: 0x0, symName: __ZN4grpc19SerializationTraitsINS_10ByteBufferEvE9SerializeERKS1_PS1_Pb, symObjAddr: 0x83EC, symBinAddr: 0x16B94, symSize: 0xCC }
  - { offset: 0x1797C0, size: 0x8, addend: 0x0, symName: __ZNSt3__128__invoke_void_return_wrapperIN4grpc6StatusELb0EE6__callB8ne180100IJRZNS1_8internal17CallOpSendMessage14SendMessagePtrINS1_10ByteBufferEEES2_PKT_NS1_12WriteOptionsEEUlPKvE_SE_EEES2_DpOT_.cold.1, symObjAddr: 0xAAD0, symBinAddr: 0x2FFC4, symSize: 0x20 }
  - { offset: 0x179930, size: 0x8, addend: 0x0, symName: __ZN4grpc10ByteBufferaSERKS0_, symObjAddr: 0x84B8, symBinAddr: 0x16C60, symSize: 0x4C }
  - { offset: 0x17999F, size: 0x8, addend: 0x0, symName: __ZNSt3__110__function6__funcIZN4grpc8internal20CallbackUnaryHandlerINS2_10ByteBufferES5_E23ServerCallbackUnaryImpl19SendInitialMetadataEvEUlbE_NS_9allocatorIS8_EEFvbEED1Ev, symObjAddr: 0x8504, symBinAddr: 0x16CAC, symSize: 0x4 }
  - { offset: 0x1799CA, size: 0x8, addend: 0x0, symName: __ZNSt3__110__function6__funcIZN4grpc8internal20CallbackUnaryHandlerINS2_10ByteBufferES5_E23ServerCallbackUnaryImpl19SendInitialMetadataEvEUlbE_NS_9allocatorIS8_EEFvbEED0Ev, symObjAddr: 0x8508, symBinAddr: 0x16CB0, symSize: 0x4 }
  - { offset: 0x179BCD, size: 0x8, addend: 0x0, symName: __ZNKSt3__110__function6__funcIZN4grpc8internal20CallbackUnaryHandlerINS2_10ByteBufferES5_E23ServerCallbackUnaryImpl19SendInitialMetadataEvEUlbE_NS_9allocatorIS8_EEFvbEE7__cloneEv, symObjAddr: 0x850C, symBinAddr: 0x16CB4, symSize: 0x34 }
  - { offset: 0x179EC6, size: 0x8, addend: 0x0, symName: __ZNKSt3__110__function6__funcIZN4grpc8internal20CallbackUnaryHandlerINS2_10ByteBufferES5_E23ServerCallbackUnaryImpl19SendInitialMetadataEvEUlbE_NS_9allocatorIS8_EEFvbEE7__cloneEPNS0_6__baseISB_EE, symObjAddr: 0x8540, symBinAddr: 0x16CE8, symSize: 0x14 }
  - { offset: 0x179EFE, size: 0x8, addend: 0x0, symName: __ZNKSt3__110__function6__funcIZN4grpc8internal20CallbackUnaryHandlerINS2_10ByteBufferES5_E23ServerCallbackUnaryImpl19SendInitialMetadataEvEUlbE_NS_9allocatorIS8_EEFvbEE7__cloneEPNS0_6__baseISB_EE, symObjAddr: 0x8540, symBinAddr: 0x16CE8, symSize: 0x14 }
  - { offset: 0x179F2C, size: 0x8, addend: 0x0, symName: __ZNKSt3__110__function6__funcIZN4grpc8internal20CallbackUnaryHandlerINS2_10ByteBufferES5_E23ServerCallbackUnaryImpl19SendInitialMetadataEvEUlbE_NS_9allocatorIS8_EEFvbEE7__cloneEPNS0_6__baseISB_EE, symObjAddr: 0x8540, symBinAddr: 0x16CE8, symSize: 0x14 }
  - { offset: 0x179F5A, size: 0x8, addend: 0x0, symName: __ZNKSt3__110__function6__funcIZN4grpc8internal20CallbackUnaryHandlerINS2_10ByteBufferES5_E23ServerCallbackUnaryImpl19SendInitialMetadataEvEUlbE_NS_9allocatorIS8_EEFvbEE7__cloneEPNS0_6__baseISB_EE, symObjAddr: 0x8540, symBinAddr: 0x16CE8, symSize: 0x14 }
  - { offset: 0x179F6F, size: 0x8, addend: 0x0, symName: __ZNKSt3__110__function6__funcIZN4grpc8internal20CallbackUnaryHandlerINS2_10ByteBufferES5_E23ServerCallbackUnaryImpl19SendInitialMetadataEvEUlbE_NS_9allocatorIS8_EEFvbEE7__cloneEPNS0_6__baseISB_EE, symObjAddr: 0x8540, symBinAddr: 0x16CE8, symSize: 0x14 }
  - { offset: 0x179F83, size: 0x8, addend: 0x0, symName: __ZNKSt3__110__function6__funcIZN4grpc8internal20CallbackUnaryHandlerINS2_10ByteBufferES5_E23ServerCallbackUnaryImpl19SendInitialMetadataEvEUlbE_NS_9allocatorIS8_EEFvbEE7__cloneEPNS0_6__baseISB_EE, symObjAddr: 0x8540, symBinAddr: 0x16CE8, symSize: 0x14 }
  - { offset: 0x179F97, size: 0x8, addend: 0x0, symName: __ZNKSt3__110__function6__funcIZN4grpc8internal20CallbackUnaryHandlerINS2_10ByteBufferES5_E23ServerCallbackUnaryImpl19SendInitialMetadataEvEUlbE_NS_9allocatorIS8_EEFvbEE7__cloneEPNS0_6__baseISB_EE, symObjAddr: 0x8540, symBinAddr: 0x16CE8, symSize: 0x14 }
  - { offset: 0x179FAC, size: 0x8, addend: 0x0, symName: __ZNKSt3__110__function6__funcIZN4grpc8internal20CallbackUnaryHandlerINS2_10ByteBufferES5_E23ServerCallbackUnaryImpl19SendInitialMetadataEvEUlbE_NS_9allocatorIS8_EEFvbEE7__cloneEPNS0_6__baseISB_EE, symObjAddr: 0x8540, symBinAddr: 0x16CE8, symSize: 0x14 }
  - { offset: 0x179FC4, size: 0x8, addend: 0x0, symName: __ZNSt3__110__function6__funcIZN4grpc8internal20CallbackUnaryHandlerINS2_10ByteBufferES5_E23ServerCallbackUnaryImpl19SendInitialMetadataEvEUlbE_NS_9allocatorIS8_EEFvbEE7destroyEv, symObjAddr: 0x8554, symBinAddr: 0x16CFC, symSize: 0x4 }
  - { offset: 0x17A017, size: 0x8, addend: 0x0, symName: __ZNSt3__110__function6__funcIZN4grpc8internal20CallbackUnaryHandlerINS2_10ByteBufferES5_E23ServerCallbackUnaryImpl19SendInitialMetadataEvEUlbE_NS_9allocatorIS8_EEFvbEE18destroy_deallocateEv, symObjAddr: 0x8558, symBinAddr: 0x16D00, symSize: 0x4 }
  - { offset: 0x17A04D, size: 0x8, addend: 0x0, symName: __ZNSt3__110__function6__funcIZN4grpc8internal20CallbackUnaryHandlerINS2_10ByteBufferES5_E23ServerCallbackUnaryImpl19SendInitialMetadataEvEUlbE_NS_9allocatorIS8_EEFvbEE18destroy_deallocateEv, symObjAddr: 0x8558, symBinAddr: 0x16D00, symSize: 0x4 }
  - { offset: 0x17A070, size: 0x8, addend: 0x0, symName: __ZNSt3__110__function6__funcIZN4grpc8internal20CallbackUnaryHandlerINS2_10ByteBufferES5_E23ServerCallbackUnaryImpl19SendInitialMetadataEvEUlbE_NS_9allocatorIS8_EEFvbEE18destroy_deallocateEv, symObjAddr: 0x8558, symBinAddr: 0x16D00, symSize: 0x4 }
  - { offset: 0x17A09C, size: 0x8, addend: 0x0, symName: __ZNSt3__110__function6__funcIZN4grpc8internal20CallbackUnaryHandlerINS2_10ByteBufferES5_E23ServerCallbackUnaryImpl19SendInitialMetadataEvEUlbE_NS_9allocatorIS8_EEFvbEE18destroy_deallocateEv, symObjAddr: 0x8558, symBinAddr: 0x16D00, symSize: 0x4 }
  - { offset: 0x17A0C2, size: 0x8, addend: 0x0, symName: __ZNSt3__110__function6__funcIZN4grpc8internal20CallbackUnaryHandlerINS2_10ByteBufferES5_E23ServerCallbackUnaryImpl19SendInitialMetadataEvEUlbE_NS_9allocatorIS8_EEFvbEE18destroy_deallocateEv, symObjAddr: 0x8558, symBinAddr: 0x16D00, symSize: 0x4 }
  - { offset: 0x17A10D, size: 0x8, addend: 0x0, symName: __ZNSt3__110__function6__funcIZN4grpc8internal20CallbackUnaryHandlerINS2_10ByteBufferES5_E23ServerCallbackUnaryImpl19SendInitialMetadataEvEUlbE_NS_9allocatorIS8_EEFvbEEclEOb, symObjAddr: 0x855C, symBinAddr: 0x16D04, symSize: 0x8 }
  - { offset: 0x17A180, size: 0x8, addend: 0x0, symName: __ZNSt3__128__invoke_void_return_wrapperIvLb1EE6__callB8ne180100IJRZN4grpc8internal20CallbackUnaryHandlerINS3_10ByteBufferES6_E23ServerCallbackUnaryImpl19SendInitialMetadataEvEUlbE_bEEEvDpOT_, symObjAddr: 0x85AC, symBinAddr: 0x16D54, symSize: 0x5C }
  - { offset: 0x17A2EE, size: 0x8, addend: 0x0, symName: __ZNKSt3__110__function6__funcIZN4grpc8internal20CallbackUnaryHandlerINS2_10ByteBufferES5_E23ServerCallbackUnaryImpl19SendInitialMetadataEvEUlbE_NS_9allocatorIS8_EEFvbEE6targetERKSt9type_info, symObjAddr: 0x8564, symBinAddr: 0x16D0C, symSize: 0x3C }
  - { offset: 0x17A33E, size: 0x8, addend: 0x0, symName: __ZNKSt3__110__function6__funcIZN4grpc8internal20CallbackUnaryHandlerINS2_10ByteBufferES5_E23ServerCallbackUnaryImpl19SendInitialMetadataEvEUlbE_NS_9allocatorIS8_EEFvbEE11target_typeEv, symObjAddr: 0x85A0, symBinAddr: 0x16D48, symSize: 0xC }
  - { offset: 0x17A39D, size: 0x8, addend: 0x0, symName: __ZNSt3__110__function6__funcIZN4grpc8internal20CallbackUnaryHandlerINS2_10ByteBufferES5_E10RunHandlerERKNS3_13MethodHandler16HandlerParameterEEUlbE_NS_9allocatorISB_EEFvbEED1Ev, symObjAddr: 0x8608, symBinAddr: 0x16DB0, symSize: 0x4 }
  - { offset: 0x17A3C8, size: 0x8, addend: 0x0, symName: __ZNSt3__110__function6__funcIZN4grpc8internal20CallbackUnaryHandlerINS2_10ByteBufferES5_E10RunHandlerERKNS3_13MethodHandler16HandlerParameterEEUlbE_NS_9allocatorISB_EEFvbEED0Ev, symObjAddr: 0x860C, symBinAddr: 0x16DB4, symSize: 0x4 }
  - { offset: 0x17A5CB, size: 0x8, addend: 0x0, symName: __ZNKSt3__110__function6__funcIZN4grpc8internal20CallbackUnaryHandlerINS2_10ByteBufferES5_E10RunHandlerERKNS3_13MethodHandler16HandlerParameterEEUlbE_NS_9allocatorISB_EEFvbEE7__cloneEv, symObjAddr: 0x8610, symBinAddr: 0x16DB8, symSize: 0x34 }
  - { offset: 0x17A8C4, size: 0x8, addend: 0x0, symName: __ZNKSt3__110__function6__funcIZN4grpc8internal20CallbackUnaryHandlerINS2_10ByteBufferES5_E10RunHandlerERKNS3_13MethodHandler16HandlerParameterEEUlbE_NS_9allocatorISB_EEFvbEE7__cloneEPNS0_6__baseISE_EE, symObjAddr: 0x8644, symBinAddr: 0x16DEC, symSize: 0x14 }
  - { offset: 0x17A8FC, size: 0x8, addend: 0x0, symName: __ZNKSt3__110__function6__funcIZN4grpc8internal20CallbackUnaryHandlerINS2_10ByteBufferES5_E10RunHandlerERKNS3_13MethodHandler16HandlerParameterEEUlbE_NS_9allocatorISB_EEFvbEE7__cloneEPNS0_6__baseISE_EE, symObjAddr: 0x8644, symBinAddr: 0x16DEC, symSize: 0x14 }
  - { offset: 0x17A92A, size: 0x8, addend: 0x0, symName: __ZNKSt3__110__function6__funcIZN4grpc8internal20CallbackUnaryHandlerINS2_10ByteBufferES5_E10RunHandlerERKNS3_13MethodHandler16HandlerParameterEEUlbE_NS_9allocatorISB_EEFvbEE7__cloneEPNS0_6__baseISE_EE, symObjAddr: 0x8644, symBinAddr: 0x16DEC, symSize: 0x14 }
  - { offset: 0x17A958, size: 0x8, addend: 0x0, symName: __ZNKSt3__110__function6__funcIZN4grpc8internal20CallbackUnaryHandlerINS2_10ByteBufferES5_E10RunHandlerERKNS3_13MethodHandler16HandlerParameterEEUlbE_NS_9allocatorISB_EEFvbEE7__cloneEPNS0_6__baseISE_EE, symObjAddr: 0x8644, symBinAddr: 0x16DEC, symSize: 0x14 }
  - { offset: 0x17A96D, size: 0x8, addend: 0x0, symName: __ZNKSt3__110__function6__funcIZN4grpc8internal20CallbackUnaryHandlerINS2_10ByteBufferES5_E10RunHandlerERKNS3_13MethodHandler16HandlerParameterEEUlbE_NS_9allocatorISB_EEFvbEE7__cloneEPNS0_6__baseISE_EE, symObjAddr: 0x8644, symBinAddr: 0x16DEC, symSize: 0x14 }
  - { offset: 0x17A981, size: 0x8, addend: 0x0, symName: __ZNKSt3__110__function6__funcIZN4grpc8internal20CallbackUnaryHandlerINS2_10ByteBufferES5_E10RunHandlerERKNS3_13MethodHandler16HandlerParameterEEUlbE_NS_9allocatorISB_EEFvbEE7__cloneEPNS0_6__baseISE_EE, symObjAddr: 0x8644, symBinAddr: 0x16DEC, symSize: 0x14 }
  - { offset: 0x17A995, size: 0x8, addend: 0x0, symName: __ZNKSt3__110__function6__funcIZN4grpc8internal20CallbackUnaryHandlerINS2_10ByteBufferES5_E10RunHandlerERKNS3_13MethodHandler16HandlerParameterEEUlbE_NS_9allocatorISB_EEFvbEE7__cloneEPNS0_6__baseISE_EE, symObjAddr: 0x8644, symBinAddr: 0x16DEC, symSize: 0x14 }
  - { offset: 0x17A9AA, size: 0x8, addend: 0x0, symName: __ZNKSt3__110__function6__funcIZN4grpc8internal20CallbackUnaryHandlerINS2_10ByteBufferES5_E10RunHandlerERKNS3_13MethodHandler16HandlerParameterEEUlbE_NS_9allocatorISB_EEFvbEE7__cloneEPNS0_6__baseISE_EE, symObjAddr: 0x8644, symBinAddr: 0x16DEC, symSize: 0x14 }
  - { offset: 0x17A9C2, size: 0x8, addend: 0x0, symName: __ZNSt3__110__function6__funcIZN4grpc8internal20CallbackUnaryHandlerINS2_10ByteBufferES5_E10RunHandlerERKNS3_13MethodHandler16HandlerParameterEEUlbE_NS_9allocatorISB_EEFvbEE7destroyEv, symObjAddr: 0x8658, symBinAddr: 0x16E00, symSize: 0x4 }
  - { offset: 0x17AA15, size: 0x8, addend: 0x0, symName: __ZNSt3__110__function6__funcIZN4grpc8internal20CallbackUnaryHandlerINS2_10ByteBufferES5_E10RunHandlerERKNS3_13MethodHandler16HandlerParameterEEUlbE_NS_9allocatorISB_EEFvbEE18destroy_deallocateEv, symObjAddr: 0x865C, symBinAddr: 0x16E04, symSize: 0x4 }
  - { offset: 0x17AA4B, size: 0x8, addend: 0x0, symName: __ZNSt3__110__function6__funcIZN4grpc8internal20CallbackUnaryHandlerINS2_10ByteBufferES5_E10RunHandlerERKNS3_13MethodHandler16HandlerParameterEEUlbE_NS_9allocatorISB_EEFvbEE18destroy_deallocateEv, symObjAddr: 0x865C, symBinAddr: 0x16E04, symSize: 0x4 }
  - { offset: 0x17AA6E, size: 0x8, addend: 0x0, symName: __ZNSt3__110__function6__funcIZN4grpc8internal20CallbackUnaryHandlerINS2_10ByteBufferES5_E10RunHandlerERKNS3_13MethodHandler16HandlerParameterEEUlbE_NS_9allocatorISB_EEFvbEE18destroy_deallocateEv, symObjAddr: 0x865C, symBinAddr: 0x16E04, symSize: 0x4 }
  - { offset: 0x17AA9A, size: 0x8, addend: 0x0, symName: __ZNSt3__110__function6__funcIZN4grpc8internal20CallbackUnaryHandlerINS2_10ByteBufferES5_E10RunHandlerERKNS3_13MethodHandler16HandlerParameterEEUlbE_NS_9allocatorISB_EEFvbEE18destroy_deallocateEv, symObjAddr: 0x865C, symBinAddr: 0x16E04, symSize: 0x4 }
  - { offset: 0x17AAC0, size: 0x8, addend: 0x0, symName: __ZNSt3__110__function6__funcIZN4grpc8internal20CallbackUnaryHandlerINS2_10ByteBufferES5_E10RunHandlerERKNS3_13MethodHandler16HandlerParameterEEUlbE_NS_9allocatorISB_EEFvbEE18destroy_deallocateEv, symObjAddr: 0x865C, symBinAddr: 0x16E04, symSize: 0x4 }
  - { offset: 0x17AB62, size: 0x8, addend: 0x0, symName: __ZNSt3__110__function6__funcIZN4grpc8internal20CallbackUnaryHandlerINS2_10ByteBufferES5_E10RunHandlerERKNS3_13MethodHandler16HandlerParameterEEUlbE_NS_9allocatorISB_EEFvbEEclEOb, symObjAddr: 0x8660, symBinAddr: 0x16E08, symSize: 0x8 }
  - { offset: 0x17AB9C, size: 0x8, addend: 0x0, symName: __ZNSt3__110__function6__funcIZN4grpc8internal20CallbackUnaryHandlerINS2_10ByteBufferES5_E10RunHandlerERKNS3_13MethodHandler16HandlerParameterEEUlbE_NS_9allocatorISB_EEFvbEEclEOb, symObjAddr: 0x8660, symBinAddr: 0x16E08, symSize: 0x8 }
  - { offset: 0x17ABBA, size: 0x8, addend: 0x0, symName: __ZNSt3__110__function6__funcIZN4grpc8internal20CallbackUnaryHandlerINS2_10ByteBufferES5_E10RunHandlerERKNS3_13MethodHandler16HandlerParameterEEUlbE_NS_9allocatorISB_EEFvbEEclEOb, symObjAddr: 0x8660, symBinAddr: 0x16E08, symSize: 0x8 }
  - { offset: 0x17ABD7, size: 0x8, addend: 0x0, symName: __ZNSt3__110__function6__funcIZN4grpc8internal20CallbackUnaryHandlerINS2_10ByteBufferES5_E10RunHandlerERKNS3_13MethodHandler16HandlerParameterEEUlbE_NS_9allocatorISB_EEFvbEEclEOb, symObjAddr: 0x8660, symBinAddr: 0x16E08, symSize: 0x8 }
  - { offset: 0x17ABF5, size: 0x8, addend: 0x0, symName: __ZNSt3__110__function6__funcIZN4grpc8internal20CallbackUnaryHandlerINS2_10ByteBufferES5_E10RunHandlerERKNS3_13MethodHandler16HandlerParameterEEUlbE_NS_9allocatorISB_EEFvbEEclEOb, symObjAddr: 0x8660, symBinAddr: 0x16E08, symSize: 0x8 }
  - { offset: 0x17AC23, size: 0x8, addend: 0x0, symName: __ZN4grpc8internal18ServerCallbackCall9MaybeDoneEv, symObjAddr: 0x86B0, symBinAddr: 0x16E58, symSize: 0x64 }
  - { offset: 0x17ACDA, size: 0x8, addend: 0x0, symName: __ZNKSt3__110__function6__funcIZN4grpc8internal20CallbackUnaryHandlerINS2_10ByteBufferES5_E10RunHandlerERKNS3_13MethodHandler16HandlerParameterEEUlbE_NS_9allocatorISB_EEFvbEE6targetERKSt9type_info, symObjAddr: 0x8668, symBinAddr: 0x16E10, symSize: 0x3C }
  - { offset: 0x17AD2A, size: 0x8, addend: 0x0, symName: __ZNKSt3__110__function6__funcIZN4grpc8internal20CallbackUnaryHandlerINS2_10ByteBufferES5_E10RunHandlerERKNS3_13MethodHandler16HandlerParameterEEUlbE_NS_9allocatorISB_EEFvbEE11target_typeEv, symObjAddr: 0x86A4, symBinAddr: 0x16E4C, symSize: 0xC }
  - { offset: 0x17ADAF, size: 0x8, addend: 0x0, symName: __ZN4grpc8internal17FinishOnlyReactorINS_18ServerUnaryReactorEED1Ev, symObjAddr: 0x883C, symBinAddr: 0x16FE4, symSize: 0x4 }
  - { offset: 0x17ADD1, size: 0x8, addend: 0x0, symName: __ZN4grpc8internal17FinishOnlyReactorINS_18ServerUnaryReactorEED1Ev, symObjAddr: 0x883C, symBinAddr: 0x16FE4, symSize: 0x4 }
  - { offset: 0x17ADEF, size: 0x8, addend: 0x0, symName: __ZN4grpc8internal17FinishOnlyReactorINS_18ServerUnaryReactorEED1Ev, symObjAddr: 0x883C, symBinAddr: 0x16FE4, symSize: 0x4 }
  - { offset: 0x17AE20, size: 0x8, addend: 0x0, symName: __ZN4grpc8internal17FinishOnlyReactorINS_18ServerUnaryReactorEED0Ev, symObjAddr: 0x8840, symBinAddr: 0x16FE8, symSize: 0x14 }
  - { offset: 0x17AE9D, size: 0x8, addend: 0x0, symName: __ZN4grpc8internal17FinishOnlyReactorINS_18ServerUnaryReactorEE6OnDoneEv, symObjAddr: 0x8854, symBinAddr: 0x16FFC, symSize: 0xC }
  - { offset: 0x17AEF3, size: 0x8, addend: 0x0, symName: __ZN4grpc8internal20DefaultMessageHolderINS_10ByteBufferES2_ED1Ev, symObjAddr: 0x8928, symBinAddr: 0x170D0, symSize: 0x44 }
  - { offset: 0x17AFA9, size: 0x8, addend: 0x0, symName: __ZN4grpc8internal20DefaultMessageHolderINS_10ByteBufferES2_ED0Ev, symObjAddr: 0x896C, symBinAddr: 0x17114, symSize: 0x44 }
  - { offset: 0x17B06A, size: 0x8, addend: 0x0, symName: __ZN4grpc17RpcAllocatorState11FreeRequestEv, symObjAddr: 0x89B0, symBinAddr: 0x17158, symSize: 0x4 }
  - { offset: 0x17B08F, size: 0x8, addend: 0x0, symName: __ZN4grpc8internal20DefaultMessageHolderINS_10ByteBufferES2_E7ReleaseEv, symObjAddr: 0x89B4, symBinAddr: 0x1715C, symSize: 0xC }
  - { offset: 0x17B0C9, size: 0x8, addend: 0x0, symName: '__ZNSt3__110__function6__funcIZN4grpc25DefaultHealthCheckService22HealthCheckServiceImplC1EPS3_E3$_1NS_9allocatorIS6_EEFPNS2_18ServerWriteReactorINS2_10ByteBufferEEEPNS2_21CallbackServerContextEPKSA_EED1Ev', symObjAddr: 0x89C0, symBinAddr: 0x17168, symSize: 0x4 }
  - { offset: 0x17B0F4, size: 0x8, addend: 0x0, symName: '__ZNSt3__110__function6__funcIZN4grpc25DefaultHealthCheckService22HealthCheckServiceImplC1EPS3_E3$_1NS_9allocatorIS6_EEFPNS2_18ServerWriteReactorINS2_10ByteBufferEEEPNS2_21CallbackServerContextEPKSA_EED0Ev', symObjAddr: 0x89C4, symBinAddr: 0x1716C, symSize: 0x4 }
  - { offset: 0x17B2F7, size: 0x8, addend: 0x0, symName: '__ZNKSt3__110__function6__funcIZN4grpc25DefaultHealthCheckService22HealthCheckServiceImplC1EPS3_E3$_1NS_9allocatorIS6_EEFPNS2_18ServerWriteReactorINS2_10ByteBufferEEEPNS2_21CallbackServerContextEPKSA_EE7__cloneEv', symObjAddr: 0x89C8, symBinAddr: 0x17170, symSize: 0x34 }
  - { offset: 0x17B5F0, size: 0x8, addend: 0x0, symName: '__ZNKSt3__110__function6__funcIZN4grpc25DefaultHealthCheckService22HealthCheckServiceImplC1EPS3_E3$_1NS_9allocatorIS6_EEFPNS2_18ServerWriteReactorINS2_10ByteBufferEEEPNS2_21CallbackServerContextEPKSA_EE7__cloneEPNS0_6__baseISH_EE', symObjAddr: 0x89FC, symBinAddr: 0x171A4, symSize: 0x14 }
  - { offset: 0x17B628, size: 0x8, addend: 0x0, symName: '__ZNKSt3__110__function6__funcIZN4grpc25DefaultHealthCheckService22HealthCheckServiceImplC1EPS3_E3$_1NS_9allocatorIS6_EEFPNS2_18ServerWriteReactorINS2_10ByteBufferEEEPNS2_21CallbackServerContextEPKSA_EE7__cloneEPNS0_6__baseISH_EE', symObjAddr: 0x89FC, symBinAddr: 0x171A4, symSize: 0x14 }
  - { offset: 0x17B656, size: 0x8, addend: 0x0, symName: '__ZNKSt3__110__function6__funcIZN4grpc25DefaultHealthCheckService22HealthCheckServiceImplC1EPS3_E3$_1NS_9allocatorIS6_EEFPNS2_18ServerWriteReactorINS2_10ByteBufferEEEPNS2_21CallbackServerContextEPKSA_EE7__cloneEPNS0_6__baseISH_EE', symObjAddr: 0x89FC, symBinAddr: 0x171A4, symSize: 0x14 }
  - { offset: 0x17B684, size: 0x8, addend: 0x0, symName: '__ZNKSt3__110__function6__funcIZN4grpc25DefaultHealthCheckService22HealthCheckServiceImplC1EPS3_E3$_1NS_9allocatorIS6_EEFPNS2_18ServerWriteReactorINS2_10ByteBufferEEEPNS2_21CallbackServerContextEPKSA_EE7__cloneEPNS0_6__baseISH_EE', symObjAddr: 0x89FC, symBinAddr: 0x171A4, symSize: 0x14 }
  - { offset: 0x17B699, size: 0x8, addend: 0x0, symName: '__ZNKSt3__110__function6__funcIZN4grpc25DefaultHealthCheckService22HealthCheckServiceImplC1EPS3_E3$_1NS_9allocatorIS6_EEFPNS2_18ServerWriteReactorINS2_10ByteBufferEEEPNS2_21CallbackServerContextEPKSA_EE7__cloneEPNS0_6__baseISH_EE', symObjAddr: 0x89FC, symBinAddr: 0x171A4, symSize: 0x14 }
  - { offset: 0x17B6AD, size: 0x8, addend: 0x0, symName: '__ZNKSt3__110__function6__funcIZN4grpc25DefaultHealthCheckService22HealthCheckServiceImplC1EPS3_E3$_1NS_9allocatorIS6_EEFPNS2_18ServerWriteReactorINS2_10ByteBufferEEEPNS2_21CallbackServerContextEPKSA_EE7__cloneEPNS0_6__baseISH_EE', symObjAddr: 0x89FC, symBinAddr: 0x171A4, symSize: 0x14 }
  - { offset: 0x17B6C1, size: 0x8, addend: 0x0, symName: '__ZNKSt3__110__function6__funcIZN4grpc25DefaultHealthCheckService22HealthCheckServiceImplC1EPS3_E3$_1NS_9allocatorIS6_EEFPNS2_18ServerWriteReactorINS2_10ByteBufferEEEPNS2_21CallbackServerContextEPKSA_EE7__cloneEPNS0_6__baseISH_EE', symObjAddr: 0x89FC, symBinAddr: 0x171A4, symSize: 0x14 }
  - { offset: 0x17B6D6, size: 0x8, addend: 0x0, symName: '__ZNKSt3__110__function6__funcIZN4grpc25DefaultHealthCheckService22HealthCheckServiceImplC1EPS3_E3$_1NS_9allocatorIS6_EEFPNS2_18ServerWriteReactorINS2_10ByteBufferEEEPNS2_21CallbackServerContextEPKSA_EE7__cloneEPNS0_6__baseISH_EE', symObjAddr: 0x89FC, symBinAddr: 0x171A4, symSize: 0x14 }
  - { offset: 0x17B6EE, size: 0x8, addend: 0x0, symName: '__ZNSt3__110__function6__funcIZN4grpc25DefaultHealthCheckService22HealthCheckServiceImplC1EPS3_E3$_1NS_9allocatorIS6_EEFPNS2_18ServerWriteReactorINS2_10ByteBufferEEEPNS2_21CallbackServerContextEPKSA_EE7destroyEv', symObjAddr: 0x8A10, symBinAddr: 0x171B8, symSize: 0x4 }
  - { offset: 0x17B73F, size: 0x8, addend: 0x0, symName: '__ZNSt3__110__function6__funcIZN4grpc25DefaultHealthCheckService22HealthCheckServiceImplC1EPS3_E3$_1NS_9allocatorIS6_EEFPNS2_18ServerWriteReactorINS2_10ByteBufferEEEPNS2_21CallbackServerContextEPKSA_EE18destroy_deallocateEv', symObjAddr: 0x8A14, symBinAddr: 0x171BC, symSize: 0x4 }
  - { offset: 0x17B775, size: 0x8, addend: 0x0, symName: '__ZNSt3__110__function6__funcIZN4grpc25DefaultHealthCheckService22HealthCheckServiceImplC1EPS3_E3$_1NS_9allocatorIS6_EEFPNS2_18ServerWriteReactorINS2_10ByteBufferEEEPNS2_21CallbackServerContextEPKSA_EE18destroy_deallocateEv', symObjAddr: 0x8A14, symBinAddr: 0x171BC, symSize: 0x4 }
  - { offset: 0x17B798, size: 0x8, addend: 0x0, symName: '__ZNSt3__110__function6__funcIZN4grpc25DefaultHealthCheckService22HealthCheckServiceImplC1EPS3_E3$_1NS_9allocatorIS6_EEFPNS2_18ServerWriteReactorINS2_10ByteBufferEEEPNS2_21CallbackServerContextEPKSA_EE18destroy_deallocateEv', symObjAddr: 0x8A14, symBinAddr: 0x171BC, symSize: 0x4 }
  - { offset: 0x17B7C4, size: 0x8, addend: 0x0, symName: '__ZNSt3__110__function6__funcIZN4grpc25DefaultHealthCheckService22HealthCheckServiceImplC1EPS3_E3$_1NS_9allocatorIS6_EEFPNS2_18ServerWriteReactorINS2_10ByteBufferEEEPNS2_21CallbackServerContextEPKSA_EE18destroy_deallocateEv', symObjAddr: 0x8A14, symBinAddr: 0x171BC, symSize: 0x4 }
  - { offset: 0x17B7EA, size: 0x8, addend: 0x0, symName: '__ZNSt3__110__function6__funcIZN4grpc25DefaultHealthCheckService22HealthCheckServiceImplC1EPS3_E3$_1NS_9allocatorIS6_EEFPNS2_18ServerWriteReactorINS2_10ByteBufferEEEPNS2_21CallbackServerContextEPKSA_EE18destroy_deallocateEv', symObjAddr: 0x8A14, symBinAddr: 0x171BC, symSize: 0x4 }
  - { offset: 0x17B8E5, size: 0x8, addend: 0x0, symName: '__ZNSt3__110__function6__funcIZN4grpc25DefaultHealthCheckService22HealthCheckServiceImplC1EPS3_E3$_1NS_9allocatorIS6_EEFPNS2_18ServerWriteReactorINS2_10ByteBufferEEEPNS2_21CallbackServerContextEPKSA_EEclEOSE_OSG_', symObjAddr: 0x8A18, symBinAddr: 0x171C0, symSize: 0x58 }
  - { offset: 0x17B9F1, size: 0x8, addend: 0x0, symName: '__ZNKSt3__110__function6__funcIZN4grpc25DefaultHealthCheckService22HealthCheckServiceImplC1EPS3_E3$_1NS_9allocatorIS6_EEFPNS2_18ServerWriteReactorINS2_10ByteBufferEEEPNS2_21CallbackServerContextEPKSA_EE6targetERKSt9type_info', symObjAddr: 0x8A70, symBinAddr: 0x17218, symSize: 0x3C }
  - { offset: 0x17BA41, size: 0x8, addend: 0x0, symName: '__ZNKSt3__110__function6__funcIZN4grpc25DefaultHealthCheckService22HealthCheckServiceImplC1EPS3_E3$_1NS_9allocatorIS6_EEFPNS2_18ServerWriteReactorINS2_10ByteBufferEEEPNS2_21CallbackServerContextEPKSA_EE11target_typeEv', symObjAddr: 0x8AAC, symBinAddr: 0x17254, symSize: 0xC }
  - { offset: 0x17BA83, size: 0x8, addend: 0x0, symName: __ZN4grpc8internal30CallbackServerStreamingHandlerINS_10ByteBufferES2_ED1Ev, symObjAddr: 0x8AB8, symBinAddr: 0x17260, symSize: 0x60 }
  - { offset: 0x17BB67, size: 0x8, addend: 0x0, symName: __ZN4grpc8internal30CallbackServerStreamingHandlerINS_10ByteBufferES2_ED0Ev, symObjAddr: 0x8B18, symBinAddr: 0x172C0, symSize: 0x60 }
  - { offset: 0x17BEB7, size: 0x8, addend: 0x0, symName: __ZN4grpc8internal30CallbackServerStreamingHandlerINS_10ByteBufferES2_E24ServerCallbackWriterImplC2EPNS_21CallbackServerContextEPNS0_4CallEPKS2_NSt3__18functionIFvvEEE, symObjAddr: 0x9120, symBinAddr: 0x178C8, symSize: 0x178 }
  - { offset: 0x17C75E, size: 0x8, addend: 0x0, symName: __ZN4grpc8internal17FinishOnlyReactorINS_18ServerWriteReactorINS_10ByteBufferEEEEC2ENS_6StatusE, symObjAddr: 0xA184, symBinAddr: 0x1892C, symSize: 0xF0 }
  - { offset: 0x17CCE5, size: 0x8, addend: 0x0, symName: __ZN4grpc8internal30CallbackServerStreamingHandlerINS_10ByteBufferES2_E11DeserializeEP9grpc_callP16grpc_byte_bufferPNS_6StatusEPPv, symObjAddr: 0x8E10, symBinAddr: 0x175B8, symSize: 0x11C }
  - { offset: 0x17D2F1, size: 0x8, addend: 0x0, symName: __ZNKSt3__18functionIFPN4grpc18ServerWriteReactorINS1_10ByteBufferEEEPNS1_21CallbackServerContextEPKS3_EEclES7_S9_, symObjAddr: 0xA148, symBinAddr: 0x188F0, symSize: 0x3C }
  - { offset: 0x17D381, size: 0x8, addend: 0x0, symName: __ZN4grpc8internal17FinishOnlyReactorINS_18ServerWriteReactorINS_10ByteBufferEEEEC2ENS_6StatusE, symObjAddr: 0xA184, symBinAddr: 0x1892C, symSize: 0xF0 }
  - { offset: 0x17D75E, size: 0x8, addend: 0x0, symName: __ZN4grpc8internal9CallOpSetINS0_25CallOpSendInitialMetadataENS0_17CallOpSendMessageENS0_8CallNoOpILi3EEENS4_ILi4EEENS4_ILi5EEENS4_ILi6EEEEC2Ev, symObjAddr: 0x98BC, symBinAddr: 0x18064, symSize: 0x8C }
  - { offset: 0x17D789, size: 0x8, addend: 0x0, symName: __ZN4grpc8internal9CallOpSetINS0_25CallOpSendInitialMetadataENS0_17CallOpSendMessageENS0_8CallNoOpILi3EEENS4_ILi4EEENS4_ILi5EEENS4_ILi6EEEEC2Ev, symObjAddr: 0x98BC, symBinAddr: 0x18064, symSize: 0x8C }
  - { offset: 0x17DA12, size: 0x8, addend: 0x0, symName: __ZN4grpc8internal9CallOpSetINS0_25CallOpSendInitialMetadataENS0_17CallOpSendMessageENS0_8CallNoOpILi3EEENS4_ILi4EEENS4_ILi5EEENS4_ILi6EEEED1Ev, symObjAddr: 0x9298, symBinAddr: 0x17A40, symSize: 0x6C }
  - { offset: 0x17DB57, size: 0x8, addend: 0x0, symName: __ZN4grpc8internal30CallbackServerStreamingHandlerINS_10ByteBufferES2_E24ServerCallbackWriterImplD1Ev, symObjAddr: 0x9304, symBinAddr: 0x17AAC, symSize: 0x4 }
  - { offset: 0x17DB7A, size: 0x8, addend: 0x0, symName: __ZN4grpc8internal30CallbackServerStreamingHandlerINS_10ByteBufferES2_E24ServerCallbackWriterImplD1Ev, symObjAddr: 0x9304, symBinAddr: 0x17AAC, symSize: 0x4 }
  - { offset: 0x17DB8E, size: 0x8, addend: 0x0, symName: __ZN4grpc8internal30CallbackServerStreamingHandlerINS_10ByteBufferES2_E24ServerCallbackWriterImplD2Ev, symObjAddr: 0x9D58, symBinAddr: 0x18500, symSize: 0x15C }
  - { offset: 0x17E289, size: 0x8, addend: 0x0, symName: __ZN4grpc8internal30CallbackServerStreamingHandlerINS_10ByteBufferES2_E24ServerCallbackWriterImplD0Ev, symObjAddr: 0x9308, symBinAddr: 0x17AB0, symSize: 0x14 }
  - { offset: 0x17E317, size: 0x8, addend: 0x0, symName: __ZN4grpc8internal30CallbackServerStreamingHandlerINS_10ByteBufferES2_E24ServerCallbackWriterImpl7reactorEv, symObjAddr: 0x931C, symBinAddr: 0x17AC4, symSize: 0x8 }
  - { offset: 0x17E340, size: 0x8, addend: 0x0, symName: __ZN4grpc8internal30CallbackServerStreamingHandlerINS_10ByteBufferES2_E24ServerCallbackWriterImpl7reactorEv, symObjAddr: 0x931C, symBinAddr: 0x17AC4, symSize: 0x8 }
  - { offset: 0x17E366, size: 0x8, addend: 0x0, symName: __ZN4grpc8internal30CallbackServerStreamingHandlerINS_10ByteBufferES2_E24ServerCallbackWriterImpl7reactorEv, symObjAddr: 0x931C, symBinAddr: 0x17AC4, symSize: 0x8 }
  - { offset: 0x17E38B, size: 0x8, addend: 0x0, symName: __ZN4grpc8internal30CallbackServerStreamingHandlerINS_10ByteBufferES2_E24ServerCallbackWriterImpl4callEv, symObjAddr: 0x9324, symBinAddr: 0x17ACC, symSize: 0x8 }
  - { offset: 0x17E3B4, size: 0x8, addend: 0x0, symName: __ZN4grpc8internal30CallbackServerStreamingHandlerINS_10ByteBufferES2_E24ServerCallbackWriterImpl4callEv, symObjAddr: 0x9324, symBinAddr: 0x17ACC, symSize: 0x8 }
  - { offset: 0x17E3D2, size: 0x8, addend: 0x0, symName: __ZN4grpc8internal30CallbackServerStreamingHandlerINS_10ByteBufferES2_E24ServerCallbackWriterImpl10CallOnDoneEv, symObjAddr: 0x932C, symBinAddr: 0x17AD4, symSize: 0x128 }
  - { offset: 0x17EA6D, size: 0x8, addend: 0x0, symName: __ZN4grpc8internal30CallbackServerStreamingHandlerINS_10ByteBufferES2_E24ServerCallbackWriterImpl19SendInitialMetadataEv.cold.1, symObjAddr: 0xAAF0, symBinAddr: 0x2FFE4, symSize: 0x28 }
  - { offset: 0x17EA9B, size: 0x8, addend: 0x0, symName: __ZN4grpc8internal30CallbackServerStreamingHandlerINS_10ByteBufferES2_E24ServerCallbackWriterImpl5WriteEPKS2_NS_12WriteOptionsE, symObjAddr: 0x9734, symBinAddr: 0x17EDC, symSize: 0xC0 }
  - { offset: 0x17EC71, size: 0x8, addend: 0x0, symName: __ZN4grpc8internal30CallbackServerStreamingHandlerINS_10ByteBufferES2_E24ServerCallbackWriterImpl14WriteAndFinishEPKS2_NS_12WriteOptionsENS_6StatusE, symObjAddr: 0x97F4, symBinAddr: 0x17F9C, symSize: 0xC8 }
  - { offset: 0x17F085, size: 0x8, addend: 0x0, symName: __ZN4grpc8internal9CallOpSetINS0_25CallOpSendInitialMetadataENS0_17CallOpSendMessageENS0_8CallNoOpILi3EEENS4_ILi4EEENS4_ILi5EEENS4_ILi6EEEED0Ev, symObjAddr: 0x9948, symBinAddr: 0x180F0, symSize: 0x6C }
  - { offset: 0x17F209, size: 0x8, addend: 0x0, symName: __ZN4grpc8internal9CallOpSetINS0_25CallOpSendInitialMetadataENS0_17CallOpSendMessageENS0_8CallNoOpILi3EEENS4_ILi4EEENS4_ILi5EEENS4_ILi6EEEE14FinalizeResultEPPvPb, symObjAddr: 0x99B4, symBinAddr: 0x1815C, symSize: 0xE0 }
  - { offset: 0x17F3B0, size: 0x8, addend: 0x0, symName: __ZN4grpc8internal9CallOpSetINS0_25CallOpSendInitialMetadataENS0_17CallOpSendMessageENS0_8CallNoOpILi3EEENS4_ILi4EEENS4_ILi5EEENS4_ILi6EEEE7FillOpsEPNS0_4CallE, symObjAddr: 0x9A94, symBinAddr: 0x1823C, symSize: 0x60 }
  - { offset: 0x17F434, size: 0x8, addend: 0x0, symName: __ZN4grpc8internal9CallOpSetINS0_25CallOpSendInitialMetadataENS0_17CallOpSendMessageENS0_8CallNoOpILi3EEENS4_ILi4EEENS4_ILi5EEENS4_ILi6EEEE15RunInterceptorsEv, symObjAddr: 0x9C9C, symBinAddr: 0x18444, symSize: 0xBC }
  - { offset: 0x17F63F, size: 0x8, addend: 0x0, symName: __ZN4grpc8internal9CallOpSetINS0_25CallOpSendInitialMetadataENS0_17CallOpSendMessageENS0_8CallNoOpILi3EEENS4_ILi4EEENS4_ILi5EEENS4_ILi6EEEE11core_cq_tagEv, symObjAddr: 0x9AF4, symBinAddr: 0x1829C, symSize: 0x8 }
  - { offset: 0x17F666, size: 0x8, addend: 0x0, symName: __ZN4grpc8internal9CallOpSetINS0_25CallOpSendInitialMetadataENS0_17CallOpSendMessageENS0_8CallNoOpILi3EEENS4_ILi4EEENS4_ILi5EEENS4_ILi6EEEE17SetHijackingStateEv, symObjAddr: 0x9AFC, symBinAddr: 0x182A4, symSize: 0x10 }
  - { offset: 0x17F6E7, size: 0x8, addend: 0x0, symName: __ZN4grpc8internal9CallOpSetINS0_25CallOpSendInitialMetadataENS0_17CallOpSendMessageENS0_8CallNoOpILi3EEENS4_ILi4EEENS4_ILi5EEENS4_ILi6EEEE39ContinueFinalizeResultAfterInterceptionEv, symObjAddr: 0x9C40, symBinAddr: 0x183E8, symSize: 0x5C }
  - { offset: 0x17F76E, size: 0x8, addend: 0x0, symName: __ZN4grpc8internal9CallOpSetINS0_25CallOpSendInitialMetadataENS0_17CallOpSendMessageENS0_8CallNoOpILi3EEENS4_ILi4EEENS4_ILi5EEENS4_ILi6EEEE15RunInterceptorsEv, symObjAddr: 0x9C9C, symBinAddr: 0x18444, symSize: 0xBC }
  - { offset: 0x17F78B, size: 0x8, addend: 0x0, symName: __ZNSt3__110__function6__funcIZN4grpc8internal30CallbackServerStreamingHandlerINS2_10ByteBufferES5_E24ServerCallbackWriterImpl6FinishENS2_6StatusEEUlbE_NS_9allocatorIS9_EEFvbEED1Ev, symObjAddr: 0x9EB4, symBinAddr: 0x1865C, symSize: 0x4 }
  - { offset: 0x17F7B6, size: 0x8, addend: 0x0, symName: __ZNSt3__110__function6__funcIZN4grpc8internal30CallbackServerStreamingHandlerINS2_10ByteBufferES5_E24ServerCallbackWriterImpl6FinishENS2_6StatusEEUlbE_NS_9allocatorIS9_EEFvbEED0Ev, symObjAddr: 0x9EB8, symBinAddr: 0x18660, symSize: 0x4 }
  - { offset: 0x17F9B9, size: 0x8, addend: 0x0, symName: __ZNKSt3__110__function6__funcIZN4grpc8internal30CallbackServerStreamingHandlerINS2_10ByteBufferES5_E24ServerCallbackWriterImpl6FinishENS2_6StatusEEUlbE_NS_9allocatorIS9_EEFvbEE7__cloneEv, symObjAddr: 0x9EBC, symBinAddr: 0x18664, symSize: 0x34 }
  - { offset: 0x17FCB2, size: 0x8, addend: 0x0, symName: __ZNKSt3__110__function6__funcIZN4grpc8internal30CallbackServerStreamingHandlerINS2_10ByteBufferES5_E24ServerCallbackWriterImpl6FinishENS2_6StatusEEUlbE_NS_9allocatorIS9_EEFvbEE7__cloneEPNS0_6__baseISC_EE, symObjAddr: 0x9EF0, symBinAddr: 0x18698, symSize: 0x14 }
  - { offset: 0x17FCEA, size: 0x8, addend: 0x0, symName: __ZNKSt3__110__function6__funcIZN4grpc8internal30CallbackServerStreamingHandlerINS2_10ByteBufferES5_E24ServerCallbackWriterImpl6FinishENS2_6StatusEEUlbE_NS_9allocatorIS9_EEFvbEE7__cloneEPNS0_6__baseISC_EE, symObjAddr: 0x9EF0, symBinAddr: 0x18698, symSize: 0x14 }
  - { offset: 0x17FD18, size: 0x8, addend: 0x0, symName: __ZNKSt3__110__function6__funcIZN4grpc8internal30CallbackServerStreamingHandlerINS2_10ByteBufferES5_E24ServerCallbackWriterImpl6FinishENS2_6StatusEEUlbE_NS_9allocatorIS9_EEFvbEE7__cloneEPNS0_6__baseISC_EE, symObjAddr: 0x9EF0, symBinAddr: 0x18698, symSize: 0x14 }
  - { offset: 0x17FD46, size: 0x8, addend: 0x0, symName: __ZNKSt3__110__function6__funcIZN4grpc8internal30CallbackServerStreamingHandlerINS2_10ByteBufferES5_E24ServerCallbackWriterImpl6FinishENS2_6StatusEEUlbE_NS_9allocatorIS9_EEFvbEE7__cloneEPNS0_6__baseISC_EE, symObjAddr: 0x9EF0, symBinAddr: 0x18698, symSize: 0x14 }
  - { offset: 0x17FD5B, size: 0x8, addend: 0x0, symName: __ZNKSt3__110__function6__funcIZN4grpc8internal30CallbackServerStreamingHandlerINS2_10ByteBufferES5_E24ServerCallbackWriterImpl6FinishENS2_6StatusEEUlbE_NS_9allocatorIS9_EEFvbEE7__cloneEPNS0_6__baseISC_EE, symObjAddr: 0x9EF0, symBinAddr: 0x18698, symSize: 0x14 }
  - { offset: 0x17FD6F, size: 0x8, addend: 0x0, symName: __ZNKSt3__110__function6__funcIZN4grpc8internal30CallbackServerStreamingHandlerINS2_10ByteBufferES5_E24ServerCallbackWriterImpl6FinishENS2_6StatusEEUlbE_NS_9allocatorIS9_EEFvbEE7__cloneEPNS0_6__baseISC_EE, symObjAddr: 0x9EF0, symBinAddr: 0x18698, symSize: 0x14 }
  - { offset: 0x17FD83, size: 0x8, addend: 0x0, symName: __ZNKSt3__110__function6__funcIZN4grpc8internal30CallbackServerStreamingHandlerINS2_10ByteBufferES5_E24ServerCallbackWriterImpl6FinishENS2_6StatusEEUlbE_NS_9allocatorIS9_EEFvbEE7__cloneEPNS0_6__baseISC_EE, symObjAddr: 0x9EF0, symBinAddr: 0x18698, symSize: 0x14 }
  - { offset: 0x17FD98, size: 0x8, addend: 0x0, symName: __ZNKSt3__110__function6__funcIZN4grpc8internal30CallbackServerStreamingHandlerINS2_10ByteBufferES5_E24ServerCallbackWriterImpl6FinishENS2_6StatusEEUlbE_NS_9allocatorIS9_EEFvbEE7__cloneEPNS0_6__baseISC_EE, symObjAddr: 0x9EF0, symBinAddr: 0x18698, symSize: 0x14 }
  - { offset: 0x17FDB0, size: 0x8, addend: 0x0, symName: __ZNSt3__110__function6__funcIZN4grpc8internal30CallbackServerStreamingHandlerINS2_10ByteBufferES5_E24ServerCallbackWriterImpl6FinishENS2_6StatusEEUlbE_NS_9allocatorIS9_EEFvbEE7destroyEv, symObjAddr: 0x9F04, symBinAddr: 0x186AC, symSize: 0x4 }
  - { offset: 0x17FE03, size: 0x8, addend: 0x0, symName: __ZNSt3__110__function6__funcIZN4grpc8internal30CallbackServerStreamingHandlerINS2_10ByteBufferES5_E24ServerCallbackWriterImpl6FinishENS2_6StatusEEUlbE_NS_9allocatorIS9_EEFvbEE18destroy_deallocateEv, symObjAddr: 0x9F08, symBinAddr: 0x186B0, symSize: 0x4 }
  - { offset: 0x17FE39, size: 0x8, addend: 0x0, symName: __ZNSt3__110__function6__funcIZN4grpc8internal30CallbackServerStreamingHandlerINS2_10ByteBufferES5_E24ServerCallbackWriterImpl6FinishENS2_6StatusEEUlbE_NS_9allocatorIS9_EEFvbEE18destroy_deallocateEv, symObjAddr: 0x9F08, symBinAddr: 0x186B0, symSize: 0x4 }
  - { offset: 0x17FE5C, size: 0x8, addend: 0x0, symName: __ZNSt3__110__function6__funcIZN4grpc8internal30CallbackServerStreamingHandlerINS2_10ByteBufferES5_E24ServerCallbackWriterImpl6FinishENS2_6StatusEEUlbE_NS_9allocatorIS9_EEFvbEE18destroy_deallocateEv, symObjAddr: 0x9F08, symBinAddr: 0x186B0, symSize: 0x4 }
  - { offset: 0x17FE88, size: 0x8, addend: 0x0, symName: __ZNSt3__110__function6__funcIZN4grpc8internal30CallbackServerStreamingHandlerINS2_10ByteBufferES5_E24ServerCallbackWriterImpl6FinishENS2_6StatusEEUlbE_NS_9allocatorIS9_EEFvbEE18destroy_deallocateEv, symObjAddr: 0x9F08, symBinAddr: 0x186B0, symSize: 0x4 }
  - { offset: 0x17FEAE, size: 0x8, addend: 0x0, symName: __ZNSt3__110__function6__funcIZN4grpc8internal30CallbackServerStreamingHandlerINS2_10ByteBufferES5_E24ServerCallbackWriterImpl6FinishENS2_6StatusEEUlbE_NS_9allocatorIS9_EEFvbEE18destroy_deallocateEv, symObjAddr: 0x9F08, symBinAddr: 0x186B0, symSize: 0x4 }
  - { offset: 0x17FF51, size: 0x8, addend: 0x0, symName: __ZNSt3__110__function6__funcIZN4grpc8internal30CallbackServerStreamingHandlerINS2_10ByteBufferES5_E24ServerCallbackWriterImpl6FinishENS2_6StatusEEUlbE_NS_9allocatorIS9_EEFvbEEclEOb, symObjAddr: 0x9F0C, symBinAddr: 0x186B4, symSize: 0x28 }
  - { offset: 0x180052, size: 0x8, addend: 0x0, symName: __ZNKSt3__110__function6__funcIZN4grpc8internal30CallbackServerStreamingHandlerINS2_10ByteBufferES5_E24ServerCallbackWriterImpl6FinishENS2_6StatusEEUlbE_NS_9allocatorIS9_EEFvbEE6targetERKSt9type_info, symObjAddr: 0x9F34, symBinAddr: 0x186DC, symSize: 0x3C }
  - { offset: 0x1800A2, size: 0x8, addend: 0x0, symName: __ZNKSt3__110__function6__funcIZN4grpc8internal30CallbackServerStreamingHandlerINS2_10ByteBufferES5_E24ServerCallbackWriterImpl6FinishENS2_6StatusEEUlbE_NS_9allocatorIS9_EEFvbEE11target_typeEv, symObjAddr: 0x9F70, symBinAddr: 0x18718, symSize: 0xC }
  - { offset: 0x1800CB, size: 0x8, addend: 0x0, symName: __ZNSt3__110__function6__funcIZN4grpc8internal30CallbackServerStreamingHandlerINS2_10ByteBufferES5_E24ServerCallbackWriterImpl19SendInitialMetadataEvEUlbE_NS_9allocatorIS8_EEFvbEED1Ev, symObjAddr: 0x9F7C, symBinAddr: 0x18724, symSize: 0x4 }
  - { offset: 0x1800F6, size: 0x8, addend: 0x0, symName: __ZNSt3__110__function6__funcIZN4grpc8internal30CallbackServerStreamingHandlerINS2_10ByteBufferES5_E24ServerCallbackWriterImpl19SendInitialMetadataEvEUlbE_NS_9allocatorIS8_EEFvbEED0Ev, symObjAddr: 0x9F80, symBinAddr: 0x18728, symSize: 0x4 }
  - { offset: 0x1802F9, size: 0x8, addend: 0x0, symName: __ZNKSt3__110__function6__funcIZN4grpc8internal30CallbackServerStreamingHandlerINS2_10ByteBufferES5_E24ServerCallbackWriterImpl19SendInitialMetadataEvEUlbE_NS_9allocatorIS8_EEFvbEE7__cloneEv, symObjAddr: 0x9F84, symBinAddr: 0x1872C, symSize: 0x34 }
  - { offset: 0x1805F2, size: 0x8, addend: 0x0, symName: __ZNKSt3__110__function6__funcIZN4grpc8internal30CallbackServerStreamingHandlerINS2_10ByteBufferES5_E24ServerCallbackWriterImpl19SendInitialMetadataEvEUlbE_NS_9allocatorIS8_EEFvbEE7__cloneEPNS0_6__baseISB_EE, symObjAddr: 0x9FB8, symBinAddr: 0x18760, symSize: 0x14 }
  - { offset: 0x18062A, size: 0x8, addend: 0x0, symName: __ZNKSt3__110__function6__funcIZN4grpc8internal30CallbackServerStreamingHandlerINS2_10ByteBufferES5_E24ServerCallbackWriterImpl19SendInitialMetadataEvEUlbE_NS_9allocatorIS8_EEFvbEE7__cloneEPNS0_6__baseISB_EE, symObjAddr: 0x9FB8, symBinAddr: 0x18760, symSize: 0x14 }
  - { offset: 0x180658, size: 0x8, addend: 0x0, symName: __ZNKSt3__110__function6__funcIZN4grpc8internal30CallbackServerStreamingHandlerINS2_10ByteBufferES5_E24ServerCallbackWriterImpl19SendInitialMetadataEvEUlbE_NS_9allocatorIS8_EEFvbEE7__cloneEPNS0_6__baseISB_EE, symObjAddr: 0x9FB8, symBinAddr: 0x18760, symSize: 0x14 }
  - { offset: 0x180686, size: 0x8, addend: 0x0, symName: __ZNKSt3__110__function6__funcIZN4grpc8internal30CallbackServerStreamingHandlerINS2_10ByteBufferES5_E24ServerCallbackWriterImpl19SendInitialMetadataEvEUlbE_NS_9allocatorIS8_EEFvbEE7__cloneEPNS0_6__baseISB_EE, symObjAddr: 0x9FB8, symBinAddr: 0x18760, symSize: 0x14 }
  - { offset: 0x18069B, size: 0x8, addend: 0x0, symName: __ZNKSt3__110__function6__funcIZN4grpc8internal30CallbackServerStreamingHandlerINS2_10ByteBufferES5_E24ServerCallbackWriterImpl19SendInitialMetadataEvEUlbE_NS_9allocatorIS8_EEFvbEE7__cloneEPNS0_6__baseISB_EE, symObjAddr: 0x9FB8, symBinAddr: 0x18760, symSize: 0x14 }
  - { offset: 0x1806AF, size: 0x8, addend: 0x0, symName: __ZNKSt3__110__function6__funcIZN4grpc8internal30CallbackServerStreamingHandlerINS2_10ByteBufferES5_E24ServerCallbackWriterImpl19SendInitialMetadataEvEUlbE_NS_9allocatorIS8_EEFvbEE7__cloneEPNS0_6__baseISB_EE, symObjAddr: 0x9FB8, symBinAddr: 0x18760, symSize: 0x14 }
  - { offset: 0x1806C3, size: 0x8, addend: 0x0, symName: __ZNKSt3__110__function6__funcIZN4grpc8internal30CallbackServerStreamingHandlerINS2_10ByteBufferES5_E24ServerCallbackWriterImpl19SendInitialMetadataEvEUlbE_NS_9allocatorIS8_EEFvbEE7__cloneEPNS0_6__baseISB_EE, symObjAddr: 0x9FB8, symBinAddr: 0x18760, symSize: 0x14 }
  - { offset: 0x1806D8, size: 0x8, addend: 0x0, symName: __ZNKSt3__110__function6__funcIZN4grpc8internal30CallbackServerStreamingHandlerINS2_10ByteBufferES5_E24ServerCallbackWriterImpl19SendInitialMetadataEvEUlbE_NS_9allocatorIS8_EEFvbEE7__cloneEPNS0_6__baseISB_EE, symObjAddr: 0x9FB8, symBinAddr: 0x18760, symSize: 0x14 }
  - { offset: 0x1806F0, size: 0x8, addend: 0x0, symName: __ZNSt3__110__function6__funcIZN4grpc8internal30CallbackServerStreamingHandlerINS2_10ByteBufferES5_E24ServerCallbackWriterImpl19SendInitialMetadataEvEUlbE_NS_9allocatorIS8_EEFvbEE7destroyEv, symObjAddr: 0x9FCC, symBinAddr: 0x18774, symSize: 0x4 }
  - { offset: 0x180743, size: 0x8, addend: 0x0, symName: __ZNSt3__110__function6__funcIZN4grpc8internal30CallbackServerStreamingHandlerINS2_10ByteBufferES5_E24ServerCallbackWriterImpl19SendInitialMetadataEvEUlbE_NS_9allocatorIS8_EEFvbEE18destroy_deallocateEv, symObjAddr: 0x9FD0, symBinAddr: 0x18778, symSize: 0x4 }
  - { offset: 0x180779, size: 0x8, addend: 0x0, symName: __ZNSt3__110__function6__funcIZN4grpc8internal30CallbackServerStreamingHandlerINS2_10ByteBufferES5_E24ServerCallbackWriterImpl19SendInitialMetadataEvEUlbE_NS_9allocatorIS8_EEFvbEE18destroy_deallocateEv, symObjAddr: 0x9FD0, symBinAddr: 0x18778, symSize: 0x4 }
  - { offset: 0x18079C, size: 0x8, addend: 0x0, symName: __ZNSt3__110__function6__funcIZN4grpc8internal30CallbackServerStreamingHandlerINS2_10ByteBufferES5_E24ServerCallbackWriterImpl19SendInitialMetadataEvEUlbE_NS_9allocatorIS8_EEFvbEE18destroy_deallocateEv, symObjAddr: 0x9FD0, symBinAddr: 0x18778, symSize: 0x4 }
  - { offset: 0x1807C8, size: 0x8, addend: 0x0, symName: __ZNSt3__110__function6__funcIZN4grpc8internal30CallbackServerStreamingHandlerINS2_10ByteBufferES5_E24ServerCallbackWriterImpl19SendInitialMetadataEvEUlbE_NS_9allocatorIS8_EEFvbEE18destroy_deallocateEv, symObjAddr: 0x9FD0, symBinAddr: 0x18778, symSize: 0x4 }
  - { offset: 0x1807EE, size: 0x8, addend: 0x0, symName: __ZNSt3__110__function6__funcIZN4grpc8internal30CallbackServerStreamingHandlerINS2_10ByteBufferES5_E24ServerCallbackWriterImpl19SendInitialMetadataEvEUlbE_NS_9allocatorIS8_EEFvbEE18destroy_deallocateEv, symObjAddr: 0x9FD0, symBinAddr: 0x18778, symSize: 0x4 }
  - { offset: 0x180839, size: 0x8, addend: 0x0, symName: __ZNSt3__110__function6__funcIZN4grpc8internal30CallbackServerStreamingHandlerINS2_10ByteBufferES5_E24ServerCallbackWriterImpl19SendInitialMetadataEvEUlbE_NS_9allocatorIS8_EEFvbEEclEOb, symObjAddr: 0x9FD4, symBinAddr: 0x1877C, symSize: 0x8 }
  - { offset: 0x1808AC, size: 0x8, addend: 0x0, symName: __ZNSt3__128__invoke_void_return_wrapperIvLb1EE6__callB8ne180100IJRZN4grpc8internal30CallbackServerStreamingHandlerINS3_10ByteBufferES6_E24ServerCallbackWriterImpl19SendInitialMetadataEvEUlbE_bEEEvDpOT_, symObjAddr: 0xA024, symBinAddr: 0x187CC, symSize: 0x5C }
  - { offset: 0x180A1B, size: 0x8, addend: 0x0, symName: __ZNKSt3__110__function6__funcIZN4grpc8internal30CallbackServerStreamingHandlerINS2_10ByteBufferES5_E24ServerCallbackWriterImpl19SendInitialMetadataEvEUlbE_NS_9allocatorIS8_EEFvbEE6targetERKSt9type_info, symObjAddr: 0x9FDC, symBinAddr: 0x18784, symSize: 0x3C }
  - { offset: 0x180A6B, size: 0x8, addend: 0x0, symName: __ZNKSt3__110__function6__funcIZN4grpc8internal30CallbackServerStreamingHandlerINS2_10ByteBufferES5_E24ServerCallbackWriterImpl19SendInitialMetadataEvEUlbE_NS_9allocatorIS8_EEFvbEE11target_typeEv, symObjAddr: 0xA018, symBinAddr: 0x187C0, symSize: 0xC }
  - { offset: 0x180ACC, size: 0x8, addend: 0x0, symName: __ZNSt3__110__function6__funcIZN4grpc8internal30CallbackServerStreamingHandlerINS2_10ByteBufferES5_E10RunHandlerERKNS3_13MethodHandler16HandlerParameterEEUlbE_NS_9allocatorISB_EEFvbEED1Ev, symObjAddr: 0xA080, symBinAddr: 0x18828, symSize: 0x4 }
  - { offset: 0x180AF7, size: 0x8, addend: 0x0, symName: __ZNSt3__110__function6__funcIZN4grpc8internal30CallbackServerStreamingHandlerINS2_10ByteBufferES5_E10RunHandlerERKNS3_13MethodHandler16HandlerParameterEEUlbE_NS_9allocatorISB_EEFvbEED0Ev, symObjAddr: 0xA084, symBinAddr: 0x1882C, symSize: 0x4 }
  - { offset: 0x180CFA, size: 0x8, addend: 0x0, symName: __ZNKSt3__110__function6__funcIZN4grpc8internal30CallbackServerStreamingHandlerINS2_10ByteBufferES5_E10RunHandlerERKNS3_13MethodHandler16HandlerParameterEEUlbE_NS_9allocatorISB_EEFvbEE7__cloneEv, symObjAddr: 0xA088, symBinAddr: 0x18830, symSize: 0x34 }
  - { offset: 0x180FF3, size: 0x8, addend: 0x0, symName: __ZNKSt3__110__function6__funcIZN4grpc8internal30CallbackServerStreamingHandlerINS2_10ByteBufferES5_E10RunHandlerERKNS3_13MethodHandler16HandlerParameterEEUlbE_NS_9allocatorISB_EEFvbEE7__cloneEPNS0_6__baseISE_EE, symObjAddr: 0xA0BC, symBinAddr: 0x18864, symSize: 0x14 }
  - { offset: 0x18102B, size: 0x8, addend: 0x0, symName: __ZNKSt3__110__function6__funcIZN4grpc8internal30CallbackServerStreamingHandlerINS2_10ByteBufferES5_E10RunHandlerERKNS3_13MethodHandler16HandlerParameterEEUlbE_NS_9allocatorISB_EEFvbEE7__cloneEPNS0_6__baseISE_EE, symObjAddr: 0xA0BC, symBinAddr: 0x18864, symSize: 0x14 }
  - { offset: 0x181059, size: 0x8, addend: 0x0, symName: __ZNKSt3__110__function6__funcIZN4grpc8internal30CallbackServerStreamingHandlerINS2_10ByteBufferES5_E10RunHandlerERKNS3_13MethodHandler16HandlerParameterEEUlbE_NS_9allocatorISB_EEFvbEE7__cloneEPNS0_6__baseISE_EE, symObjAddr: 0xA0BC, symBinAddr: 0x18864, symSize: 0x14 }
  - { offset: 0x181087, size: 0x8, addend: 0x0, symName: __ZNKSt3__110__function6__funcIZN4grpc8internal30CallbackServerStreamingHandlerINS2_10ByteBufferES5_E10RunHandlerERKNS3_13MethodHandler16HandlerParameterEEUlbE_NS_9allocatorISB_EEFvbEE7__cloneEPNS0_6__baseISE_EE, symObjAddr: 0xA0BC, symBinAddr: 0x18864, symSize: 0x14 }
  - { offset: 0x18109C, size: 0x8, addend: 0x0, symName: __ZNKSt3__110__function6__funcIZN4grpc8internal30CallbackServerStreamingHandlerINS2_10ByteBufferES5_E10RunHandlerERKNS3_13MethodHandler16HandlerParameterEEUlbE_NS_9allocatorISB_EEFvbEE7__cloneEPNS0_6__baseISE_EE, symObjAddr: 0xA0BC, symBinAddr: 0x18864, symSize: 0x14 }
  - { offset: 0x1810B0, size: 0x8, addend: 0x0, symName: __ZNKSt3__110__function6__funcIZN4grpc8internal30CallbackServerStreamingHandlerINS2_10ByteBufferES5_E10RunHandlerERKNS3_13MethodHandler16HandlerParameterEEUlbE_NS_9allocatorISB_EEFvbEE7__cloneEPNS0_6__baseISE_EE, symObjAddr: 0xA0BC, symBinAddr: 0x18864, symSize: 0x14 }
  - { offset: 0x1810C4, size: 0x8, addend: 0x0, symName: __ZNKSt3__110__function6__funcIZN4grpc8internal30CallbackServerStreamingHandlerINS2_10ByteBufferES5_E10RunHandlerERKNS3_13MethodHandler16HandlerParameterEEUlbE_NS_9allocatorISB_EEFvbEE7__cloneEPNS0_6__baseISE_EE, symObjAddr: 0xA0BC, symBinAddr: 0x18864, symSize: 0x14 }
  - { offset: 0x1810D9, size: 0x8, addend: 0x0, symName: __ZNKSt3__110__function6__funcIZN4grpc8internal30CallbackServerStreamingHandlerINS2_10ByteBufferES5_E10RunHandlerERKNS3_13MethodHandler16HandlerParameterEEUlbE_NS_9allocatorISB_EEFvbEE7__cloneEPNS0_6__baseISE_EE, symObjAddr: 0xA0BC, symBinAddr: 0x18864, symSize: 0x14 }
  - { offset: 0x1810F1, size: 0x8, addend: 0x0, symName: __ZNSt3__110__function6__funcIZN4grpc8internal30CallbackServerStreamingHandlerINS2_10ByteBufferES5_E10RunHandlerERKNS3_13MethodHandler16HandlerParameterEEUlbE_NS_9allocatorISB_EEFvbEE7destroyEv, symObjAddr: 0xA0D0, symBinAddr: 0x18878, symSize: 0x4 }
  - { offset: 0x181144, size: 0x8, addend: 0x0, symName: __ZNSt3__110__function6__funcIZN4grpc8internal30CallbackServerStreamingHandlerINS2_10ByteBufferES5_E10RunHandlerERKNS3_13MethodHandler16HandlerParameterEEUlbE_NS_9allocatorISB_EEFvbEE18destroy_deallocateEv, symObjAddr: 0xA0D4, symBinAddr: 0x1887C, symSize: 0x4 }
  - { offset: 0x18117A, size: 0x8, addend: 0x0, symName: __ZNSt3__110__function6__funcIZN4grpc8internal30CallbackServerStreamingHandlerINS2_10ByteBufferES5_E10RunHandlerERKNS3_13MethodHandler16HandlerParameterEEUlbE_NS_9allocatorISB_EEFvbEE18destroy_deallocateEv, symObjAddr: 0xA0D4, symBinAddr: 0x1887C, symSize: 0x4 }
  - { offset: 0x18119D, size: 0x8, addend: 0x0, symName: __ZNSt3__110__function6__funcIZN4grpc8internal30CallbackServerStreamingHandlerINS2_10ByteBufferES5_E10RunHandlerERKNS3_13MethodHandler16HandlerParameterEEUlbE_NS_9allocatorISB_EEFvbEE18destroy_deallocateEv, symObjAddr: 0xA0D4, symBinAddr: 0x1887C, symSize: 0x4 }
  - { offset: 0x1811C9, size: 0x8, addend: 0x0, symName: __ZNSt3__110__function6__funcIZN4grpc8internal30CallbackServerStreamingHandlerINS2_10ByteBufferES5_E10RunHandlerERKNS3_13MethodHandler16HandlerParameterEEUlbE_NS_9allocatorISB_EEFvbEE18destroy_deallocateEv, symObjAddr: 0xA0D4, symBinAddr: 0x1887C, symSize: 0x4 }
  - { offset: 0x1811EF, size: 0x8, addend: 0x0, symName: __ZNSt3__110__function6__funcIZN4grpc8internal30CallbackServerStreamingHandlerINS2_10ByteBufferES5_E10RunHandlerERKNS3_13MethodHandler16HandlerParameterEEUlbE_NS_9allocatorISB_EEFvbEE18destroy_deallocateEv, symObjAddr: 0xA0D4, symBinAddr: 0x1887C, symSize: 0x4 }
  - { offset: 0x181292, size: 0x8, addend: 0x0, symName: __ZNSt3__110__function6__funcIZN4grpc8internal30CallbackServerStreamingHandlerINS2_10ByteBufferES5_E10RunHandlerERKNS3_13MethodHandler16HandlerParameterEEUlbE_NS_9allocatorISB_EEFvbEEclEOb, symObjAddr: 0xA0D8, symBinAddr: 0x18880, symSize: 0x28 }
  - { offset: 0x1813B7, size: 0x8, addend: 0x0, symName: __ZNKSt3__110__function6__funcIZN4grpc8internal30CallbackServerStreamingHandlerINS2_10ByteBufferES5_E10RunHandlerERKNS3_13MethodHandler16HandlerParameterEEUlbE_NS_9allocatorISB_EEFvbEE6targetERKSt9type_info, symObjAddr: 0xA100, symBinAddr: 0x188A8, symSize: 0x3C }
  - { offset: 0x181407, size: 0x8, addend: 0x0, symName: __ZNKSt3__110__function6__funcIZN4grpc8internal30CallbackServerStreamingHandlerINS2_10ByteBufferES5_E10RunHandlerERKNS3_13MethodHandler16HandlerParameterEEUlbE_NS_9allocatorISB_EEFvbEE11target_typeEv, symObjAddr: 0xA13C, symBinAddr: 0x188E4, symSize: 0xC }
  - { offset: 0x181480, size: 0x8, addend: 0x0, symName: __ZN4grpc8internal17FinishOnlyReactorINS_18ServerWriteReactorINS_10ByteBufferEEEED1Ev, symObjAddr: 0xA274, symBinAddr: 0x18A1C, symSize: 0x4 }
  - { offset: 0x1814A2, size: 0x8, addend: 0x0, symName: __ZN4grpc8internal17FinishOnlyReactorINS_18ServerWriteReactorINS_10ByteBufferEEEED1Ev, symObjAddr: 0xA274, symBinAddr: 0x18A1C, symSize: 0x4 }
  - { offset: 0x1814C0, size: 0x8, addend: 0x0, symName: __ZN4grpc8internal17FinishOnlyReactorINS_18ServerWriteReactorINS_10ByteBufferEEEED1Ev, symObjAddr: 0xA274, symBinAddr: 0x18A1C, symSize: 0x4 }
  - { offset: 0x1814F1, size: 0x8, addend: 0x0, symName: __ZN4grpc8internal17FinishOnlyReactorINS_18ServerWriteReactorINS_10ByteBufferEEEED0Ev, symObjAddr: 0xA278, symBinAddr: 0x18A20, symSize: 0x14 }
  - { offset: 0x18156E, size: 0x8, addend: 0x0, symName: __ZN4grpc8internal17FinishOnlyReactorINS_18ServerWriteReactorINS_10ByteBufferEEEE6OnDoneEv, symObjAddr: 0xA28C, symBinAddr: 0x18A34, symSize: 0xC }
  - { offset: 0x1815A8, size: 0x8, addend: 0x0, symName: __ZNSt3__110__function6__funcIZN4grpc8internal30CallbackServerStreamingHandlerINS2_10ByteBufferES5_E24ServerCallbackWriterImpl12SetupReactorEPNS2_18ServerWriteReactorIS5_EEEUlbE_NS_9allocatorISB_EEFvbEED1Ev, symObjAddr: 0xA298, symBinAddr: 0x18A40, symSize: 0x4 }
  - { offset: 0x1815D3, size: 0x8, addend: 0x0, symName: __ZNSt3__110__function6__funcIZN4grpc8internal30CallbackServerStreamingHandlerINS2_10ByteBufferES5_E24ServerCallbackWriterImpl12SetupReactorEPNS2_18ServerWriteReactorIS5_EEEUlbE_NS_9allocatorISB_EEFvbEED0Ev, symObjAddr: 0xA29C, symBinAddr: 0x18A44, symSize: 0x4 }
  - { offset: 0x1817D6, size: 0x8, addend: 0x0, symName: __ZNKSt3__110__function6__funcIZN4grpc8internal30CallbackServerStreamingHandlerINS2_10ByteBufferES5_E24ServerCallbackWriterImpl12SetupReactorEPNS2_18ServerWriteReactorIS5_EEEUlbE_NS_9allocatorISB_EEFvbEE7__cloneEv, symObjAddr: 0xA2A0, symBinAddr: 0x18A48, symSize: 0x38 }
  - { offset: 0x181AFC, size: 0x8, addend: 0x0, symName: __ZNKSt3__110__function6__funcIZN4grpc8internal30CallbackServerStreamingHandlerINS2_10ByteBufferES5_E24ServerCallbackWriterImpl12SetupReactorEPNS2_18ServerWriteReactorIS5_EEEUlbE_NS_9allocatorISB_EEFvbEE7__cloneEPNS0_6__baseISE_EE, symObjAddr: 0xA2D8, symBinAddr: 0x18A80, symSize: 0x18 }
  - { offset: 0x181B34, size: 0x8, addend: 0x0, symName: __ZNKSt3__110__function6__funcIZN4grpc8internal30CallbackServerStreamingHandlerINS2_10ByteBufferES5_E24ServerCallbackWriterImpl12SetupReactorEPNS2_18ServerWriteReactorIS5_EEEUlbE_NS_9allocatorISB_EEFvbEE7__cloneEPNS0_6__baseISE_EE, symObjAddr: 0xA2D8, symBinAddr: 0x18A80, symSize: 0x18 }
  - { offset: 0x181B62, size: 0x8, addend: 0x0, symName: __ZNKSt3__110__function6__funcIZN4grpc8internal30CallbackServerStreamingHandlerINS2_10ByteBufferES5_E24ServerCallbackWriterImpl12SetupReactorEPNS2_18ServerWriteReactorIS5_EEEUlbE_NS_9allocatorISB_EEFvbEE7__cloneEPNS0_6__baseISE_EE, symObjAddr: 0xA2D8, symBinAddr: 0x18A80, symSize: 0x18 }
  - { offset: 0x181C78, size: 0x8, addend: 0x0, symName: __ZNSt3__110__function6__funcIZN4grpc8internal30CallbackServerStreamingHandlerINS2_10ByteBufferES5_E24ServerCallbackWriterImpl12SetupReactorEPNS2_18ServerWriteReactorIS5_EEEUlbE_NS_9allocatorISB_EEFvbEE7destroyEv, symObjAddr: 0xA2F0, symBinAddr: 0x18A98, symSize: 0x4 }
  - { offset: 0x181CCB, size: 0x8, addend: 0x0, symName: __ZNSt3__110__function6__funcIZN4grpc8internal30CallbackServerStreamingHandlerINS2_10ByteBufferES5_E24ServerCallbackWriterImpl12SetupReactorEPNS2_18ServerWriteReactorIS5_EEEUlbE_NS_9allocatorISB_EEFvbEE18destroy_deallocateEv, symObjAddr: 0xA2F4, symBinAddr: 0x18A9C, symSize: 0x4 }
  - { offset: 0x181D01, size: 0x8, addend: 0x0, symName: __ZNSt3__110__function6__funcIZN4grpc8internal30CallbackServerStreamingHandlerINS2_10ByteBufferES5_E24ServerCallbackWriterImpl12SetupReactorEPNS2_18ServerWriteReactorIS5_EEEUlbE_NS_9allocatorISB_EEFvbEE18destroy_deallocateEv, symObjAddr: 0xA2F4, symBinAddr: 0x18A9C, symSize: 0x4 }
  - { offset: 0x181D24, size: 0x8, addend: 0x0, symName: __ZNSt3__110__function6__funcIZN4grpc8internal30CallbackServerStreamingHandlerINS2_10ByteBufferES5_E24ServerCallbackWriterImpl12SetupReactorEPNS2_18ServerWriteReactorIS5_EEEUlbE_NS_9allocatorISB_EEFvbEE18destroy_deallocateEv, symObjAddr: 0xA2F4, symBinAddr: 0x18A9C, symSize: 0x4 }
  - { offset: 0x181D50, size: 0x8, addend: 0x0, symName: __ZNSt3__110__function6__funcIZN4grpc8internal30CallbackServerStreamingHandlerINS2_10ByteBufferES5_E24ServerCallbackWriterImpl12SetupReactorEPNS2_18ServerWriteReactorIS5_EEEUlbE_NS_9allocatorISB_EEFvbEE18destroy_deallocateEv, symObjAddr: 0xA2F4, symBinAddr: 0x18A9C, symSize: 0x4 }
  - { offset: 0x181D76, size: 0x8, addend: 0x0, symName: __ZNSt3__110__function6__funcIZN4grpc8internal30CallbackServerStreamingHandlerINS2_10ByteBufferES5_E24ServerCallbackWriterImpl12SetupReactorEPNS2_18ServerWriteReactorIS5_EEEUlbE_NS_9allocatorISB_EEFvbEE18destroy_deallocateEv, symObjAddr: 0xA2F4, symBinAddr: 0x18A9C, symSize: 0x4 }
  - { offset: 0x181DC1, size: 0x8, addend: 0x0, symName: __ZNSt3__110__function6__funcIZN4grpc8internal30CallbackServerStreamingHandlerINS2_10ByteBufferES5_E24ServerCallbackWriterImpl12SetupReactorEPNS2_18ServerWriteReactorIS5_EEEUlbE_NS_9allocatorISB_EEFvbEEclEOb, symObjAddr: 0xA2F8, symBinAddr: 0x18AA0, symSize: 0x8 }
  - { offset: 0x181E34, size: 0x8, addend: 0x0, symName: __ZNSt3__128__invoke_void_return_wrapperIvLb1EE6__callB8ne180100IJRZN4grpc8internal30CallbackServerStreamingHandlerINS3_10ByteBufferES6_E24ServerCallbackWriterImpl12SetupReactorEPNS3_18ServerWriteReactorIS6_EEEUlbE_bEEEvDpOT_, symObjAddr: 0xA348, symBinAddr: 0x18AF0, symSize: 0x58 }
  - { offset: 0x181F4C, size: 0x8, addend: 0x0, symName: __ZNKSt3__110__function6__funcIZN4grpc8internal30CallbackServerStreamingHandlerINS2_10ByteBufferES5_E24ServerCallbackWriterImpl12SetupReactorEPNS2_18ServerWriteReactorIS5_EEEUlbE_NS_9allocatorISB_EEFvbEE6targetERKSt9type_info, symObjAddr: 0xA300, symBinAddr: 0x18AA8, symSize: 0x3C }
  - { offset: 0x181F9C, size: 0x8, addend: 0x0, symName: __ZNKSt3__110__function6__funcIZN4grpc8internal30CallbackServerStreamingHandlerINS2_10ByteBufferES5_E24ServerCallbackWriterImpl12SetupReactorEPNS2_18ServerWriteReactorIS5_EEEUlbE_NS_9allocatorISB_EEFvbEE11target_typeEv, symObjAddr: 0xA33C, symBinAddr: 0x18AE4, symSize: 0xC }
  - { offset: 0x18216C, size: 0x8, addend: 0x0, symName: __ZN9grpc_core8RefCount5UnrefEv.cold.1, symObjAddr: 0xAB60, symBinAddr: 0x3000C, symSize: 0x48 }
  - { offset: 0x1821FF, size: 0x8, addend: 0x0, symName: _OUTLINED_FUNCTION_0, symObjAddr: 0xABA8, symBinAddr: 0x18E04, symSize: 0x18 }
  - { offset: 0x182217, size: 0x8, addend: 0x0, symName: _OUTLINED_FUNCTION_1, symObjAddr: 0xABC0, symBinAddr: 0x18E1C, symSize: 0x10 }
  - { offset: 0x18222F, size: 0x8, addend: 0x0, symName: _OUTLINED_FUNCTION_2, symObjAddr: 0xABD0, symBinAddr: 0x18E2C, symSize: 0xC }
  - { offset: 0x182247, size: 0x8, addend: 0x0, symName: _OUTLINED_FUNCTION_3, symObjAddr: 0xABDC, symBinAddr: 0x18E38, symSize: 0xC }
  - { offset: 0x18225F, size: 0x8, addend: 0x0, symName: _OUTLINED_FUNCTION_4, symObjAddr: 0xABE8, symBinAddr: 0x18E44, symSize: 0x8 }
  - { offset: 0x195A02, size: 0x8, addend: 0x0, symName: __ZN4grpc8internal30ExternalConnectionAcceptorImplC2ERKNSt3__112basic_stringIcNS2_11char_traitsIcEENS2_9allocatorIcEEEENS_13ServerBuilder17experimental_type22ExternalConnectionTypeENS2_10shared_ptrINS_17ServerCredentialsEEE, symObjAddr: 0x0, symBinAddr: 0x18E4C, symSize: 0x114 }
  - { offset: 0x196064, size: 0x8, addend: 0x0, symName: __ZN4grpc8internal30ExternalConnectionAcceptorImplC1ERKNSt3__112basic_stringIcNS2_11char_traitsIcEENS2_9allocatorIcEEEENS_13ServerBuilder17experimental_type22ExternalConnectionTypeENS2_10shared_ptrINS_17ServerCredentialsEEE, symObjAddr: 0x114, symBinAddr: 0x18F60, symSize: 0x4 }
  - { offset: 0x1960BD, size: 0x8, addend: 0x0, symName: __ZN4grpc8internal30ExternalConnectionAcceptorImplC1ERKNSt3__112basic_stringIcNS2_11char_traitsIcEENS2_9allocatorIcEEEENS_13ServerBuilder17experimental_type22ExternalConnectionTypeENS2_10shared_ptrINS_17ServerCredentialsEEE, symObjAddr: 0x114, symBinAddr: 0x18F60, symSize: 0x4 }
  - { offset: 0x1963A0, size: 0x8, addend: 0x0, symName: __ZN4grpc8internal30ExternalConnectionAcceptorImpl11GetAcceptorEv, symObjAddr: 0x118, symBinAddr: 0x18F64, symSize: 0xE0 }
  - { offset: 0x1967C2, size: 0x8, addend: 0x0, symName: __ZN4grpc8internal30ExternalConnectionAcceptorImpl19HandleNewConnectionEPNS_12experimental26ExternalConnectionAcceptor23NewConnectionParametersE, symObjAddr: 0x1F8, symBinAddr: 0x19044, symSize: 0x138 }
  - { offset: 0x196A28, size: 0x8, addend: 0x0, symName: __ZN4grpc8internal30ExternalConnectionAcceptorImpl8ShutdownEv, symObjAddr: 0x330, symBinAddr: 0x1917C, symSize: 0x3C }
  - { offset: 0x196B19, size: 0x8, addend: 0x0, symName: __ZN4grpc8internal30ExternalConnectionAcceptorImpl5StartEv, symObjAddr: 0x36C, symBinAddr: 0x191B8, symSize: 0xEC }
  - { offset: 0x196C66, size: 0x8, addend: 0x0, symName: __ZN4grpc8internal30ExternalConnectionAcceptorImpl16SetToChannelArgsEPNS_16ChannelArgumentsE, symObjAddr: 0x458, symBinAddr: 0x192A4, symSize: 0x14 }
  - { offset: 0x196CD5, size: 0x8, addend: 0x0, symName: __ZN4grpc8internal12_GLOBAL__N_115AcceptorWrapperD1Ev, symObjAddr: 0x47C, symBinAddr: 0x192B8, symSize: 0x30 }
  - { offset: 0x196DB5, size: 0x8, addend: 0x0, symName: __ZN4grpc8internal12_GLOBAL__N_115AcceptorWrapperD0Ev, symObjAddr: 0x4AC, symBinAddr: 0x192E8, symSize: 0x30 }
  - { offset: 0x196E5A, size: 0x8, addend: 0x0, symName: __ZN4grpc8internal12_GLOBAL__N_115AcceptorWrapper19HandleNewConnectionEPNS_12experimental26ExternalConnectionAcceptor23NewConnectionParametersE, symObjAddr: 0x4DC, symBinAddr: 0x19318, symSize: 0x8 }
  - { offset: 0x196E91, size: 0x8, addend: 0x0, symName: __ZN4grpc8internal12_GLOBAL__N_115AcceptorWrapper19HandleNewConnectionEPNS_12experimental26ExternalConnectionAcceptor23NewConnectionParametersE, symObjAddr: 0x4DC, symBinAddr: 0x19318, symSize: 0x8 }
  - { offset: 0x199016, size: 0x8, addend: 0x0, symName: __ZN4grpc32DefaultHealthCheckServiceEnabledEv, symObjAddr: 0x0, symBinAddr: 0x19320, symSize: 0xC }
  - { offset: 0x199037, size: 0x8, addend: 0x0, symName: __ZN4grpc12_GLOBAL__N_143g_grpc_default_health_check_service_enabledE, symObjAddr: 0xE8F5, symBinAddr: 0x491E0, symSize: 0x0 }
  - { offset: 0x199046, size: 0x8, addend: 0x0, symName: __ZN4grpc32DefaultHealthCheckServiceEnabledEv, symObjAddr: 0x0, symBinAddr: 0x19320, symSize: 0xC }
  - { offset: 0x199064, size: 0x8, addend: 0x0, symName: __ZN4grpc31EnableDefaultHealthCheckServiceEb, symObjAddr: 0xC, symBinAddr: 0x1932C, symSize: 0xC }
  - { offset: 0x19D24E, size: 0x8, addend: 0x0, symName: __ZN4grpc37HealthCheckServiceServerBuilderOptionC2ENSt3__110unique_ptrINS_27HealthCheckServiceInterfaceENS1_14default_deleteIS3_EEEE, symObjAddr: 0x0, symBinAddr: 0x19338, symSize: 0x18 }
  - { offset: 0x19D26D, size: 0x8, addend: 0x0, symName: __ZN4grpcL31kHealthCheckServiceInterfaceArgE, symObjAddr: 0x2E0, symBinAddr: 0x34B4B, symSize: 0x0 }
  - { offset: 0x1A16D5, size: 0x8, addend: 0x0, symName: __ZN4grpc37HealthCheckServiceServerBuilderOptionC2ENSt3__110unique_ptrINS_27HealthCheckServiceInterfaceENS1_14default_deleteIS3_EEEE, symObjAddr: 0x0, symBinAddr: 0x19338, symSize: 0x18 }
  - { offset: 0x1A16FF, size: 0x8, addend: 0x0, symName: __ZN4grpc37HealthCheckServiceServerBuilderOptionC2ENSt3__110unique_ptrINS_27HealthCheckServiceInterfaceENS1_14default_deleteIS3_EEEE, symObjAddr: 0x0, symBinAddr: 0x19338, symSize: 0x18 }
  - { offset: 0x1A1713, size: 0x8, addend: 0x0, symName: __ZN4grpc37HealthCheckServiceServerBuilderOptionC2ENSt3__110unique_ptrINS_27HealthCheckServiceInterfaceENS1_14default_deleteIS3_EEEE, symObjAddr: 0x0, symBinAddr: 0x19338, symSize: 0x18 }
  - { offset: 0x1A1727, size: 0x8, addend: 0x0, symName: __ZN4grpc37HealthCheckServiceServerBuilderOptionC2ENSt3__110unique_ptrINS_27HealthCheckServiceInterfaceENS1_14default_deleteIS3_EEEE, symObjAddr: 0x0, symBinAddr: 0x19338, symSize: 0x18 }
  - { offset: 0x1A1772, size: 0x8, addend: 0x0, symName: __ZN4grpc37HealthCheckServiceServerBuilderOptionC1ENSt3__110unique_ptrINS_27HealthCheckServiceInterfaceENS1_14default_deleteIS3_EEEE, symObjAddr: 0x18, symBinAddr: 0x19350, symSize: 0x18 }
  - { offset: 0x1A17AE, size: 0x8, addend: 0x0, symName: __ZN4grpc37HealthCheckServiceServerBuilderOptionC1ENSt3__110unique_ptrINS_27HealthCheckServiceInterfaceENS1_14default_deleteIS3_EEEE, symObjAddr: 0x18, symBinAddr: 0x19350, symSize: 0x18 }
  - { offset: 0x1A17D1, size: 0x8, addend: 0x0, symName: __ZN4grpc37HealthCheckServiceServerBuilderOptionC1ENSt3__110unique_ptrINS_27HealthCheckServiceInterfaceENS1_14default_deleteIS3_EEEE, symObjAddr: 0x18, symBinAddr: 0x19350, symSize: 0x18 }
  - { offset: 0x1A17E5, size: 0x8, addend: 0x0, symName: __ZN4grpc37HealthCheckServiceServerBuilderOptionC1ENSt3__110unique_ptrINS_27HealthCheckServiceInterfaceENS1_14default_deleteIS3_EEEE, symObjAddr: 0x18, symBinAddr: 0x19350, symSize: 0x18 }
  - { offset: 0x1A17F9, size: 0x8, addend: 0x0, symName: __ZN4grpc37HealthCheckServiceServerBuilderOptionC1ENSt3__110unique_ptrINS_27HealthCheckServiceInterfaceENS1_14default_deleteIS3_EEEE, symObjAddr: 0x18, symBinAddr: 0x19350, symSize: 0x18 }
  - { offset: 0x1A1908, size: 0x8, addend: 0x0, symName: __ZN4grpc37HealthCheckServiceServerBuilderOption15UpdateArgumentsEPNS_16ChannelArgumentsE, symObjAddr: 0x30, symBinAddr: 0x19368, symSize: 0x78 }
  - { offset: 0x1A1E5E, size: 0x8, addend: 0x0, symName: __ZN4grpc37HealthCheckServiceServerBuilderOption13UpdatePluginsEPNSt3__16vectorINS1_10unique_ptrINS_19ServerBuilderPluginENS1_14default_deleteIS4_EEEENS1_9allocatorIS7_EEEE, symObjAddr: 0xA8, symBinAddr: 0x193E0, symSize: 0x4 }
  - { offset: 0x1A1F2E, size: 0x8, addend: 0x0, symName: __ZN4grpc37HealthCheckServiceServerBuilderOptionD1Ev, symObjAddr: 0xAC, symBinAddr: 0x193E4, symSize: 0x40 }
  - { offset: 0x1A200D, size: 0x8, addend: 0x0, symName: __ZN4grpc37HealthCheckServiceServerBuilderOptionD0Ev, symObjAddr: 0xEC, symBinAddr: 0x19424, symSize: 0x40 }
  - { offset: 0x1A4206, size: 0x8, addend: 0x0, symName: __ZN4grpc26InsecureChannelCredentialsEv, symObjAddr: 0x0, symBinAddr: 0x19464, symSize: 0x70 }
  - { offset: 0x1A4CE9, size: 0x8, addend: 0x0, symName: __ZN4grpc26InsecureChannelCredentialsEv, symObjAddr: 0x0, symBinAddr: 0x19464, symSize: 0x70 }
  - { offset: 0x1AC225, size: 0x8, addend: 0x0, symName: __ZNSt3__120__shared_ptr_emplaceIN4grpc12_GLOBAL__N_130InsecureChannelCredentialsImplENS_9allocatorIS3_EEED1Ev, symObjAddr: 0x70, symBinAddr: 0x194D4, symSize: 0x10 }
  - { offset: 0x1AC247, size: 0x8, addend: 0x0, symName: __ZNSt3__120__shared_ptr_emplaceIN4grpc12_GLOBAL__N_130InsecureChannelCredentialsImplENS_9allocatorIS3_EEED1Ev, symObjAddr: 0x70, symBinAddr: 0x194D4, symSize: 0x10 }
  - { offset: 0x1AC27D, size: 0x8, addend: 0x0, symName: __ZNSt3__120__shared_ptr_emplaceIN4grpc12_GLOBAL__N_130InsecureChannelCredentialsImplENS_9allocatorIS3_EEED0Ev, symObjAddr: 0x80, symBinAddr: 0x194E4, symSize: 0x20 }
  - { offset: 0x1AC3B9, size: 0x8, addend: 0x0, symName: __ZNSt3__120__shared_ptr_emplaceIN4grpc12_GLOBAL__N_130InsecureChannelCredentialsImplENS_9allocatorIS3_EEE16__on_zero_sharedEv, symObjAddr: 0xA0, symBinAddr: 0x19504, symSize: 0x8 }
  - { offset: 0x1AC3E2, size: 0x8, addend: 0x0, symName: __ZNSt3__120__shared_ptr_emplaceIN4grpc12_GLOBAL__N_130InsecureChannelCredentialsImplENS_9allocatorIS3_EEE16__on_zero_sharedEv, symObjAddr: 0xA0, symBinAddr: 0x19504, symSize: 0x8 }
  - { offset: 0x1AC400, size: 0x8, addend: 0x0, symName: __ZNSt3__120__shared_ptr_emplaceIN4grpc12_GLOBAL__N_130InsecureChannelCredentialsImplENS_9allocatorIS3_EEE16__on_zero_sharedEv, symObjAddr: 0xA0, symBinAddr: 0x19504, symSize: 0x8 }
  - { offset: 0x1AC48E, size: 0x8, addend: 0x0, symName: __ZNSt3__120__shared_ptr_emplaceIN4grpc12_GLOBAL__N_130InsecureChannelCredentialsImplENS_9allocatorIS3_EEE21__on_zero_shared_weakEv, symObjAddr: 0xA8, symBinAddr: 0x1950C, symSize: 0x4 }
  - { offset: 0x1AC4C2, size: 0x8, addend: 0x0, symName: __ZNSt3__120__shared_ptr_emplaceIN4grpc12_GLOBAL__N_130InsecureChannelCredentialsImplENS_9allocatorIS3_EEE21__on_zero_shared_weakEv, symObjAddr: 0xA8, symBinAddr: 0x1950C, symSize: 0x4 }
  - { offset: 0x1AC4E5, size: 0x8, addend: 0x0, symName: __ZNSt3__120__shared_ptr_emplaceIN4grpc12_GLOBAL__N_130InsecureChannelCredentialsImplENS_9allocatorIS3_EEE21__on_zero_shared_weakEv, symObjAddr: 0xA8, symBinAddr: 0x1950C, symSize: 0x4 }
  - { offset: 0x1AC508, size: 0x8, addend: 0x0, symName: __ZNSt3__120__shared_ptr_emplaceIN4grpc12_GLOBAL__N_130InsecureChannelCredentialsImplENS_9allocatorIS3_EEE21__on_zero_shared_weakEv, symObjAddr: 0xA8, symBinAddr: 0x1950C, symSize: 0x4 }
  - { offset: 0x1AC535, size: 0x8, addend: 0x0, symName: __ZNSt3__120__shared_ptr_emplaceIN4grpc12_GLOBAL__N_130InsecureChannelCredentialsImplENS_9allocatorIS3_EEE21__on_zero_shared_weakEv, symObjAddr: 0xA8, symBinAddr: 0x1950C, symSize: 0x4 }
  - { offset: 0x1AC55C, size: 0x8, addend: 0x0, symName: __ZNSt3__120__shared_ptr_emplaceIN4grpc12_GLOBAL__N_130InsecureChannelCredentialsImplENS_9allocatorIS3_EEE21__on_zero_shared_weakEv, symObjAddr: 0xA8, symBinAddr: 0x1950C, symSize: 0x4 }
  - { offset: 0x1AC587, size: 0x8, addend: 0x0, symName: __ZN4grpc12_GLOBAL__N_130InsecureChannelCredentialsImplD1Ev, symObjAddr: 0xAC, symBinAddr: 0x19510, symSize: 0x4 }
  - { offset: 0x1AC5A9, size: 0x8, addend: 0x0, symName: __ZN4grpc12_GLOBAL__N_130InsecureChannelCredentialsImplD1Ev, symObjAddr: 0xAC, symBinAddr: 0x19510, symSize: 0x4 }
  - { offset: 0x1AC5C3, size: 0x8, addend: 0x0, symName: __ZN4grpc12_GLOBAL__N_130InsecureChannelCredentialsImplD0Ev, symObjAddr: 0xB0, symBinAddr: 0x19514, symSize: 0x14 }
  - { offset: 0x1AC978, size: 0x8, addend: 0x0, symName: __ZN4grpc12_GLOBAL__N_130InsecureChannelCredentialsImpl29CreateChannelWithInterceptorsERKNSt3__112basic_stringIcNS2_11char_traitsIcEENS2_9allocatorIcEEEERKNS_16ChannelArgumentsENS2_6vectorINS2_10unique_ptrINS_12experimental33ClientInterceptorFactoryInterfaceENS2_14default_deleteISH_EEEENS6_ISK_EEEE, symObjAddr: 0x128, symBinAddr: 0x19528, symSize: 0xEC }
  - { offset: 0x1AF3ED, size: 0x8, addend: 0x0, symName: __ZN4grpc25InsecureServerCredentialsEv, symObjAddr: 0x0, symBinAddr: 0x19614, symSize: 0x70 }
  - { offset: 0x1B25F1, size: 0x8, addend: 0x0, symName: __ZN4grpc25InsecureServerCredentialsEv, symObjAddr: 0x0, symBinAddr: 0x19614, symSize: 0x70 }
  - { offset: 0x1B2E9A, size: 0x8, addend: 0x0, symName: __ZNSt3__120__shared_ptr_emplaceIN4grpc12_GLOBAL__N_129InsecureServerCredentialsImplENS_9allocatorIS3_EEED1Ev, symObjAddr: 0x70, symBinAddr: 0x19684, symSize: 0x10 }
  - { offset: 0x1B2EBC, size: 0x8, addend: 0x0, symName: __ZNSt3__120__shared_ptr_emplaceIN4grpc12_GLOBAL__N_129InsecureServerCredentialsImplENS_9allocatorIS3_EEED1Ev, symObjAddr: 0x70, symBinAddr: 0x19684, symSize: 0x10 }
  - { offset: 0x1B2EF2, size: 0x8, addend: 0x0, symName: __ZNSt3__120__shared_ptr_emplaceIN4grpc12_GLOBAL__N_129InsecureServerCredentialsImplENS_9allocatorIS3_EEED0Ev, symObjAddr: 0x80, symBinAddr: 0x19694, symSize: 0x20 }
  - { offset: 0x1B302E, size: 0x8, addend: 0x0, symName: __ZNSt3__120__shared_ptr_emplaceIN4grpc12_GLOBAL__N_129InsecureServerCredentialsImplENS_9allocatorIS3_EEE16__on_zero_sharedEv, symObjAddr: 0xA0, symBinAddr: 0x196B4, symSize: 0x8 }
  - { offset: 0x1B3057, size: 0x8, addend: 0x0, symName: __ZNSt3__120__shared_ptr_emplaceIN4grpc12_GLOBAL__N_129InsecureServerCredentialsImplENS_9allocatorIS3_EEE16__on_zero_sharedEv, symObjAddr: 0xA0, symBinAddr: 0x196B4, symSize: 0x8 }
  - { offset: 0x1B3075, size: 0x8, addend: 0x0, symName: __ZNSt3__120__shared_ptr_emplaceIN4grpc12_GLOBAL__N_129InsecureServerCredentialsImplENS_9allocatorIS3_EEE16__on_zero_sharedEv, symObjAddr: 0xA0, symBinAddr: 0x196B4, symSize: 0x8 }
  - { offset: 0x1B3103, size: 0x8, addend: 0x0, symName: __ZNSt3__120__shared_ptr_emplaceIN4grpc12_GLOBAL__N_129InsecureServerCredentialsImplENS_9allocatorIS3_EEE21__on_zero_shared_weakEv, symObjAddr: 0xA8, symBinAddr: 0x196BC, symSize: 0x4 }
  - { offset: 0x1B3137, size: 0x8, addend: 0x0, symName: __ZNSt3__120__shared_ptr_emplaceIN4grpc12_GLOBAL__N_129InsecureServerCredentialsImplENS_9allocatorIS3_EEE21__on_zero_shared_weakEv, symObjAddr: 0xA8, symBinAddr: 0x196BC, symSize: 0x4 }
  - { offset: 0x1B315A, size: 0x8, addend: 0x0, symName: __ZNSt3__120__shared_ptr_emplaceIN4grpc12_GLOBAL__N_129InsecureServerCredentialsImplENS_9allocatorIS3_EEE21__on_zero_shared_weakEv, symObjAddr: 0xA8, symBinAddr: 0x196BC, symSize: 0x4 }
  - { offset: 0x1B317D, size: 0x8, addend: 0x0, symName: __ZNSt3__120__shared_ptr_emplaceIN4grpc12_GLOBAL__N_129InsecureServerCredentialsImplENS_9allocatorIS3_EEE21__on_zero_shared_weakEv, symObjAddr: 0xA8, symBinAddr: 0x196BC, symSize: 0x4 }
  - { offset: 0x1B31AA, size: 0x8, addend: 0x0, symName: __ZNSt3__120__shared_ptr_emplaceIN4grpc12_GLOBAL__N_129InsecureServerCredentialsImplENS_9allocatorIS3_EEE21__on_zero_shared_weakEv, symObjAddr: 0xA8, symBinAddr: 0x196BC, symSize: 0x4 }
  - { offset: 0x1B31D1, size: 0x8, addend: 0x0, symName: __ZNSt3__120__shared_ptr_emplaceIN4grpc12_GLOBAL__N_129InsecureServerCredentialsImplENS_9allocatorIS3_EEE21__on_zero_shared_weakEv, symObjAddr: 0xA8, symBinAddr: 0x196BC, symSize: 0x4 }
  - { offset: 0x1B31FC, size: 0x8, addend: 0x0, symName: __ZN4grpc12_GLOBAL__N_129InsecureServerCredentialsImplD1Ev, symObjAddr: 0xAC, symBinAddr: 0x196C0, symSize: 0x4 }
  - { offset: 0x1B321E, size: 0x8, addend: 0x0, symName: __ZN4grpc12_GLOBAL__N_129InsecureServerCredentialsImplD1Ev, symObjAddr: 0xAC, symBinAddr: 0x196C0, symSize: 0x4 }
  - { offset: 0x1B3238, size: 0x8, addend: 0x0, symName: __ZN4grpc12_GLOBAL__N_129InsecureServerCredentialsImplD0Ev, symObjAddr: 0xB0, symBinAddr: 0x196C4, symSize: 0x14 }
  - { offset: 0x1B7525, size: 0x8, addend: 0x0, symName: __ZN4grpc13ResourceQuotaC2Ev, symObjAddr: 0x0, symBinAddr: 0x196D8, symSize: 0x6C }
  - { offset: 0x1B75F9, size: 0x8, addend: 0x0, symName: __ZN4grpc13ResourceQuotaC1Ev, symObjAddr: 0xAC, symBinAddr: 0x19744, symSize: 0x4 }
  - { offset: 0x1B7627, size: 0x8, addend: 0x0, symName: __ZN4grpc13ResourceQuotaC1Ev, symObjAddr: 0xAC, symBinAddr: 0x19744, symSize: 0x4 }
  - { offset: 0x1B7698, size: 0x8, addend: 0x0, symName: __ZN4grpc13ResourceQuotaC2ERKNSt3__112basic_stringIcNS1_11char_traitsIcEENS1_9allocatorIcEEEE, symObjAddr: 0xB0, symBinAddr: 0x19748, symSize: 0x7C }
  - { offset: 0x1B7797, size: 0x8, addend: 0x0, symName: __ZN4grpc13ResourceQuotaC1ERKNSt3__112basic_stringIcNS1_11char_traitsIcEENS1_9allocatorIcEEEE, symObjAddr: 0x12C, symBinAddr: 0x197C4, symSize: 0x4 }
  - { offset: 0x1B77D3, size: 0x8, addend: 0x0, symName: __ZN4grpc13ResourceQuotaC1ERKNSt3__112basic_stringIcNS1_11char_traitsIcEENS1_9allocatorIcEEEE, symObjAddr: 0x12C, symBinAddr: 0x197C4, symSize: 0x4 }
  - { offset: 0x1B77EF, size: 0x8, addend: 0x0, symName: __ZN4grpc13ResourceQuotaD2Ev, symObjAddr: 0x130, symBinAddr: 0x197C8, symSize: 0x2C }
  - { offset: 0x1B7846, size: 0x8, addend: 0x0, symName: __ZN4grpc13ResourceQuotaD1Ev, symObjAddr: 0x16C, symBinAddr: 0x197F4, symSize: 0x4 }
  - { offset: 0x1B7869, size: 0x8, addend: 0x0, symName: __ZN4grpc13ResourceQuotaD1Ev, symObjAddr: 0x16C, symBinAddr: 0x197F4, symSize: 0x4 }
  - { offset: 0x1B789E, size: 0x8, addend: 0x0, symName: __ZN4grpc13ResourceQuotaD0Ev, symObjAddr: 0x170, symBinAddr: 0x197F8, symSize: 0x14 }
  - { offset: 0x1B78FC, size: 0x8, addend: 0x0, symName: __ZN4grpc13ResourceQuota6ResizeEm, symObjAddr: 0x184, symBinAddr: 0x1980C, symSize: 0x28 }
  - { offset: 0x1B795F, size: 0x8, addend: 0x0, symName: __ZN4grpc13ResourceQuota13SetMaxThreadsEi, symObjAddr: 0x1AC, symBinAddr: 0x19834, symSize: 0x28 }
  - { offset: 0x1BDC80, size: 0x8, addend: 0x0, symName: __ZNSt3__119__allocate_at_leastB8ne180100INS_9allocatorIN4grpc10string_refEEEEENS_19__allocation_resultINS_16allocator_traitsIT_E7pointerEEERS7_m, symObjAddr: 0xDF8, symBinAddr: 0x19F70, symSize: 0x34 }
  - { offset: 0x1C0C28, size: 0x8, addend: 0x0, symName: __ZNK4grpc17SecureAuthContext15GetPeerIdentityEv, symObjAddr: 0x0, symBinAddr: 0x1985C, symSize: 0x150 }
  - { offset: 0x1C1324, size: 0x8, addend: 0x0, symName: __ZNSt3__119__allocate_at_leastB8ne180100INS_9allocatorIN4grpc10string_refEEEEENS_19__allocation_resultINS_16allocator_traitsIT_E7pointerEEERS7_m, symObjAddr: 0xDF8, symBinAddr: 0x19F70, symSize: 0x34 }
  - { offset: 0x1C1366, size: 0x8, addend: 0x0, symName: __ZNK4grpc17SecureAuthContext27GetPeerIdentityPropertyNameEv, symObjAddr: 0x150, symBinAddr: 0x199AC, symSize: 0x40 }
  - { offset: 0x1C16D3, size: 0x8, addend: 0x0, symName: __ZNK4grpc17SecureAuthContext18FindPropertyValuesERKNSt3__112basic_stringIcNS1_11char_traitsIcEENS1_9allocatorIcEEEE, symObjAddr: 0x190, symBinAddr: 0x199EC, symSize: 0x160 }
  - { offset: 0x1C1E63, size: 0x8, addend: 0x0, symName: __ZNK4grpc17SecureAuthContext5beginEv, symObjAddr: 0x2F0, symBinAddr: 0x19B4C, symSize: 0x60 }
  - { offset: 0x1C1F32, size: 0x8, addend: 0x0, symName: __ZNK4grpc17SecureAuthContext3endEv, symObjAddr: 0x350, symBinAddr: 0x19BAC, symSize: 0x8 }
  - { offset: 0x1C1F67, size: 0x8, addend: 0x0, symName: __ZN4grpc17SecureAuthContext11AddPropertyERKNSt3__112basic_stringIcNS1_11char_traitsIcEENS1_9allocatorIcEEEERKNS_10string_refE, symObjAddr: 0x358, symBinAddr: 0x19BB4, symSize: 0x28 }
  - { offset: 0x1C1FB2, size: 0x8, addend: 0x0, symName: __ZN4grpc17SecureAuthContext11AddPropertyERKNSt3__112basic_stringIcNS1_11char_traitsIcEENS1_9allocatorIcEEEERKNS_10string_refE, symObjAddr: 0x358, symBinAddr: 0x19BB4, symSize: 0x28 }
  - { offset: 0x1C2093, size: 0x8, addend: 0x0, symName: __ZN4grpc17SecureAuthContext27SetPeerIdentityPropertyNameERKNSt3__112basic_stringIcNS1_11char_traitsIcEENS1_9allocatorIcEEEE, symObjAddr: 0x380, symBinAddr: 0x19BDC, symSize: 0x34 }
  - { offset: 0x1C2189, size: 0x8, addend: 0x0, symName: __ZNK4grpc17SecureAuthContext19IsPeerAuthenticatedEv, symObjAddr: 0x3B4, symBinAddr: 0x19C10, symSize: 0x24 }
  - { offset: 0x1C2235, size: 0x8, addend: 0x0, symName: __ZN4grpc17SecureAuthContextD1Ev, symObjAddr: 0x3D8, symBinAddr: 0x19C34, symSize: 0x28 }
  - { offset: 0x1C229D, size: 0x8, addend: 0x0, symName: __ZN9grpc_core13RefCountedPtrI17grpc_auth_contextED2Ev, symObjAddr: 0x428, symBinAddr: 0x19C84, symSize: 0x48 }
  - { offset: 0x1C2365, size: 0x8, addend: 0x0, symName: __ZN4grpc17SecureAuthContextD0Ev, symObjAddr: 0x400, symBinAddr: 0x19C5C, symSize: 0x28 }
  - { offset: 0x1C258C, size: 0x8, addend: 0x0, symName: __ZN17grpc_auth_contextD2Ev, symObjAddr: 0xA90, symBinAddr: 0x19CCC, symSize: 0xC8 }
  - { offset: 0x1C3209, size: 0x8, addend: 0x0, symName: __ZN9grpc_core13RefCountedPtrI17grpc_auth_contextE5resetERKNS_13DebugLocationEPKcPS1_, symObjAddr: 0xB58, symBinAddr: 0x19D94, symSize: 0x44 }
  - { offset: 0x1C3381, size: 0x8, addend: 0x0, symName: __ZN9grpc_core8RefCount5UnrefERKNS_13DebugLocationEPKc, symObjAddr: 0xB9C, symBinAddr: 0x19DD8, symSize: 0x198 }
  - { offset: 0x1C3719, size: 0x8, addend: 0x0, symName: __ZN9grpc_core8RefCount5UnrefERKNS_13DebugLocationEPKc.cold.1, symObjAddr: 0xE7C, symBinAddr: 0x30054, symSize: 0x50 }
  - { offset: 0x1C852A, size: 0x8, addend: 0x0, symName: __ZNSt3__115allocate_sharedB8ne180100IN4grpc17SecureAuthContextENS_9allocatorIS2_EEJP17grpc_auth_contextEvEENS_10shared_ptrIT_EERKT0_DpOT1_, symObjAddr: 0x954, symBinAddr: 0x1A048, symSize: 0x58 }
  - { offset: 0x1CAD2B, size: 0x8, addend: 0x0, symName: __ZN4grpc17CreateAuthContextEP9grpc_call, symObjAddr: 0x0, symBinAddr: 0x19FD8, symSize: 0x70 }
  - { offset: 0x1CC5DF, size: 0x8, addend: 0x0, symName: __ZNSt3__120__shared_ptr_emplaceIN4grpc17SecureAuthContextENS_9allocatorIS2_EEEC2B8ne180100IJP17grpc_auth_contextES4_Li0EEES4_DpOT_, symObjAddr: 0x9AC, symBinAddr: 0x1A0A0, symSize: 0x70 }
  - { offset: 0x1CC9D5, size: 0x8, addend: 0x0, symName: __ZNSt3__120__shared_ptr_emplaceIN4grpc17SecureAuthContextENS_9allocatorIS2_EEED1Ev, symObjAddr: 0xA1C, symBinAddr: 0x1A110, symSize: 0x14 }
  - { offset: 0x1CC9F7, size: 0x8, addend: 0x0, symName: __ZNSt3__120__shared_ptr_emplaceIN4grpc17SecureAuthContextENS_9allocatorIS2_EEED1Ev, symObjAddr: 0xA1C, symBinAddr: 0x1A110, symSize: 0x14 }
  - { offset: 0x1CCA2D, size: 0x8, addend: 0x0, symName: __ZNSt3__120__shared_ptr_emplaceIN4grpc17SecureAuthContextENS_9allocatorIS2_EEED0Ev, symObjAddr: 0xA30, symBinAddr: 0x1A124, symSize: 0x24 }
  - { offset: 0x1CCB4F, size: 0x8, addend: 0x0, symName: __ZNSt3__120__shared_ptr_emplaceIN4grpc17SecureAuthContextENS_9allocatorIS2_EEE16__on_zero_sharedEv, symObjAddr: 0xA54, symBinAddr: 0x1A148, symSize: 0x8 }
  - { offset: 0x1CCB78, size: 0x8, addend: 0x0, symName: __ZNSt3__120__shared_ptr_emplaceIN4grpc17SecureAuthContextENS_9allocatorIS2_EEE16__on_zero_sharedEv, symObjAddr: 0xA54, symBinAddr: 0x1A148, symSize: 0x8 }
  - { offset: 0x1CCB96, size: 0x8, addend: 0x0, symName: __ZNSt3__120__shared_ptr_emplaceIN4grpc17SecureAuthContextENS_9allocatorIS2_EEE16__on_zero_sharedEv, symObjAddr: 0xA54, symBinAddr: 0x1A148, symSize: 0x8 }
  - { offset: 0x1CCBB4, size: 0x8, addend: 0x0, symName: __ZNSt3__120__shared_ptr_emplaceIN4grpc17SecureAuthContextENS_9allocatorIS2_EEE16__on_zero_sharedEv, symObjAddr: 0xA54, symBinAddr: 0x1A148, symSize: 0x8 }
  - { offset: 0x1CCBD2, size: 0x8, addend: 0x0, symName: __ZNSt3__120__shared_ptr_emplaceIN4grpc17SecureAuthContextENS_9allocatorIS2_EEE16__on_zero_sharedEv, symObjAddr: 0xA54, symBinAddr: 0x1A148, symSize: 0x8 }
  - { offset: 0x1CCBEF, size: 0x8, addend: 0x0, symName: __ZNSt3__120__shared_ptr_emplaceIN4grpc17SecureAuthContextENS_9allocatorIS2_EEE16__on_zero_sharedEv, symObjAddr: 0xA54, symBinAddr: 0x1A148, symSize: 0x8 }
  - { offset: 0x1CCC39, size: 0x8, addend: 0x0, symName: __ZNSt3__120__shared_ptr_emplaceIN4grpc17SecureAuthContextENS_9allocatorIS2_EEE21__on_zero_shared_weakEv, symObjAddr: 0xA5C, symBinAddr: 0x1A150, symSize: 0x4 }
  - { offset: 0x1CCC6D, size: 0x8, addend: 0x0, symName: __ZNSt3__120__shared_ptr_emplaceIN4grpc17SecureAuthContextENS_9allocatorIS2_EEE21__on_zero_shared_weakEv, symObjAddr: 0xA5C, symBinAddr: 0x1A150, symSize: 0x4 }
  - { offset: 0x1CCC90, size: 0x8, addend: 0x0, symName: __ZNSt3__120__shared_ptr_emplaceIN4grpc17SecureAuthContextENS_9allocatorIS2_EEE21__on_zero_shared_weakEv, symObjAddr: 0xA5C, symBinAddr: 0x1A150, symSize: 0x4 }
  - { offset: 0x1CCCB3, size: 0x8, addend: 0x0, symName: __ZNSt3__120__shared_ptr_emplaceIN4grpc17SecureAuthContextENS_9allocatorIS2_EEE21__on_zero_shared_weakEv, symObjAddr: 0xA5C, symBinAddr: 0x1A150, symSize: 0x4 }
  - { offset: 0x1CCCE0, size: 0x8, addend: 0x0, symName: __ZNSt3__120__shared_ptr_emplaceIN4grpc17SecureAuthContextENS_9allocatorIS2_EEE21__on_zero_shared_weakEv, symObjAddr: 0xA5C, symBinAddr: 0x1A150, symSize: 0x4 }
  - { offset: 0x1CCD07, size: 0x8, addend: 0x0, symName: __ZNSt3__120__shared_ptr_emplaceIN4grpc17SecureAuthContextENS_9allocatorIS2_EEE21__on_zero_shared_weakEv, symObjAddr: 0xA5C, symBinAddr: 0x1A150, symSize: 0x4 }
  - { offset: 0x1DCFB6, size: 0x8, addend: 0x0, symName: __ZNSt3__115allocate_sharedB8ne180100IN4grpc28CompositeCallCredentialsImplENS_9allocatorIS2_EEJRKNS_10shared_ptrINS1_15CallCredentialsEEES9_EvEENS5_IT_EERKT0_DpOT1_, symObjAddr: 0x3EEC, symBinAddr: 0x1C8CC, symSize: 0x60 }
  - { offset: 0x1DE1F0, size: 0x8, addend: 0x0, symName: __ZNSt3__119__allocate_at_leastB8ne180100INS_9allocatorI13grpc_metadataEEEENS_19__allocation_resultINS_16allocator_traitsIT_E7pointerEEERS6_m, symObjAddr: 0x2C80, symBinAddr: 0x1C59C, symSize: 0x44 }
  - { offset: 0x1E2657, size: 0x8, addend: 0x0, symName: __ZN4absl12lts_2024011622internal_any_invocable12LocalInvokerILb0EvRZN4grpc12_GLOBAL__N_132MetadataCredentialsPluginWrapper7DestroyEPvEUlvE_JEEET0_PNS1_15TypeErasedStateEDpNS1_18ForwardedParameterIT2_E4typeE, symObjAddr: 0x3154, symBinAddr: 0x1C5E0, symSize: 0xA8 }
  - { offset: 0x1E43FE, size: 0x8, addend: 0x0, symName: __ZN4absl12lts_2024011616strings_internal13JoinAlgorithmINSt3__111__wrap_iterIPKNS3_12basic_stringIcNS3_11char_traitsIcEENS3_9allocatorIcEEEEEEvEESA_T_SE_NS0_11string_viewENS1_11NoFormatterE, symObjAddr: 0x3CA8, symBinAddr: 0x1C688, symSize: 0x168 }
  - { offset: 0x1E5842, size: 0x8, addend: 0x0, symName: __ZN4grpc12experimental29StsCredentialsOptionsFromJsonERKNSt3__112basic_stringIcNS1_11char_traitsIcEENS1_9allocatorIcEEEEPNS0_21StsCredentialsOptionsE, symObjAddr: 0x360, symBinAddr: 0x1A4E4, symSize: 0x55C }
  - { offset: 0x1E705E, size: 0x8, addend: 0x0, symName: __ZN4grpc12experimental12_GLOBAL__N_126ClearStsCredentialsOptionsEPNS0_21StsCredentialsOptionsE, symObjAddr: 0x8BC, symBinAddr: 0x1AA40, symSize: 0x124 }
  - { offset: 0x1E7089, size: 0x8, addend: 0x0, symName: __ZN4grpc12experimental12_GLOBAL__N_126ClearStsCredentialsOptionsEPNS0_21StsCredentialsOptionsE, symObjAddr: 0x8BC, symBinAddr: 0x1AA40, symSize: 0x124 }
  - { offset: 0x1E70A4, size: 0x8, addend: 0x0, symName: __ZN4grpc12experimental12_GLOBAL__N_126ClearStsCredentialsOptionsEPNS0_21StsCredentialsOptionsE, symObjAddr: 0x8BC, symBinAddr: 0x1AA40, symSize: 0x124 }
  - { offset: 0x1E70C0, size: 0x8, addend: 0x0, symName: __ZN4grpc12experimental12_GLOBAL__N_126ClearStsCredentialsOptionsEPNS0_21StsCredentialsOptionsE, symObjAddr: 0x8BC, symBinAddr: 0x1AA40, symSize: 0x124 }
  - { offset: 0x1E79B8, size: 0x8, addend: 0x0, symName: __ZN4grpc12experimental28StsCredentialsOptionsFromEnvEPNS0_21StsCredentialsOptionsE, symObjAddr: 0x9E0, symBinAddr: 0x1AB64, symSize: 0x2C8 }
  - { offset: 0x1E8786, size: 0x8, addend: 0x0, symName: __ZN4grpc12experimental30StsCredentialsCppToCoreOptionsERKNS0_21StsCredentialsOptionsE, symObjAddr: 0xCA8, symBinAddr: 0x1AE2C, symSize: 0xC4 }
  - { offset: 0x1E87C6, size: 0x8, addend: 0x0, symName: __ZN4grpc12experimental30StsCredentialsCppToCoreOptionsERKNS0_21StsCredentialsOptionsE, symObjAddr: 0xCA8, symBinAddr: 0x1AE2C, symSize: 0xC4 }
  - { offset: 0x1E87E1, size: 0x8, addend: 0x0, symName: __ZN4grpc12experimental30StsCredentialsCppToCoreOptionsERKNS0_21StsCredentialsOptionsE, symObjAddr: 0xCA8, symBinAddr: 0x1AE2C, symSize: 0xC4 }
  - { offset: 0x1E87FD, size: 0x8, addend: 0x0, symName: __ZN4grpc12experimental30StsCredentialsCppToCoreOptionsERKNS0_21StsCredentialsOptionsE, symObjAddr: 0xCA8, symBinAddr: 0x1AE2C, symSize: 0xC4 }
  - { offset: 0x1E8819, size: 0x8, addend: 0x0, symName: __ZN4grpc12experimental30StsCredentialsCppToCoreOptionsERKNS0_21StsCredentialsOptionsE, symObjAddr: 0xCA8, symBinAddr: 0x1AE2C, symSize: 0xC4 }
  - { offset: 0x1E8BB7, size: 0x8, addend: 0x0, symName: __ZN4grpc12experimental14StsCredentialsERKNS0_21StsCredentialsOptionsE, symObjAddr: 0xD6C, symBinAddr: 0x1AEF0, symSize: 0x48 }
  - { offset: 0x1E8C8C, size: 0x8, addend: 0x0, symName: __ZN4grpc12experimental15AltsCredentialsERKNS0_22AltsCredentialsOptionsE, symObjAddr: 0xDB4, symBinAddr: 0x1AF38, symSize: 0xD8 }
  - { offset: 0x1E8F7F, size: 0x8, addend: 0x0, symName: __ZN4grpc12experimental16LocalCredentialsE23grpc_local_connect_type, symObjAddr: 0xE8C, symBinAddr: 0x1B010, symSize: 0x78 }
  - { offset: 0x1E90F9, size: 0x8, addend: 0x0, symName: __ZN4grpc12experimental14TlsCredentialsERKNS0_28TlsChannelCredentialsOptionsE, symObjAddr: 0xF04, symBinAddr: 0x1B088, symSize: 0x3C }
  - { offset: 0x1E9194, size: 0x8, addend: 0x0, symName: __ZN4grpc12experimental29MetadataCredentialsFromPluginENSt3__110unique_ptrINS_25MetadataCredentialsPluginENS1_14default_deleteIS3_EEEE19grpc_security_level, symObjAddr: 0x1310, symBinAddr: 0x1B494, symSize: 0x1AC }
  - { offset: 0x1E9EAE, size: 0x8, addend: 0x0, symName: __ZN4grpc12_GLOBAL__N_122WrapChannelCredentialsEP24grpc_channel_credentials, symObjAddr: 0x74, symBinAddr: 0x1A1FC, symSize: 0x80 }
  - { offset: 0x1EA1DD, size: 0x8, addend: 0x0, symName: __ZN4grpc12_GLOBAL__N_119WrapCallCredentialsEP21grpc_call_credentials, symObjAddr: 0x1EC, symBinAddr: 0x1A370, symSize: 0x80 }
  - { offset: 0x1EA50C, size: 0x8, addend: 0x0, symName: __ZN4grpc12_GLOBAL__N_113UnrefMetadataERKNSt3__16vectorI13grpc_metadataNS1_9allocatorIS3_EEEE, symObjAddr: 0x2664, symBinAddr: 0x1C51C, symSize: 0x80 }
  - { offset: 0x1EA77C, size: 0x8, addend: 0x0, symName: __ZN4grpc24GoogleDefaultCredentialsEv, symObjAddr: 0x0, symBinAddr: 0x1A188, symSize: 0x74 }
  - { offset: 0x1EA8E6, size: 0x8, addend: 0x0, symName: __ZN4grpc26ExternalAccountCredentialsERKNSt3__112basic_stringIcNS0_11char_traitsIcEENS0_9allocatorIcEEEERKNS0_6vectorIS6_NS4_IS6_EEEE, symObjAddr: 0xF8, symBinAddr: 0x1A27C, symSize: 0xF4 }
  - { offset: 0x1EAE39, size: 0x8, addend: 0x0, symName: __ZN4grpc14SslCredentialsERKNS_21SslCredentialsOptionsE, symObjAddr: 0x26C, symBinAddr: 0x1A3F0, symSize: 0xF4 }
  - { offset: 0x1EB121, size: 0x8, addend: 0x0, symName: __ZN4grpc30GoogleComputeEngineCredentialsEv, symObjAddr: 0xF40, symBinAddr: 0x1B0C4, symSize: 0x74 }
  - { offset: 0x1EB28E, size: 0x8, addend: 0x0, symName: __ZN4grpc34ServiceAccountJWTAccessCredentialsERKNSt3__112basic_stringIcNS0_11char_traitsIcEENS0_9allocatorIcEEEEl, symObjAddr: 0xFB4, symBinAddr: 0x1B138, symSize: 0x110 }
  - { offset: 0x1EB518, size: 0x8, addend: 0x0, symName: __ZN4grpc29GoogleRefreshTokenCredentialsERKNSt3__112basic_stringIcNS0_11char_traitsIcEENS0_9allocatorIcEEEE, symObjAddr: 0x10C4, symBinAddr: 0x1B248, symSize: 0x88 }
  - { offset: 0x1EB709, size: 0x8, addend: 0x0, symName: __ZN4grpc22AccessTokenCredentialsERKNSt3__112basic_stringIcNS0_11char_traitsIcEENS0_9allocatorIcEEEE, symObjAddr: 0x114C, symBinAddr: 0x1B2D0, symSize: 0x88 }
  - { offset: 0x1EB8FA, size: 0x8, addend: 0x0, symName: __ZN4grpc20GoogleIAMCredentialsERKNSt3__112basic_stringIcNS0_11char_traitsIcEENS0_9allocatorIcEEEES8_, symObjAddr: 0x11D4, symBinAddr: 0x1B358, symSize: 0xA4 }
  - { offset: 0x1EBB6F, size: 0x8, addend: 0x0, symName: __ZN4grpc27CompositeChannelCredentialsERKNSt3__110shared_ptrINS_18ChannelCredentialsEEERKNS1_INS_15CallCredentialsEEE, symObjAddr: 0x1278, symBinAddr: 0x1B3FC, symSize: 0x58 }
  - { offset: 0x1EBC63, size: 0x8, addend: 0x0, symName: __ZN4grpc24CompositeCallCredentialsERKNSt3__110shared_ptrINS_15CallCredentialsEEES5_, symObjAddr: 0x12D0, symBinAddr: 0x1B454, symSize: 0x40 }
  - { offset: 0x1EBD4A, size: 0x8, addend: 0x0, symName: __ZN4grpc29MetadataCredentialsFromPluginENSt3__110unique_ptrINS_25MetadataCredentialsPluginENS0_14default_deleteIS2_EEEE, symObjAddr: 0x17E8, symBinAddr: 0x1B96C, symSize: 0x78 }
  - { offset: 0x1ED67B, size: 0x8, addend: 0x0, symName: __ZN4grpc12_GLOBAL__N_132MetadataCredentialsPluginWrapper11GetMetadataEPv26grpc_auth_metadata_contextPFvS2_PK13grpc_metadatam16grpc_status_codePKcES2_PS4_PmPS7_PS9_, symObjAddr: 0x14BC, symBinAddr: 0x1B640, symSize: 0x1BC }
  - { offset: 0x1EDF81, size: 0x8, addend: 0x0, symName: __ZN4grpc12_GLOBAL__N_132MetadataCredentialsPluginWrapper7DestroyEPv, symObjAddr: 0x1704, symBinAddr: 0x1B888, symSize: 0xE4 }
  - { offset: 0x1EF6B9, size: 0x8, addend: 0x0, symName: __ZN4absl12lts_2024011616variant_internal18VisitIndicesSwitchILm6EE3RunINS1_17PerformVisitationIZNK9grpc_core12experimental4Json4typeEvE12ValueFunctorJRKNS0_7variantIJNS0_9monostateEbNS8_11NumberValueENSt3__112basic_stringIcNSD_11char_traitsIcEENSD_9allocatorIcEEEENSD_3mapISJ_S8_NSD_4lessISJ_EENSH_INSD_4pairIKSJ_S8_EEEEEENSD_6vectorIS8_NSH_IS8_EEEEEEEEEEEENS1_22VisitIndicesResultImplIT_JmEE4typeEOS10_m, symObjAddr: 0x1B8C, symBinAddr: 0x1BA90, symSize: 0x64 }
  - { offset: 0x1EF782, size: 0x8, addend: 0x0, symName: __ZN4absl12lts_2024011617internal_statusor12StatusOrDataIN9grpc_core12experimental4JsonEED2Ev, symObjAddr: 0x1BF0, symBinAddr: 0x1BAF4, symSize: 0x44 }
  - { offset: 0x1EFA1E, size: 0x8, addend: 0x0, symName: __ZN4absl12lts_2024011616strings_internal13JoinAlgorithmINSt3__111__wrap_iterIPKNS3_12basic_stringIcNS3_11char_traitsIcEENS3_9allocatorIcEEEEEEvEESA_T_SE_NS0_11string_viewENS1_11NoFormatterE, symObjAddr: 0x3CA8, symBinAddr: 0x1C688, symSize: 0x168 }
  - { offset: 0x1EFC60, size: 0x8, addend: 0x0, symName: __ZN4absl12lts_2024011617internal_statusor12StatusOrDataIN9grpc_core12experimental4JsonEED2Ev, symObjAddr: 0x1BF0, symBinAddr: 0x1BAF4, symSize: 0x44 }
  - { offset: 0x1F01A8, size: 0x8, addend: 0x0, symName: __ZN4absl12lts_2024011617internal_statusor12StatusOrDataIN9grpc_core5SliceEED2Ev, symObjAddr: 0x1DB8, symBinAddr: 0x1BCBC, symSize: 0x44 }
  - { offset: 0x1F09E3, size: 0x8, addend: 0x0, symName: __ZN4grpc12experimental29MetadataCredentialsFromPluginENSt3__110unique_ptrINS_25MetadataCredentialsPluginENS1_14default_deleteIS3_EEEE19grpc_security_level.cold.1, symObjAddr: 0x4028, symBinAddr: 0x300A4, symSize: 0x3C }
  - { offset: 0x1F0F50, size: 0x8, addend: 0x0, symName: __ZN4grpc12_GLOBAL__N_132MetadataCredentialsPluginWrapper12InvokePluginE26grpc_auth_metadata_contextPFvPvPK13grpc_metadatam16grpc_status_codePKcES3_PS4_PmPS7_PS9_, symObjAddr: 0x1F68, symBinAddr: 0x1BE6C, symSize: 0x584 }
  - { offset: 0x1F27C4, size: 0x8, addend: 0x0, symName: __ZN4grpc12_GLOBAL__N_132MetadataCredentialsPluginWrapper11GetMetadataEPv26grpc_auth_metadata_contextPFvS2_PK13grpc_metadatam16grpc_status_codePKcES2_PS4_PmPS7_PS9_.cold.1, symObjAddr: 0x4064, symBinAddr: 0x300E0, symSize: 0x28 }
  - { offset: 0x1F27DC, size: 0x8, addend: 0x0, symName: __ZN4grpc12_GLOBAL__N_132MetadataCredentialsPluginWrapper11DebugStringEPv, symObjAddr: 0x1678, symBinAddr: 0x1B7FC, symSize: 0x8C }
  - { offset: 0x1F2B41, size: 0x8, addend: 0x0, symName: __ZN4grpc12_GLOBAL__N_132MetadataCredentialsPluginWrapper11DebugStringEPv.cold.1, symObjAddr: 0x408C, symBinAddr: 0x30108, symSize: 0x28 }
  - { offset: 0x1F2E5C, size: 0x8, addend: 0x0, symName: __ZNSt3__120__shared_ptr_emplaceIN4grpc12_GLOBAL__N_125WrappedChannelCredentialsENS_9allocatorIS3_EEED1Ev, symObjAddr: 0x189C, symBinAddr: 0x1B9E4, symSize: 0x10 }
  - { offset: 0x1F2E7E, size: 0x8, addend: 0x0, symName: __ZNSt3__120__shared_ptr_emplaceIN4grpc12_GLOBAL__N_125WrappedChannelCredentialsENS_9allocatorIS3_EEED1Ev, symObjAddr: 0x189C, symBinAddr: 0x1B9E4, symSize: 0x10 }
  - { offset: 0x1F2EB4, size: 0x8, addend: 0x0, symName: __ZNSt3__120__shared_ptr_emplaceIN4grpc12_GLOBAL__N_125WrappedChannelCredentialsENS_9allocatorIS3_EEED0Ev, symObjAddr: 0x18AC, symBinAddr: 0x1B9F4, symSize: 0x20 }
  - { offset: 0x1F2FF0, size: 0x8, addend: 0x0, symName: __ZNSt3__120__shared_ptr_emplaceIN4grpc12_GLOBAL__N_125WrappedChannelCredentialsENS_9allocatorIS3_EEE16__on_zero_sharedEv, symObjAddr: 0x18CC, symBinAddr: 0x1BA14, symSize: 0x8 }
  - { offset: 0x1F3019, size: 0x8, addend: 0x0, symName: __ZNSt3__120__shared_ptr_emplaceIN4grpc12_GLOBAL__N_125WrappedChannelCredentialsENS_9allocatorIS3_EEE16__on_zero_sharedEv, symObjAddr: 0x18CC, symBinAddr: 0x1BA14, symSize: 0x8 }
  - { offset: 0x1F3037, size: 0x8, addend: 0x0, symName: __ZNSt3__120__shared_ptr_emplaceIN4grpc12_GLOBAL__N_125WrappedChannelCredentialsENS_9allocatorIS3_EEE16__on_zero_sharedEv, symObjAddr: 0x18CC, symBinAddr: 0x1BA14, symSize: 0x8 }
  - { offset: 0x1F30C5, size: 0x8, addend: 0x0, symName: __ZNSt3__120__shared_ptr_emplaceIN4grpc12_GLOBAL__N_125WrappedChannelCredentialsENS_9allocatorIS3_EEE21__on_zero_shared_weakEv, symObjAddr: 0x18D4, symBinAddr: 0x1BA1C, symSize: 0x4 }
  - { offset: 0x1F30F9, size: 0x8, addend: 0x0, symName: __ZNSt3__120__shared_ptr_emplaceIN4grpc12_GLOBAL__N_125WrappedChannelCredentialsENS_9allocatorIS3_EEE21__on_zero_shared_weakEv, symObjAddr: 0x18D4, symBinAddr: 0x1BA1C, symSize: 0x4 }
  - { offset: 0x1F311C, size: 0x8, addend: 0x0, symName: __ZNSt3__120__shared_ptr_emplaceIN4grpc12_GLOBAL__N_125WrappedChannelCredentialsENS_9allocatorIS3_EEE21__on_zero_shared_weakEv, symObjAddr: 0x18D4, symBinAddr: 0x1BA1C, symSize: 0x4 }
  - { offset: 0x1F313F, size: 0x8, addend: 0x0, symName: __ZNSt3__120__shared_ptr_emplaceIN4grpc12_GLOBAL__N_125WrappedChannelCredentialsENS_9allocatorIS3_EEE21__on_zero_shared_weakEv, symObjAddr: 0x18D4, symBinAddr: 0x1BA1C, symSize: 0x4 }
  - { offset: 0x1F316C, size: 0x8, addend: 0x0, symName: __ZNSt3__120__shared_ptr_emplaceIN4grpc12_GLOBAL__N_125WrappedChannelCredentialsENS_9allocatorIS3_EEE21__on_zero_shared_weakEv, symObjAddr: 0x18D4, symBinAddr: 0x1BA1C, symSize: 0x4 }
  - { offset: 0x1F3193, size: 0x8, addend: 0x0, symName: __ZNSt3__120__shared_ptr_emplaceIN4grpc12_GLOBAL__N_125WrappedChannelCredentialsENS_9allocatorIS3_EEE21__on_zero_shared_weakEv, symObjAddr: 0x18D4, symBinAddr: 0x1BA1C, symSize: 0x4 }
  - { offset: 0x1F31BE, size: 0x8, addend: 0x0, symName: __ZN4grpc12_GLOBAL__N_125WrappedChannelCredentialsD1Ev, symObjAddr: 0x18D8, symBinAddr: 0x1BA20, symSize: 0x4 }
  - { offset: 0x1F31E0, size: 0x8, addend: 0x0, symName: __ZN4grpc12_GLOBAL__N_125WrappedChannelCredentialsD1Ev, symObjAddr: 0x18D8, symBinAddr: 0x1BA20, symSize: 0x4 }
  - { offset: 0x1F31FA, size: 0x8, addend: 0x0, symName: __ZN4grpc12_GLOBAL__N_125WrappedChannelCredentialsD0Ev, symObjAddr: 0x18DC, symBinAddr: 0x1BA24, symSize: 0x14 }
  - { offset: 0x1F3279, size: 0x8, addend: 0x0, symName: __ZNSt3__120__shared_ptr_emplaceIN4grpc12_GLOBAL__N_122WrappedCallCredentialsENS_9allocatorIS3_EEED1Ev, symObjAddr: 0x1A20, symBinAddr: 0x1BA38, symSize: 0x10 }
  - { offset: 0x1F329B, size: 0x8, addend: 0x0, symName: __ZNSt3__120__shared_ptr_emplaceIN4grpc12_GLOBAL__N_122WrappedCallCredentialsENS_9allocatorIS3_EEED1Ev, symObjAddr: 0x1A20, symBinAddr: 0x1BA38, symSize: 0x10 }
  - { offset: 0x1F32D1, size: 0x8, addend: 0x0, symName: __ZNSt3__120__shared_ptr_emplaceIN4grpc12_GLOBAL__N_122WrappedCallCredentialsENS_9allocatorIS3_EEED0Ev, symObjAddr: 0x1A30, symBinAddr: 0x1BA48, symSize: 0x20 }
  - { offset: 0x1F33BF, size: 0x8, addend: 0x0, symName: __ZNSt3__120__shared_ptr_emplaceIN4grpc12_GLOBAL__N_122WrappedCallCredentialsENS_9allocatorIS3_EEE16__on_zero_sharedEv, symObjAddr: 0x1A50, symBinAddr: 0x1BA68, symSize: 0xC }
  - { offset: 0x1F33E8, size: 0x8, addend: 0x0, symName: __ZNSt3__120__shared_ptr_emplaceIN4grpc12_GLOBAL__N_122WrappedCallCredentialsENS_9allocatorIS3_EEE16__on_zero_sharedEv, symObjAddr: 0x1A50, symBinAddr: 0x1BA68, symSize: 0xC }
  - { offset: 0x1F3406, size: 0x8, addend: 0x0, symName: __ZNSt3__120__shared_ptr_emplaceIN4grpc12_GLOBAL__N_122WrappedCallCredentialsENS_9allocatorIS3_EEE16__on_zero_sharedEv, symObjAddr: 0x1A50, symBinAddr: 0x1BA68, symSize: 0xC }
  - { offset: 0x1F3424, size: 0x8, addend: 0x0, symName: __ZNSt3__120__shared_ptr_emplaceIN4grpc12_GLOBAL__N_122WrappedCallCredentialsENS_9allocatorIS3_EEE16__on_zero_sharedEv, symObjAddr: 0x1A50, symBinAddr: 0x1BA68, symSize: 0xC }
  - { offset: 0x1F344F, size: 0x8, addend: 0x0, symName: __ZNSt3__120__shared_ptr_emplaceIN4grpc12_GLOBAL__N_122WrappedCallCredentialsENS_9allocatorIS3_EEE21__on_zero_shared_weakEv, symObjAddr: 0x1A5C, symBinAddr: 0x1BA74, symSize: 0x4 }
  - { offset: 0x1F3483, size: 0x8, addend: 0x0, symName: __ZNSt3__120__shared_ptr_emplaceIN4grpc12_GLOBAL__N_122WrappedCallCredentialsENS_9allocatorIS3_EEE21__on_zero_shared_weakEv, symObjAddr: 0x1A5C, symBinAddr: 0x1BA74, symSize: 0x4 }
  - { offset: 0x1F34A6, size: 0x8, addend: 0x0, symName: __ZNSt3__120__shared_ptr_emplaceIN4grpc12_GLOBAL__N_122WrappedCallCredentialsENS_9allocatorIS3_EEE21__on_zero_shared_weakEv, symObjAddr: 0x1A5C, symBinAddr: 0x1BA74, symSize: 0x4 }
  - { offset: 0x1F34C9, size: 0x8, addend: 0x0, symName: __ZNSt3__120__shared_ptr_emplaceIN4grpc12_GLOBAL__N_122WrappedCallCredentialsENS_9allocatorIS3_EEE21__on_zero_shared_weakEv, symObjAddr: 0x1A5C, symBinAddr: 0x1BA74, symSize: 0x4 }
  - { offset: 0x1F34F6, size: 0x8, addend: 0x0, symName: __ZNSt3__120__shared_ptr_emplaceIN4grpc12_GLOBAL__N_122WrappedCallCredentialsENS_9allocatorIS3_EEE21__on_zero_shared_weakEv, symObjAddr: 0x1A5C, symBinAddr: 0x1BA74, symSize: 0x4 }
  - { offset: 0x1F351D, size: 0x8, addend: 0x0, symName: __ZNSt3__120__shared_ptr_emplaceIN4grpc12_GLOBAL__N_122WrappedCallCredentialsENS_9allocatorIS3_EEE21__on_zero_shared_weakEv, symObjAddr: 0x1A5C, symBinAddr: 0x1BA74, symSize: 0x4 }
  - { offset: 0x1F3564, size: 0x8, addend: 0x0, symName: __ZN4grpc12_GLOBAL__N_122WrappedCallCredentialsD1Ev, symObjAddr: 0x1A60, symBinAddr: 0x1BA78, symSize: 0x4 }
  - { offset: 0x1F3586, size: 0x8, addend: 0x0, symName: __ZN4grpc12_GLOBAL__N_122WrappedCallCredentialsD1Ev, symObjAddr: 0x1A60, symBinAddr: 0x1BA78, symSize: 0x4 }
  - { offset: 0x1F35BC, size: 0x8, addend: 0x0, symName: __ZN4grpc12_GLOBAL__N_122WrappedCallCredentialsD0Ev, symObjAddr: 0x1A64, symBinAddr: 0x1BA7C, symSize: 0x14 }
  - { offset: 0x1F38D4, size: 0x8, addend: 0x0, symName: __ZN4absl12lts_2024011616variant_internal18VisitIndicesSwitchILm6EE3RunINS1_17PerformVisitationIZNK9grpc_core12experimental4Json4typeEvE12ValueFunctorJRKNS0_7variantIJNS0_9monostateEbNS8_11NumberValueENSt3__112basic_stringIcNSD_11char_traitsIcEENSD_9allocatorIcEEEENSD_3mapISJ_S8_NSD_4lessISJ_EENSH_INSD_4pairIKSJ_S8_EEEEEENSD_6vectorIS8_NSH_IS8_EEEEEEEEEEEENS1_22VisitIndicesResultImplIT_JmEE4typeEOS10_m.cold.1, symObjAddr: 0x40B4, symBinAddr: 0x30130, symSize: 0x28 }
  - { offset: 0x1F3A4F, size: 0x8, addend: 0x0, symName: __ZN4absl12lts_2024011616variant_internal36VariantStateBaseDestructorNontrivialIJNS0_9monostateEbN9grpc_core12experimental4Json11NumberValueENSt3__112basic_stringIcNS8_11char_traitsIcEENS8_9allocatorIcEEEENS8_3mapISE_S6_NS8_4lessISE_EENSC_INS8_4pairIKSE_S6_EEEEEENS8_6vectorIS6_NSC_IS6_EEEEEED2Ev, symObjAddr: 0x1C34, symBinAddr: 0x1BB38, symSize: 0x3C }
  - { offset: 0x1F3AD9, size: 0x8, addend: 0x0, symName: __ZN4absl12lts_2024011616variant_internal18VisitIndicesSwitchILm6EE3RunINS1_36VariantStateBaseDestructorNontrivialIJNS0_9monostateEbN9grpc_core12experimental4Json11NumberValueENSt3__112basic_stringIcNSB_11char_traitsIcEENSB_9allocatorIcEEEENSB_3mapISH_S9_NSB_4lessISH_EENSF_INSB_4pairIKSH_S9_EEEEEENSB_6vectorIS9_NSF_IS9_EEEEEE9DestroyerEEENS1_22VisitIndicesResultImplIT_JmEE4typeEOSW_m, symObjAddr: 0x1C70, symBinAddr: 0x1BB74, symSize: 0x80 }
  - { offset: 0x1F3D6D, size: 0x8, addend: 0x0, symName: __ZNSt3__16__treeINS_12__value_typeINS_12basic_stringIcNS_11char_traitsIcEENS_9allocatorIcEEEEN9grpc_core12experimental4JsonEEENS_19__map_value_compareIS7_SB_NS_4lessIS7_EELb1EEENS5_ISB_EEE7destroyEPNS_11__tree_nodeISB_PvEE, symObjAddr: 0x1CF0, symBinAddr: 0x1BBF4, symSize: 0x58 }
  - { offset: 0x1F3FD1, size: 0x8, addend: 0x0, symName: __ZNSt3__16__treeINS_12__value_typeINS_12basic_stringIcNS_11char_traitsIcEENS_9allocatorIcEEEEN9grpc_core12experimental4JsonEEENS_19__map_value_compareIS7_SB_NS_4lessIS7_EELb1EEENS5_ISB_EEE7destroyEPNS_11__tree_nodeISB_PvEE, symObjAddr: 0x1CF0, symBinAddr: 0x1BBF4, symSize: 0x58 }
  - { offset: 0x1F43A8, size: 0x8, addend: 0x0, symName: __ZNSt3__16vectorIN9grpc_core12experimental4JsonENS_9allocatorIS3_EEE16__destroy_vectorclB8ne180100Ev, symObjAddr: 0x1D48, symBinAddr: 0x1BC4C, symSize: 0x70 }
  - { offset: 0x1F47DD, size: 0x8, addend: 0x0, symName: __ZN9grpc_core5SliceD2Ev, symObjAddr: 0x1DFC, symBinAddr: 0x1BD00, symSize: 0x40 }
  - { offset: 0x1F483C, size: 0x8, addend: 0x0, symName: __ZN19grpc_slice_refcount5UnrefEN9grpc_core13DebugLocationE, symObjAddr: 0x1E3C, symBinAddr: 0x1BD40, symSize: 0x88 }
  - { offset: 0x1F4A36, size: 0x8, addend: 0x0, symName: __ZN4grpc12_GLOBAL__N_132MetadataCredentialsPluginWrapperD1Ev, symObjAddr: 0x1EC4, symBinAddr: 0x1BDC8, symSize: 0x50 }
  - { offset: 0x1F4BD8, size: 0x8, addend: 0x0, symName: __ZN4grpc12_GLOBAL__N_132MetadataCredentialsPluginWrapperD0Ev, symObjAddr: 0x1F14, symBinAddr: 0x1BE18, symSize: 0x54 }
  - { offset: 0x1F587E, size: 0x8, addend: 0x0, symName: __ZNSt3__119__allocate_at_leastB8ne180100INS_9allocatorI13grpc_metadataEEEENS_19__allocation_resultINS_16allocator_traitsIT_E7pointerEEERS6_m, symObjAddr: 0x2C80, symBinAddr: 0x1C59C, symSize: 0x44 }
  - { offset: 0x1F59FE, size: 0x8, addend: 0x0, symName: __ZNSt3__110__function6__funcIZN4grpc12_GLOBAL__N_132MetadataCredentialsPluginWrapper11GetMetadataEPv26grpc_auth_metadata_contextPFvS5_PK13grpc_metadatam16grpc_status_codePKcES5_PS7_PmPSA_PSC_EUlvE_NS_9allocatorISJ_EEFvvEED1Ev, symObjAddr: 0x24EC, symBinAddr: 0x1C3F0, symSize: 0x4 }
  - { offset: 0x1F5A29, size: 0x8, addend: 0x0, symName: __ZNSt3__110__function6__funcIZN4grpc12_GLOBAL__N_132MetadataCredentialsPluginWrapper11GetMetadataEPv26grpc_auth_metadata_contextPFvS5_PK13grpc_metadatam16grpc_status_codePKcES5_PS7_PmPSA_PSC_EUlvE_NS_9allocatorISJ_EEFvvEED0Ev, symObjAddr: 0x24F0, symBinAddr: 0x1C3F4, symSize: 0x4 }
  - { offset: 0x1F5C06, size: 0x8, addend: 0x0, symName: __ZNKSt3__110__function6__funcIZN4grpc12_GLOBAL__N_132MetadataCredentialsPluginWrapper11GetMetadataEPv26grpc_auth_metadata_contextPFvS5_PK13grpc_metadatam16grpc_status_codePKcES5_PS7_PmPSA_PSC_EUlvE_NS_9allocatorISJ_EEFvvEE7__cloneEv, symObjAddr: 0x24F4, symBinAddr: 0x1C3F8, symSize: 0x50 }
  - { offset: 0x1F5F2C, size: 0x8, addend: 0x0, symName: __ZNKSt3__110__function6__funcIZN4grpc12_GLOBAL__N_132MetadataCredentialsPluginWrapper11GetMetadataEPv26grpc_auth_metadata_contextPFvS5_PK13grpc_metadatam16grpc_status_codePKcES5_PS7_PmPSA_PSC_EUlvE_NS_9allocatorISJ_EEFvvEE7__cloneEPNS0_6__baseISM_EE, symObjAddr: 0x2544, symBinAddr: 0x1C448, symSize: 0x30 }
  - { offset: 0x1F5F64, size: 0x8, addend: 0x0, symName: __ZNKSt3__110__function6__funcIZN4grpc12_GLOBAL__N_132MetadataCredentialsPluginWrapper11GetMetadataEPv26grpc_auth_metadata_contextPFvS5_PK13grpc_metadatam16grpc_status_codePKcES5_PS7_PmPSA_PSC_EUlvE_NS_9allocatorISJ_EEFvvEE7__cloneEPNS0_6__baseISM_EE, symObjAddr: 0x2544, symBinAddr: 0x1C448, symSize: 0x30 }
  - { offset: 0x1F5F92, size: 0x8, addend: 0x0, symName: __ZNKSt3__110__function6__funcIZN4grpc12_GLOBAL__N_132MetadataCredentialsPluginWrapper11GetMetadataEPv26grpc_auth_metadata_contextPFvS5_PK13grpc_metadatam16grpc_status_codePKcES5_PS7_PmPSA_PSC_EUlvE_NS_9allocatorISJ_EEFvvEE7__cloneEPNS0_6__baseISM_EE, symObjAddr: 0x2544, symBinAddr: 0x1C448, symSize: 0x30 }
  - { offset: 0x1F60A8, size: 0x8, addend: 0x0, symName: __ZNSt3__110__function6__funcIZN4grpc12_GLOBAL__N_132MetadataCredentialsPluginWrapper11GetMetadataEPv26grpc_auth_metadata_contextPFvS5_PK13grpc_metadatam16grpc_status_codePKcES5_PS7_PmPSA_PSC_EUlvE_NS_9allocatorISJ_EEFvvEE7destroyEv, symObjAddr: 0x2574, symBinAddr: 0x1C478, symSize: 0x4 }
  - { offset: 0x1F60F9, size: 0x8, addend: 0x0, symName: __ZNSt3__110__function6__funcIZN4grpc12_GLOBAL__N_132MetadataCredentialsPluginWrapper11GetMetadataEPv26grpc_auth_metadata_contextPFvS5_PK13grpc_metadatam16grpc_status_codePKcES5_PS7_PmPSA_PSC_EUlvE_NS_9allocatorISJ_EEFvvEE18destroy_deallocateEv, symObjAddr: 0x2578, symBinAddr: 0x1C47C, symSize: 0x4 }
  - { offset: 0x1F612F, size: 0x8, addend: 0x0, symName: __ZNSt3__110__function6__funcIZN4grpc12_GLOBAL__N_132MetadataCredentialsPluginWrapper11GetMetadataEPv26grpc_auth_metadata_contextPFvS5_PK13grpc_metadatam16grpc_status_codePKcES5_PS7_PmPSA_PSC_EUlvE_NS_9allocatorISJ_EEFvvEE18destroy_deallocateEv, symObjAddr: 0x2578, symBinAddr: 0x1C47C, symSize: 0x4 }
  - { offset: 0x1F6152, size: 0x8, addend: 0x0, symName: __ZNSt3__110__function6__funcIZN4grpc12_GLOBAL__N_132MetadataCredentialsPluginWrapper11GetMetadataEPv26grpc_auth_metadata_contextPFvS5_PK13grpc_metadatam16grpc_status_codePKcES5_PS7_PmPSA_PSC_EUlvE_NS_9allocatorISJ_EEFvvEE18destroy_deallocateEv, symObjAddr: 0x2578, symBinAddr: 0x1C47C, symSize: 0x4 }
  - { offset: 0x1F617E, size: 0x8, addend: 0x0, symName: __ZNSt3__110__function6__funcIZN4grpc12_GLOBAL__N_132MetadataCredentialsPluginWrapper11GetMetadataEPv26grpc_auth_metadata_contextPFvS5_PK13grpc_metadatam16grpc_status_codePKcES5_PS7_PmPSA_PSC_EUlvE_NS_9allocatorISJ_EEFvvEE18destroy_deallocateEv, symObjAddr: 0x2578, symBinAddr: 0x1C47C, symSize: 0x4 }
  - { offset: 0x1F61A4, size: 0x8, addend: 0x0, symName: __ZNSt3__110__function6__funcIZN4grpc12_GLOBAL__N_132MetadataCredentialsPluginWrapper11GetMetadataEPv26grpc_auth_metadata_contextPFvS5_PK13grpc_metadatam16grpc_status_codePKcES5_PS7_PmPSA_PSC_EUlvE_NS_9allocatorISJ_EEFvvEE18destroy_deallocateEv, symObjAddr: 0x2578, symBinAddr: 0x1C47C, symSize: 0x4 }
  - { offset: 0x1F6224, size: 0x8, addend: 0x0, symName: __ZNSt3__110__function6__funcIZN4grpc12_GLOBAL__N_132MetadataCredentialsPluginWrapper11GetMetadataEPv26grpc_auth_metadata_contextPFvS5_PK13grpc_metadatam16grpc_status_codePKcES5_PS7_PmPSA_PSC_EUlvE_NS_9allocatorISJ_EEFvvEEclEv, symObjAddr: 0x257C, symBinAddr: 0x1C480, symSize: 0x54 }
  - { offset: 0x1F6315, size: 0x8, addend: 0x0, symName: __ZNKSt3__110__function6__funcIZN4grpc12_GLOBAL__N_132MetadataCredentialsPluginWrapper11GetMetadataEPv26grpc_auth_metadata_contextPFvS5_PK13grpc_metadatam16grpc_status_codePKcES5_PS7_PmPSA_PSC_EUlvE_NS_9allocatorISJ_EEFvvEE6targetERKSt9type_info, symObjAddr: 0x25D0, symBinAddr: 0x1C4D4, symSize: 0x3C }
  - { offset: 0x1F63CB, size: 0x8, addend: 0x0, symName: __ZNKSt3__110__function6__funcIZN4grpc12_GLOBAL__N_132MetadataCredentialsPluginWrapper11GetMetadataEPv26grpc_auth_metadata_contextPFvS5_PK13grpc_metadatam16grpc_status_codePKcES5_PS7_PmPSA_PSC_EUlvE_NS_9allocatorISJ_EEFvvEE11target_typeEv, symObjAddr: 0x260C, symBinAddr: 0x1C510, symSize: 0xC }
  - { offset: 0x1F7B84, size: 0x8, addend: 0x0, symName: __ZN4absl12lts_2024011616strings_internal25ResizeUninitializedTraitsINSt3__112basic_stringIcNS3_11char_traitsIcEENS3_9allocatorIcEEEEvE6ResizeEPS9_m, symObjAddr: 0x3E10, symBinAddr: 0x1C7F0, symSize: 0xDC }
  - { offset: 0x1F82C2, size: 0x8, addend: 0x0, symName: __ZNSt3__120__shared_ptr_emplaceIN4grpc28CompositeCallCredentialsImplENS_9allocatorIS2_EEEC2B8ne180100IJRKNS_10shared_ptrINS1_15CallCredentialsEEESB_ES4_Li0EEES4_DpOT_, symObjAddr: 0x3F4C, symBinAddr: 0x1C92C, symSize: 0x7C }
  - { offset: 0x1F85EE, size: 0x8, addend: 0x0, symName: __ZNSt3__120__shared_ptr_emplaceIN4grpc28CompositeCallCredentialsImplENS_9allocatorIS2_EEED1Ev, symObjAddr: 0x3FC8, symBinAddr: 0x1C9A8, symSize: 0x14 }
  - { offset: 0x1F8610, size: 0x8, addend: 0x0, symName: __ZNSt3__120__shared_ptr_emplaceIN4grpc28CompositeCallCredentialsImplENS_9allocatorIS2_EEED1Ev, symObjAddr: 0x3FC8, symBinAddr: 0x1C9A8, symSize: 0x14 }
  - { offset: 0x1F8646, size: 0x8, addend: 0x0, symName: __ZNSt3__120__shared_ptr_emplaceIN4grpc28CompositeCallCredentialsImplENS_9allocatorIS2_EEED0Ev, symObjAddr: 0x3FDC, symBinAddr: 0x1C9BC, symSize: 0x24 }
  - { offset: 0x1F8734, size: 0x8, addend: 0x0, symName: __ZNSt3__120__shared_ptr_emplaceIN4grpc28CompositeCallCredentialsImplENS_9allocatorIS2_EEE16__on_zero_sharedEv, symObjAddr: 0x4000, symBinAddr: 0x1C9E0, symSize: 0xC }
  - { offset: 0x1F875D, size: 0x8, addend: 0x0, symName: __ZNSt3__120__shared_ptr_emplaceIN4grpc28CompositeCallCredentialsImplENS_9allocatorIS2_EEE16__on_zero_sharedEv, symObjAddr: 0x4000, symBinAddr: 0x1C9E0, symSize: 0xC }
  - { offset: 0x1F877B, size: 0x8, addend: 0x0, symName: __ZNSt3__120__shared_ptr_emplaceIN4grpc28CompositeCallCredentialsImplENS_9allocatorIS2_EEE16__on_zero_sharedEv, symObjAddr: 0x4000, symBinAddr: 0x1C9E0, symSize: 0xC }
  - { offset: 0x1F8799, size: 0x8, addend: 0x0, symName: __ZNSt3__120__shared_ptr_emplaceIN4grpc28CompositeCallCredentialsImplENS_9allocatorIS2_EEE16__on_zero_sharedEv, symObjAddr: 0x4000, symBinAddr: 0x1C9E0, symSize: 0xC }
  - { offset: 0x1F87C4, size: 0x8, addend: 0x0, symName: __ZNSt3__120__shared_ptr_emplaceIN4grpc28CompositeCallCredentialsImplENS_9allocatorIS2_EEE21__on_zero_shared_weakEv, symObjAddr: 0x400C, symBinAddr: 0x1C9EC, symSize: 0x4 }
  - { offset: 0x1F87F8, size: 0x8, addend: 0x0, symName: __ZNSt3__120__shared_ptr_emplaceIN4grpc28CompositeCallCredentialsImplENS_9allocatorIS2_EEE21__on_zero_shared_weakEv, symObjAddr: 0x400C, symBinAddr: 0x1C9EC, symSize: 0x4 }
  - { offset: 0x1F881B, size: 0x8, addend: 0x0, symName: __ZNSt3__120__shared_ptr_emplaceIN4grpc28CompositeCallCredentialsImplENS_9allocatorIS2_EEE21__on_zero_shared_weakEv, symObjAddr: 0x400C, symBinAddr: 0x1C9EC, symSize: 0x4 }
  - { offset: 0x1F883E, size: 0x8, addend: 0x0, symName: __ZNSt3__120__shared_ptr_emplaceIN4grpc28CompositeCallCredentialsImplENS_9allocatorIS2_EEE21__on_zero_shared_weakEv, symObjAddr: 0x400C, symBinAddr: 0x1C9EC, symSize: 0x4 }
  - { offset: 0x1F886B, size: 0x8, addend: 0x0, symName: __ZNSt3__120__shared_ptr_emplaceIN4grpc28CompositeCallCredentialsImplENS_9allocatorIS2_EEE21__on_zero_shared_weakEv, symObjAddr: 0x400C, symBinAddr: 0x1C9EC, symSize: 0x4 }
  - { offset: 0x1F8892, size: 0x8, addend: 0x0, symName: __ZNSt3__120__shared_ptr_emplaceIN4grpc28CompositeCallCredentialsImplENS_9allocatorIS2_EEE21__on_zero_shared_weakEv, symObjAddr: 0x400C, symBinAddr: 0x1C9EC, symSize: 0x4 }
  - { offset: 0x1F88DA, size: 0x8, addend: 0x0, symName: __ZN4grpc28CompositeCallCredentialsImplD1Ev, symObjAddr: 0x4010, symBinAddr: 0x1C9F0, symSize: 0x4 }
  - { offset: 0x1F88FC, size: 0x8, addend: 0x0, symName: __ZN4grpc28CompositeCallCredentialsImplD1Ev, symObjAddr: 0x4010, symBinAddr: 0x1C9F0, symSize: 0x4 }
  - { offset: 0x1F8934, size: 0x8, addend: 0x0, symName: __ZN4grpc28CompositeCallCredentialsImplD0Ev, symObjAddr: 0x4014, symBinAddr: 0x1C9F4, symSize: 0x14 }
  - { offset: 0x20694B, size: 0x8, addend: 0x0, symName: __ZNSt3__110shared_ptrIN4grpc17ServerCredentialsEEC2B8ne180100INS1_23SecureServerCredentialsEvEEPT_, symObjAddr: 0x2044, symBinAddr: 0x1DA34, symSize: 0x70 }
  - { offset: 0x20B3DD, size: 0x8, addend: 0x0, symName: __ZN4grpc20SslServerCredentialsERKNS_27SslServerCredentialsOptionsE, symObjAddr: 0xA5C, symBinAddr: 0x1D458, symSize: 0x224 }
  - { offset: 0x20BE9D, size: 0x8, addend: 0x0, symName: __ZN4grpc12experimental21AltsServerCredentialsERKNS0_28AltsServerCredentialsOptionsE, symObjAddr: 0xC80, symBinAddr: 0x1D67C, symSize: 0x7C }
  - { offset: 0x20C02B, size: 0x8, addend: 0x0, symName: __ZN4grpc12experimental22LocalServerCredentialsE23grpc_local_connect_type, symObjAddr: 0xCFC, symBinAddr: 0x1D6F8, symSize: 0x74 }
  - { offset: 0x20C185, size: 0x8, addend: 0x0, symName: __ZN4grpc12experimental20TlsServerCredentialsERKNS0_27TlsServerCredentialsOptionsE, symObjAddr: 0xD70, symBinAddr: 0x1D76C, symSize: 0x88 }
  - { offset: 0x20D15C, size: 0x8, addend: 0x0, symName: __ZN4grpc33AuthMetadataProcessorAsyncWrapper7ProcessEPvP17grpc_auth_contextPK13grpc_metadatamPFvS1_S6_mS6_m16grpc_status_codePKcES1_, symObjAddr: 0x48, symBinAddr: 0x1CA84, symSize: 0x1CC }
  - { offset: 0x20DC96, size: 0x8, addend: 0x0, symName: __ZN4grpc33AuthMetadataProcessorAsyncWrapper7DestroyEPv, symObjAddr: 0x0, symBinAddr: 0x1CA3C, symSize: 0x48 }
  - { offset: 0x20E2DE, size: 0x8, addend: 0x0, symName: __ZN4grpc33AuthMetadataProcessorAsyncWrapper15InvokeProcessorEP17grpc_auth_contextPK13grpc_metadatamPFvPvS5_mS5_m16grpc_status_codePKcES6_, symObjAddr: 0x214, symBinAddr: 0x1CC50, symSize: 0x744 }
  - { offset: 0x211F5B, size: 0x8, addend: 0x0, symName: __ZN4grpc23SecureServerCredentialsC2EP23grpc_server_credentials, symObjAddr: 0x998, symBinAddr: 0x1D394, symSize: 0x24 }
  - { offset: 0x212046, size: 0x8, addend: 0x0, symName: __ZN4grpc23SecureServerCredentialsC1EP23grpc_server_credentials, symObjAddr: 0x9BC, symBinAddr: 0x1D3B8, symSize: 0x24 }
  - { offset: 0x21216A, size: 0x8, addend: 0x0, symName: __ZN4grpc23SecureServerCredentials24SetAuthMetadataProcessorERKNSt3__110shared_ptrINS_21AuthMetadataProcessorEEE, symObjAddr: 0x9E0, symBinAddr: 0x1D3DC, symSize: 0x7C }
  - { offset: 0x21221E, size: 0x8, addend: 0x0, symName: __ZN4grpc33AuthMetadataProcessorAsyncWrapperC2ERKNSt3__110shared_ptrINS_21AuthMetadataProcessorEEE, symObjAddr: 0x194C, symBinAddr: 0x1D858, symSize: 0xB8 }
  - { offset: 0x212AC1, size: 0x8, addend: 0x0, symName: __ZNSt3__110shared_ptrIN4grpc17ServerCredentialsEEC2B8ne180100INS1_23SecureServerCredentialsEvEEPT_, symObjAddr: 0x2044, symBinAddr: 0x1DA34, symSize: 0x70 }
  - { offset: 0x212D89, size: 0x8, addend: 0x0, symName: __ZN4grpc23SecureServerCredentialsD1Ev, symObjAddr: 0xDF8, symBinAddr: 0x1D7F4, symSize: 0x30 }
  - { offset: 0x212E42, size: 0x8, addend: 0x0, symName: __ZNKSt3__114default_deleteIN4grpc33AuthMetadataProcessorAsyncWrapperEEclB8ne180100EPS2_, symObjAddr: 0x1A04, symBinAddr: 0x1D910, symSize: 0x48 }
  - { offset: 0x212F8C, size: 0x8, addend: 0x0, symName: __ZN4grpc23SecureServerCredentialsD0Ev, symObjAddr: 0xE28, symBinAddr: 0x1D824, symSize: 0x34 }
  - { offset: 0x2143A0, size: 0x8, addend: 0x0, symName: '__ZNSt3__110__function6__funcIZN4grpc33AuthMetadataProcessorAsyncWrapper7ProcessEPvP17grpc_auth_contextPK13grpc_metadatamPFvS4_S9_mS9_m16grpc_status_codePKcES4_E3$_0NS_9allocatorISF_EEFvvEED1Ev', symObjAddr: 0x1A4C, symBinAddr: 0x1D958, symSize: 0x4 }
  - { offset: 0x2143CB, size: 0x8, addend: 0x0, symName: '__ZNSt3__110__function6__funcIZN4grpc33AuthMetadataProcessorAsyncWrapper7ProcessEPvP17grpc_auth_contextPK13grpc_metadatamPFvS4_S9_mS9_m16grpc_status_codePKcES4_E3$_0NS_9allocatorISF_EEFvvEED0Ev', symObjAddr: 0x1A50, symBinAddr: 0x1D95C, symSize: 0x4 }
  - { offset: 0x2145A8, size: 0x8, addend: 0x0, symName: '__ZNKSt3__110__function6__funcIZN4grpc33AuthMetadataProcessorAsyncWrapper7ProcessEPvP17grpc_auth_contextPK13grpc_metadatamPFvS4_S9_mS9_m16grpc_status_codePKcES4_E3$_0NS_9allocatorISF_EEFvvEE7__cloneEv', symObjAddr: 0x1A54, symBinAddr: 0x1D960, symSize: 0x48 }
  - { offset: 0x2148CE, size: 0x8, addend: 0x0, symName: '__ZNKSt3__110__function6__funcIZN4grpc33AuthMetadataProcessorAsyncWrapper7ProcessEPvP17grpc_auth_contextPK13grpc_metadatamPFvS4_S9_mS9_m16grpc_status_codePKcES4_E3$_0NS_9allocatorISF_EEFvvEE7__cloneEPNS0_6__baseISI_EE', symObjAddr: 0x1A9C, symBinAddr: 0x1D9A8, symSize: 0x28 }
  - { offset: 0x214906, size: 0x8, addend: 0x0, symName: '__ZNKSt3__110__function6__funcIZN4grpc33AuthMetadataProcessorAsyncWrapper7ProcessEPvP17grpc_auth_contextPK13grpc_metadatamPFvS4_S9_mS9_m16grpc_status_codePKcES4_E3$_0NS_9allocatorISF_EEFvvEE7__cloneEPNS0_6__baseISI_EE', symObjAddr: 0x1A9C, symBinAddr: 0x1D9A8, symSize: 0x28 }
  - { offset: 0x214934, size: 0x8, addend: 0x0, symName: '__ZNKSt3__110__function6__funcIZN4grpc33AuthMetadataProcessorAsyncWrapper7ProcessEPvP17grpc_auth_contextPK13grpc_metadatamPFvS4_S9_mS9_m16grpc_status_codePKcES4_E3$_0NS_9allocatorISF_EEFvvEE7__cloneEPNS0_6__baseISI_EE', symObjAddr: 0x1A9C, symBinAddr: 0x1D9A8, symSize: 0x28 }
  - { offset: 0x214A4A, size: 0x8, addend: 0x0, symName: '__ZNSt3__110__function6__funcIZN4grpc33AuthMetadataProcessorAsyncWrapper7ProcessEPvP17grpc_auth_contextPK13grpc_metadatamPFvS4_S9_mS9_m16grpc_status_codePKcES4_E3$_0NS_9allocatorISF_EEFvvEE7destroyEv', symObjAddr: 0x1AC4, symBinAddr: 0x1D9D0, symSize: 0x4 }
  - { offset: 0x214A9B, size: 0x8, addend: 0x0, symName: '__ZNSt3__110__function6__funcIZN4grpc33AuthMetadataProcessorAsyncWrapper7ProcessEPvP17grpc_auth_contextPK13grpc_metadatamPFvS4_S9_mS9_m16grpc_status_codePKcES4_E3$_0NS_9allocatorISF_EEFvvEE18destroy_deallocateEv', symObjAddr: 0x1AC8, symBinAddr: 0x1D9D4, symSize: 0x4 }
  - { offset: 0x214AD1, size: 0x8, addend: 0x0, symName: '__ZNSt3__110__function6__funcIZN4grpc33AuthMetadataProcessorAsyncWrapper7ProcessEPvP17grpc_auth_contextPK13grpc_metadatamPFvS4_S9_mS9_m16grpc_status_codePKcES4_E3$_0NS_9allocatorISF_EEFvvEE18destroy_deallocateEv', symObjAddr: 0x1AC8, symBinAddr: 0x1D9D4, symSize: 0x4 }
  - { offset: 0x214AF4, size: 0x8, addend: 0x0, symName: '__ZNSt3__110__function6__funcIZN4grpc33AuthMetadataProcessorAsyncWrapper7ProcessEPvP17grpc_auth_contextPK13grpc_metadatamPFvS4_S9_mS9_m16grpc_status_codePKcES4_E3$_0NS_9allocatorISF_EEFvvEE18destroy_deallocateEv', symObjAddr: 0x1AC8, symBinAddr: 0x1D9D4, symSize: 0x4 }
  - { offset: 0x214B21, size: 0x8, addend: 0x0, symName: '__ZNSt3__110__function6__funcIZN4grpc33AuthMetadataProcessorAsyncWrapper7ProcessEPvP17grpc_auth_contextPK13grpc_metadatamPFvS4_S9_mS9_m16grpc_status_codePKcES4_E3$_0NS_9allocatorISF_EEFvvEE18destroy_deallocateEv', symObjAddr: 0x1AC8, symBinAddr: 0x1D9D4, symSize: 0x4 }
  - { offset: 0x214B48, size: 0x8, addend: 0x0, symName: '__ZNSt3__110__function6__funcIZN4grpc33AuthMetadataProcessorAsyncWrapper7ProcessEPvP17grpc_auth_contextPK13grpc_metadatamPFvS4_S9_mS9_m16grpc_status_codePKcES4_E3$_0NS_9allocatorISF_EEFvvEE18destroy_deallocateEv', symObjAddr: 0x1AC8, symBinAddr: 0x1D9D4, symSize: 0x4 }
  - { offset: 0x214BC6, size: 0x8, addend: 0x0, symName: '__ZNSt3__110__function6__funcIZN4grpc33AuthMetadataProcessorAsyncWrapper7ProcessEPvP17grpc_auth_contextPK13grpc_metadatamPFvS4_S9_mS9_m16grpc_status_codePKcES4_E3$_0NS_9allocatorISF_EEFvvEEclEv', symObjAddr: 0x1ACC, symBinAddr: 0x1D9D8, symSize: 0x14 }
  - { offset: 0x214BF1, size: 0x8, addend: 0x0, symName: '__ZNSt3__110__function6__funcIZN4grpc33AuthMetadataProcessorAsyncWrapper7ProcessEPvP17grpc_auth_contextPK13grpc_metadatamPFvS4_S9_mS9_m16grpc_status_codePKcES4_E3$_0NS_9allocatorISF_EEFvvEEclEv', symObjAddr: 0x1ACC, symBinAddr: 0x1D9D8, symSize: 0x14 }
  - { offset: 0x214C0F, size: 0x8, addend: 0x0, symName: '__ZNSt3__110__function6__funcIZN4grpc33AuthMetadataProcessorAsyncWrapper7ProcessEPvP17grpc_auth_contextPK13grpc_metadatamPFvS4_S9_mS9_m16grpc_status_codePKcES4_E3$_0NS_9allocatorISF_EEFvvEEclEv', symObjAddr: 0x1ACC, symBinAddr: 0x1D9D8, symSize: 0x14 }
  - { offset: 0x214C2C, size: 0x8, addend: 0x0, symName: '__ZNSt3__110__function6__funcIZN4grpc33AuthMetadataProcessorAsyncWrapper7ProcessEPvP17grpc_auth_contextPK13grpc_metadatamPFvS4_S9_mS9_m16grpc_status_codePKcES4_E3$_0NS_9allocatorISF_EEFvvEEclEv', symObjAddr: 0x1ACC, symBinAddr: 0x1D9D8, symSize: 0x14 }
  - { offset: 0x214C4A, size: 0x8, addend: 0x0, symName: '__ZNSt3__110__function6__funcIZN4grpc33AuthMetadataProcessorAsyncWrapper7ProcessEPvP17grpc_auth_contextPK13grpc_metadatamPFvS4_S9_mS9_m16grpc_status_codePKcES4_E3$_0NS_9allocatorISF_EEFvvEEclEv', symObjAddr: 0x1ACC, symBinAddr: 0x1D9D8, symSize: 0x14 }
  - { offset: 0x214C78, size: 0x8, addend: 0x0, symName: '__ZNKSt3__110__function6__funcIZN4grpc33AuthMetadataProcessorAsyncWrapper7ProcessEPvP17grpc_auth_contextPK13grpc_metadatamPFvS4_S9_mS9_m16grpc_status_codePKcES4_E3$_0NS_9allocatorISF_EEFvvEE6targetERKSt9type_info', symObjAddr: 0x1AE0, symBinAddr: 0x1D9EC, symSize: 0x3C }
  - { offset: 0x214D2E, size: 0x8, addend: 0x0, symName: '__ZNKSt3__110__function6__funcIZN4grpc33AuthMetadataProcessorAsyncWrapper7ProcessEPvP17grpc_auth_contextPK13grpc_metadatamPFvS4_S9_mS9_m16grpc_status_codePKcES4_E3$_0NS_9allocatorISF_EEFvvEE11target_typeEv', symObjAddr: 0x1B1C, symBinAddr: 0x1DA28, symSize: 0xC }
  - { offset: 0x215601, size: 0x8, addend: 0x0, symName: __ZNKSt3__114default_deleteIN4grpc23SecureServerCredentialsEEclB8ne180100EPS2_, symObjAddr: 0x2114, symBinAddr: 0x1DB04, symSize: 0x40 }
  - { offset: 0x215705, size: 0x8, addend: 0x0, symName: __ZNSt3__120__shared_ptr_pointerIPN4grpc23SecureServerCredentialsENS_10shared_ptrINS1_17ServerCredentialsEE27__shared_ptr_default_deleteIS5_S2_EENS_9allocatorIS2_EEED1Ev, symObjAddr: 0x20B4, symBinAddr: 0x1DAA4, symSize: 0x4 }
  - { offset: 0x215727, size: 0x8, addend: 0x0, symName: __ZNSt3__120__shared_ptr_pointerIPN4grpc23SecureServerCredentialsENS_10shared_ptrINS1_17ServerCredentialsEE27__shared_ptr_default_deleteIS5_S2_EENS_9allocatorIS2_EEED1Ev, symObjAddr: 0x20B4, symBinAddr: 0x1DAA4, symSize: 0x4 }
  - { offset: 0x21575D, size: 0x8, addend: 0x0, symName: __ZNSt3__120__shared_ptr_pointerIPN4grpc23SecureServerCredentialsENS_10shared_ptrINS1_17ServerCredentialsEE27__shared_ptr_default_deleteIS5_S2_EENS_9allocatorIS2_EEED0Ev, symObjAddr: 0x20B8, symBinAddr: 0x1DAA8, symSize: 0x14 }
  - { offset: 0x2157C0, size: 0x8, addend: 0x0, symName: __ZNSt3__120__shared_ptr_pointerIPN4grpc23SecureServerCredentialsENS_10shared_ptrINS1_17ServerCredentialsEE27__shared_ptr_default_deleteIS5_S2_EENS_9allocatorIS2_EEE16__on_zero_sharedEv, symObjAddr: 0x20CC, symBinAddr: 0x1DABC, symSize: 0x8 }
  - { offset: 0x2157F6, size: 0x8, addend: 0x0, symName: __ZNKSt3__120__shared_ptr_pointerIPN4grpc23SecureServerCredentialsENS_10shared_ptrINS1_17ServerCredentialsEE27__shared_ptr_default_deleteIS5_S2_EENS_9allocatorIS2_EEE13__get_deleterERKSt9type_info, symObjAddr: 0x20D4, symBinAddr: 0x1DAC4, symSize: 0x3C }
  - { offset: 0x21589C, size: 0x8, addend: 0x0, symName: __ZNSt3__120__shared_ptr_pointerIPN4grpc23SecureServerCredentialsENS_10shared_ptrINS1_17ServerCredentialsEE27__shared_ptr_default_deleteIS5_S2_EENS_9allocatorIS2_EEE21__on_zero_shared_weakEv, symObjAddr: 0x2110, symBinAddr: 0x1DB00, symSize: 0x4 }
  - { offset: 0x2158D0, size: 0x8, addend: 0x0, symName: __ZNSt3__120__shared_ptr_pointerIPN4grpc23SecureServerCredentialsENS_10shared_ptrINS1_17ServerCredentialsEE27__shared_ptr_default_deleteIS5_S2_EENS_9allocatorIS2_EEE21__on_zero_shared_weakEv, symObjAddr: 0x2110, symBinAddr: 0x1DB00, symSize: 0x4 }
  - { offset: 0x2158F2, size: 0x8, addend: 0x0, symName: __ZNSt3__120__shared_ptr_pointerIPN4grpc23SecureServerCredentialsENS_10shared_ptrINS1_17ServerCredentialsEE27__shared_ptr_default_deleteIS5_S2_EENS_9allocatorIS2_EEE21__on_zero_shared_weakEv, symObjAddr: 0x2110, symBinAddr: 0x1DB00, symSize: 0x4 }
  - { offset: 0x21591E, size: 0x8, addend: 0x0, symName: __ZNSt3__120__shared_ptr_pointerIPN4grpc23SecureServerCredentialsENS_10shared_ptrINS1_17ServerCredentialsEE27__shared_ptr_default_deleteIS5_S2_EENS_9allocatorIS2_EEE21__on_zero_shared_weakEv, symObjAddr: 0x2110, symBinAddr: 0x1DB00, symSize: 0x4 }
  - { offset: 0x215944, size: 0x8, addend: 0x0, symName: __ZNSt3__120__shared_ptr_pointerIPN4grpc23SecureServerCredentialsENS_10shared_ptrINS1_17ServerCredentialsEE27__shared_ptr_default_deleteIS5_S2_EENS_9allocatorIS2_EEE21__on_zero_shared_weakEv, symObjAddr: 0x2110, symBinAddr: 0x1DB00, symSize: 0x4 }
  - { offset: 0x25ABA7, size: 0x8, addend: 0x0, symName: __ZNSt3__16vectorINS_10unique_ptrIN4grpc13ServerBuilder12NamedServiceENS_14default_deleteIS4_EEEENS_9allocatorIS7_EEE26__swap_out_circular_bufferERNS_14__split_bufferIS7_RS9_EE, symObjAddr: 0x39C4, symBinAddr: 0x20218, symSize: 0x74 }
  - { offset: 0x25AC5B, size: 0x8, addend: 0x0, symName: __ZNSt3__142__uninitialized_allocator_move_if_noexceptB8ne180100INS_9allocatorINS_10unique_ptrIN4grpc13ServerBuilder12NamedServiceENS_14default_deleteIS5_EEEEEENS_16reverse_iteratorIPS8_EESC_SC_EET2_RT_T0_T1_SD_, symObjAddr: 0x3A80, symBinAddr: 0x2028C, symSize: 0x94 }
  - { offset: 0x25ADF6, size: 0x8, addend: 0x0, symName: __ZNSt3__115allocate_sharedB8ne180100IN4grpc8internal30ExternalConnectionAcceptorImplENS_9allocatorIS3_EEJRNS_12basic_stringIcNS_11char_traitsIcEENS4_IcEEEERNS1_13ServerBuilder17experimental_type22ExternalConnectionTypeERNS_10shared_ptrINS1_17ServerCredentialsEEEEvEENSG_IT_EERKT0_DpOT1_, symObjAddr: 0x3C14, symBinAddr: 0x20420, symSize: 0x78 }
  - { offset: 0x25B15B, size: 0x8, addend: 0x0, symName: __ZNSt3__114__split_bufferINS_10shared_ptrIN4grpc8internal30ExternalConnectionAcceptorImplEEERNS_9allocatorIS5_EEED2Ev, symObjAddr: 0x3F9C, symBinAddr: 0x20658, symSize: 0x4C }
  - { offset: 0x25B42B, size: 0x8, addend: 0x0, symName: __ZNSt3__115allocate_sharedB8ne180100IN9grpc_core12experimental19PassiveListenerImplENS_9allocatorIS3_EEJEvEENS_10shared_ptrIT_EERKT0_DpOT1_, symObjAddr: 0x4090, symBinAddr: 0x206A4, symSize: 0x48 }
  - { offset: 0x25C29C, size: 0x8, addend: 0x0, symName: __ZN4grpc13ServerBuilder17experimental_type25EnableCallMetricRecordingEPNS_12experimental20ServerMetricRecorderE.cold.1, symObjAddr: 0x5064, symBinAddr: 0x30158, symSize: 0x4C }
  - { offset: 0x25CA9E, size: 0x8, addend: 0x0, symName: __ZNSt3__142__uninitialized_allocator_move_if_noexceptB8ne180100INS_9allocatorINS_10unique_ptrIN4grpc13ServerBuilder12NamedServiceENS_14default_deleteIS5_EEEEEENS_16reverse_iteratorIPS8_EESC_SC_EET2_RT_T0_T1_SD_, symObjAddr: 0x3A80, symBinAddr: 0x2028C, symSize: 0x94 }
  - { offset: 0x25D622, size: 0x8, addend: 0x0, symName: __ZNSt3__142__uninitialized_allocator_move_if_noexceptB8ne180100INS_9allocatorIN4grpc13ServerBuilder24UnstartedPassiveListenerEEENS_16reverse_iteratorIPS4_EES8_S8_EET2_RT_T0_T1_S9_, symObjAddr: 0x4650, symBinAddr: 0x209AC, symSize: 0x9C }
  - { offset: 0x25D686, size: 0x8, addend: 0x0, symName: __ZNSt3__142__uninitialized_allocator_move_if_noexceptB8ne180100INS_9allocatorIN4grpc13ServerBuilder24UnstartedPassiveListenerEEENS_16reverse_iteratorIPS4_EES8_S8_EET2_RT_T0_T1_S9_, symObjAddr: 0x4650, symBinAddr: 0x209AC, symSize: 0x9C }
  - { offset: 0x25D932, size: 0x8, addend: 0x0, symName: __ZNSt3__119__allocator_destroyB8ne180100INS_9allocatorIN4grpc13ServerBuilder24UnstartedPassiveListenerEEENS_16reverse_iteratorINS6_IPS4_EEEES9_EEvRT_T0_T1_, symObjAddr: 0x4794, symBinAddr: 0x20AF0, symSize: 0x64 }
  - { offset: 0x25DBAD, size: 0x8, addend: 0x0, symName: __ZNSt3__119__allocate_at_leastB8ne180100INS_9allocatorIN4grpc13ServerBuilder4PortEEEEENS_19__allocation_resultINS_16allocator_traitsIT_E7pointerEEERS8_m, symObjAddr: 0x4C48, symBinAddr: 0x20EB0, symSize: 0x44 }
  - { offset: 0x25DC55, size: 0x8, addend: 0x0, symName: __ZNSt3__142__uninitialized_allocator_move_if_noexceptB8ne180100INS_9allocatorIN4grpc13ServerBuilder4PortEEENS_16reverse_iteratorIPS4_EES8_S8_EET2_RT_T0_T1_S9_, symObjAddr: 0x4C8C, symBinAddr: 0x20EF4, symSize: 0xB8 }
  - { offset: 0x25DCB9, size: 0x8, addend: 0x0, symName: __ZNSt3__142__uninitialized_allocator_move_if_noexceptB8ne180100INS_9allocatorIN4grpc13ServerBuilder4PortEEENS_16reverse_iteratorIPS4_EES8_S8_EET2_RT_T0_T1_S9_, symObjAddr: 0x4C8C, symBinAddr: 0x20EF4, symSize: 0xB8 }
  - { offset: 0x25F5DC, size: 0x8, addend: 0x0, symName: __ZN4grpcL21once_init_plugin_listE, symObjAddr: 0x5D40, symBinAddr: 0x490D0, symSize: 0x0 }
  - { offset: 0x25F5F6, size: 0x8, addend: 0x0, symName: __ZN4grpcL21g_plugin_factory_listE, symObjAddr: 0x2C4E80, symBinAddr: 0x491E8, symSize: 0x0 }
  - { offset: 0x262B9A, size: 0x8, addend: 0x0, symName: __ZN4grpcL19do_plugin_list_initEv, symObjAddr: 0x2E0, symBinAddr: 0x1DE58, symSize: 0x28 }
  - { offset: 0x26FA21, size: 0x8, addend: 0x0, symName: __ZN4grpc13ServerBuilder13BuildAndStartEv, symObjAddr: 0x16A8, symBinAddr: 0x1F0DC, symSize: 0xB74 }
  - { offset: 0x2724C1, size: 0x8, addend: 0x0, symName: __ZNSt3__16vectorINS_10unique_ptrIN4grpc13ServerBuilder12NamedServiceENS_14default_deleteIS4_EEEENS_9allocatorIS7_EEE26__swap_out_circular_bufferERNS_14__split_bufferIS7_RS9_EE, symObjAddr: 0x39C4, symBinAddr: 0x20218, symSize: 0x74 }
  - { offset: 0x2729BE, size: 0x8, addend: 0x0, symName: __ZNSt3__16vectorIN4grpc13ServerBuilder24UnstartedPassiveListenerENS_9allocatorIS3_EEE26__swap_out_circular_bufferERNS_14__split_bufferIS3_RS5_EE, symObjAddr: 0x4594, symBinAddr: 0x20938, symSize: 0x74 }
  - { offset: 0x272BEA, size: 0x8, addend: 0x0, symName: __ZNSt3__16vectorIN4grpc13ServerBuilder4PortENS_9allocatorIS3_EEE26__swap_out_circular_bufferERNS_14__split_bufferIS3_RS5_EE, symObjAddr: 0x4BC0, symBinAddr: 0x20E3C, symSize: 0x74 }
  - { offset: 0x2739C3, size: 0x8, addend: 0x0, symName: __ZN4grpc13ServerBuilderC2Ev, symObjAddr: 0x0, symBinAddr: 0x1DB78, symSize: 0x2E0 }
  - { offset: 0x274AA4, size: 0x8, addend: 0x0, symName: __ZNSt3__16vectorINS_10shared_ptrIN4grpc8internal30ExternalConnectionAcceptorImplEEENS_9allocatorIS5_EEE16__destroy_vectorclB8ne180100Ev, symObjAddr: 0x380C, symBinAddr: 0x201A8, symSize: 0x70 }
  - { offset: 0x274ECD, size: 0x8, addend: 0x0, symName: __ZNSt3__16vectorIN4grpc13ServerBuilder24UnstartedPassiveListenerENS_9allocatorIS3_EEE16__destroy_vectorclB8ne180100Ev, symObjAddr: 0x367C, symBinAddr: 0x20110, symSize: 0x40 }
  - { offset: 0x274FBA, size: 0x8, addend: 0x0, symName: __ZNSt3__16vectorIN4grpc13ServerBuilder4PortENS_9allocatorIS3_EEE16__destroy_vectorclB8ne180100Ev, symObjAddr: 0x35BC, symBinAddr: 0x20050, symSize: 0x84 }
  - { offset: 0x2750FE, size: 0x8, addend: 0x0, symName: __ZNSt3__16vectorINS_10unique_ptrIN4grpc13ServerBuilder12NamedServiceENS_14default_deleteIS4_EEEENS_9allocatorIS7_EEE16__destroy_vectorclB8ne180100Ev, symObjAddr: 0x34A8, symBinAddr: 0x1FF3C, symSize: 0x40 }
  - { offset: 0x27534D, size: 0x8, addend: 0x0, symName: __ZN4grpc13ServerBuilderC1Ev, symObjAddr: 0x308, symBinAddr: 0x1DE80, symSize: 0x4 }
  - { offset: 0x27537B, size: 0x8, addend: 0x0, symName: __ZN4grpc13ServerBuilderC1Ev, symObjAddr: 0x308, symBinAddr: 0x1DE80, symSize: 0x4 }
  - { offset: 0x27538F, size: 0x8, addend: 0x0, symName: __ZN4grpc13ServerBuilderD2Ev, symObjAddr: 0x30C, symBinAddr: 0x1DE84, symSize: 0xEC }
  - { offset: 0x275A47, size: 0x8, addend: 0x0, symName: __ZN4grpc13ServerBuilderD1Ev, symObjAddr: 0x408, symBinAddr: 0x1DF70, symSize: 0x4 }
  - { offset: 0x275A6A, size: 0x8, addend: 0x0, symName: __ZN4grpc13ServerBuilderD1Ev, symObjAddr: 0x408, symBinAddr: 0x1DF70, symSize: 0x4 }
  - { offset: 0x275A9A, size: 0x8, addend: 0x0, symName: __ZN4grpc13ServerBuilderD0Ev, symObjAddr: 0x40C, symBinAddr: 0x1DF74, symSize: 0x14 }
  - { offset: 0x275FC6, size: 0x8, addend: 0x0, symName: __ZN4grpc13ServerBuilder18AddCompletionQueueEb, symObjAddr: 0x420, symBinAddr: 0x1DF88, symSize: 0x148 }
  - { offset: 0x276C9E, size: 0x8, addend: 0x0, symName: __ZN4grpc13ServerBuilder15RegisterServiceEPNS_7ServiceE, symObjAddr: 0x568, symBinAddr: 0x1E0D0, symSize: 0x104 }
  - { offset: 0x2771F5, size: 0x8, addend: 0x0, symName: __ZNSt3__114__split_bufferINS_10unique_ptrIN4grpc13ServerBuilder12NamedServiceENS_14default_deleteIS4_EEEERNS_9allocatorIS7_EEED2Ev, symObjAddr: 0x3B90, symBinAddr: 0x2039C, symSize: 0x34 }
  - { offset: 0x277346, size: 0x8, addend: 0x0, symName: __ZN4grpc13ServerBuilder15RegisterServiceERKNSt3__112basic_stringIcNS1_11char_traitsIcEENS1_9allocatorIcEEEEPNS_7ServiceE, symObjAddr: 0x66C, symBinAddr: 0x1E1D4, symSize: 0x120 }
  - { offset: 0x277820, size: 0x8, addend: 0x0, symName: __ZN4grpc13ServerBuilder12NamedServiceC2ERKNSt3__112basic_stringIcNS2_11char_traitsIcEENS2_9allocatorIcEEEEPNS_7ServiceE, symObjAddr: 0x270C, symBinAddr: 0x1FEC0, symSize: 0x7C }
  - { offset: 0x2779D8, size: 0x8, addend: 0x0, symName: __ZN4grpc13ServerBuilder27RegisterAsyncGenericServiceEPNS_19AsyncGenericServiceE, symObjAddr: 0x78C, symBinAddr: 0x1E2F4, symSize: 0x94 }
  - { offset: 0x277ACF, size: 0x8, addend: 0x0, symName: __ZN4grpc13ServerBuilder30RegisterCallbackGenericServiceEPNS_22CallbackGenericServiceE, symObjAddr: 0x888, symBinAddr: 0x1E388, symSize: 0x94 }
  - { offset: 0x277BE3, size: 0x8, addend: 0x0, symName: __ZN4grpc13ServerBuilder19SetContextAllocatorENSt3__110unique_ptrINS_16ContextAllocatorENS1_14default_deleteIS3_EEEE, symObjAddr: 0x984, symBinAddr: 0x1E41C, symSize: 0x40 }
  - { offset: 0x2781F6, size: 0x8, addend: 0x0, symName: __ZN4grpc13ServerBuilder17experimental_type29AddExternalConnectionAcceptorENS1_22ExternalConnectionTypeENSt3__110shared_ptrINS_17ServerCredentialsEEE, symObjAddr: 0x9C4, symBinAddr: 0x1E45C, symSize: 0x230 }
  - { offset: 0x278DB0, size: 0x8, addend: 0x0, symName: __ZNSt3__114__split_bufferINS_10shared_ptrIN4grpc8internal30ExternalConnectionAcceptorImplEEERNS_9allocatorIS5_EEED2Ev, symObjAddr: 0x3F9C, symBinAddr: 0x20658, symSize: 0x4C }
  - { offset: 0x278FB6, size: 0x8, addend: 0x0, symName: __ZN4grpc13ServerBuilder17experimental_type30SetAuthorizationPolicyProviderENSt3__110shared_ptrINS_12experimental36AuthorizationPolicyProviderInterfaceEEE, symObjAddr: 0xBF4, symBinAddr: 0x1E68C, symSize: 0xC }
  - { offset: 0x279185, size: 0x8, addend: 0x0, symName: __ZN4grpc13ServerBuilder17experimental_type25EnableCallMetricRecordingEPNS_12experimental20ServerMetricRecorderE, symObjAddr: 0xC64, symBinAddr: 0x1E698, symSize: 0xA8 }
  - { offset: 0x2794BC, size: 0x8, addend: 0x0, symName: __ZN4grpc13ServerBuilder18AddChannelArgumentIiEERS0_RKNSt3__112basic_stringIcNS3_11char_traitsIcEENS3_9allocatorIcEEEERKT_, symObjAddr: 0xD0C, symBinAddr: 0x1E740, symSize: 0x84 }
  - { offset: 0x279681, size: 0x8, addend: 0x0, symName: __ZN4grpc13ServerBuilder17experimental_type25EnableCallMetricRecordingEPNS_12experimental20ServerMetricRecorderE.cold.1, symObjAddr: 0x5064, symBinAddr: 0x30158, symSize: 0x4C }
  - { offset: 0x2797BA, size: 0x8, addend: 0x0, symName: __ZN4grpc13ServerBuilder9SetOptionENSt3__110unique_ptrINS_19ServerBuilderOptionENS1_14default_deleteIS3_EEEE, symObjAddr: 0xD90, symBinAddr: 0x1E7C4, symSize: 0x120 }
  - { offset: 0x279DDD, size: 0x8, addend: 0x0, symName: __ZN4grpc13ServerBuilder19SetSyncServerOptionENS0_16SyncServerOptionEi, symObjAddr: 0xEB0, symBinAddr: 0x1E8E4, symSize: 0x44 }
  - { offset: 0x27A3A1, size: 0x8, addend: 0x0, symName: __ZN4grpc13ServerBuilder19SetSyncServerOptionENS0_16SyncServerOptionEi, symObjAddr: 0xEB0, symBinAddr: 0x1E8E4, symSize: 0x44 }
  - { offset: 0x27A3E4, size: 0x8, addend: 0x0, symName: __ZN4grpc13ServerBuilder36SetCompressionAlgorithmSupportStatusE26grpc_compression_algorithmb, symObjAddr: 0xEF4, symBinAddr: 0x1E928, symSize: 0x28 }
  - { offset: 0x27A46A, size: 0x8, addend: 0x0, symName: __ZN4grpc13ServerBuilder26SetDefaultCompressionLevelE22grpc_compression_level, symObjAddr: 0xF1C, symBinAddr: 0x1E950, symSize: 0x10 }
  - { offset: 0x27A49F, size: 0x8, addend: 0x0, symName: __ZN4grpc13ServerBuilder30SetDefaultCompressionAlgorithmE26grpc_compression_algorithm, symObjAddr: 0xF2C, symBinAddr: 0x1E960, symSize: 0x10 }
  - { offset: 0x27A4EF, size: 0x8, addend: 0x0, symName: __ZN4grpc13ServerBuilder16SetResourceQuotaERKNS_13ResourceQuotaE, symObjAddr: 0xF3C, symBinAddr: 0x1E970, symSize: 0x3C }
  - { offset: 0x27AA1D, size: 0x8, addend: 0x0, symName: __ZN4grpc13ServerBuilder17experimental_type18AddPassiveListenerENSt3__110shared_ptrINS_17ServerCredentialsEEERNS2_10unique_ptrIN9grpc_core12experimental15PassiveListenerENS2_14default_deleteIS9_EEEE, symObjAddr: 0xF78, symBinAddr: 0x1E9AC, symSize: 0x134 }
  - { offset: 0x27AF03, size: 0x8, addend: 0x0, symName: __ZNSt3__16vectorIN4grpc13ServerBuilder24UnstartedPassiveListenerENS_9allocatorIS3_EEE24__emplace_back_slow_pathIJRNS_10shared_ptrIN9grpc_core12experimental19PassiveListenerImplEEENS8_INS1_17ServerCredentialsEEEEEEPS3_DpOT_, symObjAddr: 0x4490, symBinAddr: 0x20834, symSize: 0x104 }
  - { offset: 0x27B86F, size: 0x8, addend: 0x0, symName: __ZN4grpc13ServerBuilder16AddListeningPortERKNSt3__112basic_stringIcNS1_11char_traitsIcEENS1_9allocatorIcEEEENS1_10shared_ptrINS_17ServerCredentialsEEEPi, symObjAddr: 0x10AC, symBinAddr: 0x1EAE0, symSize: 0x2F0 }
  - { offset: 0x27C9A4, size: 0x8, addend: 0x0, symName: __ZNSt3__16vectorIN4grpc13ServerBuilder4PortENS_9allocatorIS3_EEE21__push_back_slow_pathIRKS3_EEPS3_OT_, symObjAddr: 0x4A44, symBinAddr: 0x20CC0, symSize: 0x10C }
  - { offset: 0x27CC80, size: 0x8, addend: 0x0, symName: __ZN4grpc13ServerBuilder4PortD1Ev, symObjAddr: 0x139C, symBinAddr: 0x1EDD0, symSize: 0x38 }
  - { offset: 0x27CEE0, size: 0x8, addend: 0x0, symName: __ZN4grpc13ServerBuilder16BuildChannelArgsEv, symObjAddr: 0x13D4, symBinAddr: 0x1EE08, symSize: 0x2D4 }
  - { offset: 0x27EFF9, size: 0x8, addend: 0x0, symName: __ZN4grpc15CompletionQueue14RegisterServerEPKNS_6ServerE, symObjAddr: 0x221C, symBinAddr: 0x1FC50, symSize: 0x80 }
  - { offset: 0x27FA4F, size: 0x8, addend: 0x0, symName: __ZN4grpc13ServerBuilder24InternalAddPluginFactoryEPFNSt3__110unique_ptrINS_19ServerBuilderPluginENS1_14default_deleteIS3_EEEEvE, symObjAddr: 0x22CC, symBinAddr: 0x1FCD0, symSize: 0xF0 }
  - { offset: 0x27FE51, size: 0x8, addend: 0x0, symName: __ZN4grpc13ServerBuilder16EnableWorkaroundE20grpc_workaround_list, symObjAddr: 0x23BC, symBinAddr: 0x1FDC0, symSize: 0xE8 }
  - { offset: 0x27FEEF, size: 0x8, addend: 0x0, symName: __ZN4grpc13ServerBuilder16EnableWorkaroundE20grpc_workaround_list, symObjAddr: 0x23BC, symBinAddr: 0x1FDC0, symSize: 0xE8 }
  - { offset: 0x2806B2, size: 0x8, addend: 0x0, symName: __ZN4grpc21ServerCompletionQueueD1Ev, symObjAddr: 0x25D4, symBinAddr: 0x1FEA8, symSize: 0x4 }
  - { offset: 0x2806D4, size: 0x8, addend: 0x0, symName: __ZN4grpc21ServerCompletionQueueD1Ev, symObjAddr: 0x25D4, symBinAddr: 0x1FEA8, symSize: 0x4 }
  - { offset: 0x2806F2, size: 0x8, addend: 0x0, symName: __ZN4grpc21ServerCompletionQueueD1Ev, symObjAddr: 0x25D4, symBinAddr: 0x1FEA8, symSize: 0x4 }
  - { offset: 0x2807D3, size: 0x8, addend: 0x0, symName: __ZN4grpc21ServerCompletionQueueD0Ev, symObjAddr: 0x25D8, symBinAddr: 0x1FEAC, symSize: 0x14 }
  - { offset: 0x28122A, size: 0x8, addend: 0x0, symName: __ZNSt3__16vectorINS_10unique_ptrIN4grpc13ServerBuilder12NamedServiceENS_14default_deleteIS4_EEEENS_9allocatorIS7_EEE22__base_destruct_at_endB8ne180100EPS7_, symObjAddr: 0x34E8, symBinAddr: 0x1FF7C, symSize: 0x60 }
  - { offset: 0x2813F4, size: 0x8, addend: 0x0, symName: __ZNKSt3__114default_deleteIN4grpc13ServerBuilder12NamedServiceEEclB8ne180100EPS3_, symObjAddr: 0x3548, symBinAddr: 0x1FFDC, symSize: 0x3C }
  - { offset: 0x28157D, size: 0x8, addend: 0x0, symName: __ZNKSt3__114default_deleteINS_12basic_stringIcNS_11char_traitsIcEENS_9allocatorIcEEEEEclB8ne180100EPS6_, symObjAddr: 0x3584, symBinAddr: 0x20018, symSize: 0x38 }
  - { offset: 0x281798, size: 0x8, addend: 0x0, symName: __ZNSt3__19allocatorIN4grpc13ServerBuilder4PortEE7destroyB8ne180100EPS3_, symObjAddr: 0x3640, symBinAddr: 0x200D4, symSize: 0x3C }
  - { offset: 0x281999, size: 0x8, addend: 0x0, symName: __ZNSt3__16vectorIN4grpc13ServerBuilder24UnstartedPassiveListenerENS_9allocatorIS3_EEE22__base_destruct_at_endB8ne180100EPS3_, symObjAddr: 0x36BC, symBinAddr: 0x20150, symSize: 0x58 }
  - { offset: 0x28218C, size: 0x8, addend: 0x0, symName: __ZNSt3__128__exception_guard_exceptionsINS_29_AllocatorDestroyRangeReverseINS_9allocatorINS_10unique_ptrIN4grpc13ServerBuilder12NamedServiceENS_14default_deleteIS6_EEEEEENS_16reverse_iteratorIPS9_EEEEED2B8ne180100Ev, symObjAddr: 0x3B14, symBinAddr: 0x20320, symSize: 0x34 }
  - { offset: 0x2821CD, size: 0x8, addend: 0x0, symName: __ZNKSt3__129_AllocatorDestroyRangeReverseINS_9allocatorINS_10unique_ptrIN4grpc13ServerBuilder12NamedServiceENS_14default_deleteIS5_EEEEEENS_16reverse_iteratorIPS8_EEEclB8ne180100Ev, symObjAddr: 0x3B48, symBinAddr: 0x20354, symSize: 0x48 }
  - { offset: 0x282337, size: 0x8, addend: 0x0, symName: __ZNSt3__114__split_bufferINS_10unique_ptrIN4grpc13ServerBuilder12NamedServiceENS_14default_deleteIS4_EEEERNS_9allocatorIS7_EEE17__destruct_at_endB8ne180100EPS7_, symObjAddr: 0x3BC4, symBinAddr: 0x203D0, symSize: 0x50 }
  - { offset: 0x2826EC, size: 0x8, addend: 0x0, symName: __ZNSt3__120__shared_ptr_emplaceIN4grpc8internal30ExternalConnectionAcceptorImplENS_9allocatorIS3_EEEC2B8ne180100IJRNS_12basic_stringIcNS_11char_traitsIcEENS4_IcEEEERNS1_13ServerBuilder17experimental_type22ExternalConnectionTypeERNS_10shared_ptrINS1_17ServerCredentialsEEEES5_Li0EEES5_DpOT_, symObjAddr: 0x3C8C, symBinAddr: 0x20498, symSize: 0x68 }
  - { offset: 0x2828E6, size: 0x8, addend: 0x0, symName: __ZNSt3__19allocatorIN4grpc8internal30ExternalConnectionAcceptorImplEE9constructB8ne180100IS3_JRNS_12basic_stringIcNS_11char_traitsIcEENS0_IcEEEERNS1_13ServerBuilder17experimental_type22ExternalConnectionTypeERNS_10shared_ptrINS1_17ServerCredentialsEEEEEEvPT_DpOT0_, symObjAddr: 0x3D54, symBinAddr: 0x20560, symSize: 0xA4 }
  - { offset: 0x282AFB, size: 0x8, addend: 0x0, symName: __ZNSt3__120__shared_ptr_emplaceIN4grpc8internal30ExternalConnectionAcceptorImplENS_9allocatorIS3_EEED1Ev, symObjAddr: 0x3CF4, symBinAddr: 0x20500, symSize: 0x14 }
  - { offset: 0x282B1D, size: 0x8, addend: 0x0, symName: __ZNSt3__120__shared_ptr_emplaceIN4grpc8internal30ExternalConnectionAcceptorImplENS_9allocatorIS3_EEED1Ev, symObjAddr: 0x3CF4, symBinAddr: 0x20500, symSize: 0x14 }
  - { offset: 0x282B53, size: 0x8, addend: 0x0, symName: __ZNSt3__120__shared_ptr_emplaceIN4grpc8internal30ExternalConnectionAcceptorImplENS_9allocatorIS3_EEED0Ev, symObjAddr: 0x3D08, symBinAddr: 0x20514, symSize: 0x24 }
  - { offset: 0x282C20, size: 0x8, addend: 0x0, symName: __ZNSt3__120__shared_ptr_emplaceIN4grpc8internal30ExternalConnectionAcceptorImplENS_9allocatorIS3_EEE16__on_zero_sharedEv, symObjAddr: 0x3D2C, symBinAddr: 0x20538, symSize: 0x24 }
  - { offset: 0x282CC8, size: 0x8, addend: 0x0, symName: __ZNSt3__19allocatorIN4grpc8internal30ExternalConnectionAcceptorImplEE7destroyB8ne180100EPS3_, symObjAddr: 0x3DF8, symBinAddr: 0x20604, symSize: 0x54 }
  - { offset: 0x282F1F, size: 0x8, addend: 0x0, symName: __ZNSt3__120__shared_ptr_emplaceIN4grpc8internal30ExternalConnectionAcceptorImplENS_9allocatorIS3_EEE21__on_zero_shared_weakEv, symObjAddr: 0x3D50, symBinAddr: 0x2055C, symSize: 0x4 }
  - { offset: 0x282F53, size: 0x8, addend: 0x0, symName: __ZNSt3__120__shared_ptr_emplaceIN4grpc8internal30ExternalConnectionAcceptorImplENS_9allocatorIS3_EEE21__on_zero_shared_weakEv, symObjAddr: 0x3D50, symBinAddr: 0x2055C, symSize: 0x4 }
  - { offset: 0x282F76, size: 0x8, addend: 0x0, symName: __ZNSt3__120__shared_ptr_emplaceIN4grpc8internal30ExternalConnectionAcceptorImplENS_9allocatorIS3_EEE21__on_zero_shared_weakEv, symObjAddr: 0x3D50, symBinAddr: 0x2055C, symSize: 0x4 }
  - { offset: 0x282F99, size: 0x8, addend: 0x0, symName: __ZNSt3__120__shared_ptr_emplaceIN4grpc8internal30ExternalConnectionAcceptorImplENS_9allocatorIS3_EEE21__on_zero_shared_weakEv, symObjAddr: 0x3D50, symBinAddr: 0x2055C, symSize: 0x4 }
  - { offset: 0x282FC8, size: 0x8, addend: 0x0, symName: __ZNSt3__120__shared_ptr_emplaceIN4grpc8internal30ExternalConnectionAcceptorImplENS_9allocatorIS3_EEE21__on_zero_shared_weakEv, symObjAddr: 0x3D50, symBinAddr: 0x2055C, symSize: 0x4 }
  - { offset: 0x282FF2, size: 0x8, addend: 0x0, symName: __ZNSt3__120__shared_ptr_emplaceIN4grpc8internal30ExternalConnectionAcceptorImplENS_9allocatorIS3_EEE21__on_zero_shared_weakEv, symObjAddr: 0x3D50, symBinAddr: 0x2055C, symSize: 0x4 }
  - { offset: 0x2835CC, size: 0x8, addend: 0x0, symName: __ZNSt3__120__shared_ptr_emplaceIN9grpc_core12experimental19PassiveListenerImplENS_9allocatorIS3_EEEC2B8ne180100IJES5_Li0EEES5_DpOT_, symObjAddr: 0x40D8, symBinAddr: 0x206EC, symSize: 0x6C }
  - { offset: 0x283875, size: 0x8, addend: 0x0, symName: __ZNSt3__120__shared_ptr_emplaceIN9grpc_core12experimental19PassiveListenerImplENS_9allocatorIS3_EEED1Ev, symObjAddr: 0x4144, symBinAddr: 0x20758, symSize: 0x14 }
  - { offset: 0x283897, size: 0x8, addend: 0x0, symName: __ZNSt3__120__shared_ptr_emplaceIN9grpc_core12experimental19PassiveListenerImplENS_9allocatorIS3_EEED1Ev, symObjAddr: 0x4144, symBinAddr: 0x20758, symSize: 0x14 }
  - { offset: 0x2838CD, size: 0x8, addend: 0x0, symName: __ZNSt3__120__shared_ptr_emplaceIN9grpc_core12experimental19PassiveListenerImplENS_9allocatorIS3_EEED0Ev, symObjAddr: 0x4158, symBinAddr: 0x2076C, symSize: 0x24 }
  - { offset: 0x28399A, size: 0x8, addend: 0x0, symName: __ZNSt3__120__shared_ptr_emplaceIN9grpc_core12experimental19PassiveListenerImplENS_9allocatorIS3_EEE16__on_zero_sharedEv, symObjAddr: 0x417C, symBinAddr: 0x20790, symSize: 0x24 }
  - { offset: 0x283A42, size: 0x8, addend: 0x0, symName: __ZNSt3__19allocatorIN9grpc_core12experimental19PassiveListenerImplEE7destroyB8ne180100EPS3_, symObjAddr: 0x41A4, symBinAddr: 0x207B8, symSize: 0x30 }
  - { offset: 0x283B15, size: 0x8, addend: 0x0, symName: __ZNSt3__120__shared_ptr_emplaceIN9grpc_core12experimental19PassiveListenerImplENS_9allocatorIS3_EEE21__on_zero_shared_weakEv, symObjAddr: 0x41A0, symBinAddr: 0x207B4, symSize: 0x4 }
  - { offset: 0x283B49, size: 0x8, addend: 0x0, symName: __ZNSt3__120__shared_ptr_emplaceIN9grpc_core12experimental19PassiveListenerImplENS_9allocatorIS3_EEE21__on_zero_shared_weakEv, symObjAddr: 0x41A0, symBinAddr: 0x207B4, symSize: 0x4 }
  - { offset: 0x283B6C, size: 0x8, addend: 0x0, symName: __ZNSt3__120__shared_ptr_emplaceIN9grpc_core12experimental19PassiveListenerImplENS_9allocatorIS3_EEE21__on_zero_shared_weakEv, symObjAddr: 0x41A0, symBinAddr: 0x207B4, symSize: 0x4 }
  - { offset: 0x283B8F, size: 0x8, addend: 0x0, symName: __ZNSt3__120__shared_ptr_emplaceIN9grpc_core12experimental19PassiveListenerImplENS_9allocatorIS3_EEE21__on_zero_shared_weakEv, symObjAddr: 0x41A0, symBinAddr: 0x207B4, symSize: 0x4 }
  - { offset: 0x283BBD, size: 0x8, addend: 0x0, symName: __ZNSt3__120__shared_ptr_emplaceIN9grpc_core12experimental19PassiveListenerImplENS_9allocatorIS3_EEE21__on_zero_shared_weakEv, symObjAddr: 0x41A0, symBinAddr: 0x207B4, symSize: 0x4 }
  - { offset: 0x283BE6, size: 0x8, addend: 0x0, symName: __ZNSt3__120__shared_ptr_emplaceIN9grpc_core12experimental19PassiveListenerImplENS_9allocatorIS3_EEE21__on_zero_shared_weakEv, symObjAddr: 0x41A0, symBinAddr: 0x207B4, symSize: 0x4 }
  - { offset: 0x283C64, size: 0x8, addend: 0x0, symName: __ZN9grpc_core13RefCountedPtrINS_6ServerEED2Ev, symObjAddr: 0x41D4, symBinAddr: 0x207E8, symSize: 0x4C }
  - { offset: 0x2842EA, size: 0x8, addend: 0x0, symName: __ZNSt3__114__split_bufferIN4grpc13ServerBuilder24UnstartedPassiveListenerERNS_9allocatorIS3_EEED2Ev, symObjAddr: 0x47F8, symBinAddr: 0x20B54, symSize: 0x34 }
  - { offset: 0x284562, size: 0x8, addend: 0x0, symName: __ZNSt3__128__exception_guard_exceptionsINS_29_AllocatorDestroyRangeReverseINS_9allocatorIN4grpc13ServerBuilder24UnstartedPassiveListenerEEENS_16reverse_iteratorIPS5_EEEEED2B8ne180100Ev, symObjAddr: 0x46EC, symBinAddr: 0x20A48, symSize: 0x34 }
  - { offset: 0x2845A3, size: 0x8, addend: 0x0, symName: __ZNKSt3__129_AllocatorDestroyRangeReverseINS_9allocatorIN4grpc13ServerBuilder24UnstartedPassiveListenerEEENS_16reverse_iteratorIPS4_EEEclB8ne180100Ev, symObjAddr: 0x4720, symBinAddr: 0x20A7C, symSize: 0x74 }
  - { offset: 0x284729, size: 0x8, addend: 0x0, symName: __ZNSt3__114__split_bufferIN4grpc13ServerBuilder24UnstartedPassiveListenerERNS_9allocatorIS3_EEE17__destruct_at_endB8ne180100EPS3_, symObjAddr: 0x482C, symBinAddr: 0x20B88, symSize: 0x5C }
  - { offset: 0x28489E, size: 0x8, addend: 0x0, symName: __ZN4grpc12_GLOBAL__N_120PassiveListenerOwnerD1Ev, symObjAddr: 0x4888, symBinAddr: 0x20BE4, symSize: 0x28 }
  - { offset: 0x28497E, size: 0x8, addend: 0x0, symName: __ZN4grpc12_GLOBAL__N_120PassiveListenerOwnerD0Ev, symObjAddr: 0x48B0, symBinAddr: 0x20C0C, symSize: 0x28 }
  - { offset: 0x284BE3, size: 0x8, addend: 0x0, symName: __ZN4grpc12_GLOBAL__N_120PassiveListenerOwner23AcceptConnectedEndpointENSt3__110unique_ptrIN17grpc_event_engine12experimental11EventEngine8EndpointENS2_14default_deleteIS7_EEEE, symObjAddr: 0x48D8, symBinAddr: 0x20C34, symSize: 0x7C }
  - { offset: 0x284E58, size: 0x8, addend: 0x0, symName: __ZN4grpc12_GLOBAL__N_120PassiveListenerOwner17AcceptConnectedFdEi, symObjAddr: 0x4954, symBinAddr: 0x20CB0, symSize: 0x10 }
  - { offset: 0x284E8F, size: 0x8, addend: 0x0, symName: __ZN4grpc12_GLOBAL__N_120PassiveListenerOwner17AcceptConnectedFdEi, symObjAddr: 0x4954, symBinAddr: 0x20CB0, symSize: 0x10 }
  - { offset: 0x285105, size: 0x8, addend: 0x0, symName: __ZNSt3__19allocatorIN4grpc13ServerBuilder4PortEE9constructB8ne180100IS3_JRKS3_EEEvPT_DpOT0_, symObjAddr: 0x4B50, symBinAddr: 0x20DCC, symSize: 0x70 }
  - { offset: 0x2852C1, size: 0x8, addend: 0x0, symName: __ZNSt3__114__split_bufferIN4grpc13ServerBuilder4PortERNS_9allocatorIS3_EEED2Ev, symObjAddr: 0x4DC8, symBinAddr: 0x21030, symSize: 0x30 }
  - { offset: 0x2853B8, size: 0x8, addend: 0x0, symName: __ZNSt3__119__allocate_at_leastB8ne180100INS_9allocatorIN4grpc13ServerBuilder4PortEEEEENS_19__allocation_resultINS_16allocator_traitsIT_E7pointerEEERS8_m, symObjAddr: 0x4C48, symBinAddr: 0x20EB0, symSize: 0x44 }
  - { offset: 0x28558F, size: 0x8, addend: 0x0, symName: __ZNSt3__128__exception_guard_exceptionsINS_29_AllocatorDestroyRangeReverseINS_9allocatorIN4grpc13ServerBuilder4PortEEENS_16reverse_iteratorIPS5_EEEEED2B8ne180100Ev, symObjAddr: 0x4D44, symBinAddr: 0x20FAC, symSize: 0x34 }
  - { offset: 0x2855D0, size: 0x8, addend: 0x0, symName: __ZNKSt3__129_AllocatorDestroyRangeReverseINS_9allocatorIN4grpc13ServerBuilder4PortEEENS_16reverse_iteratorIPS4_EEEclB8ne180100Ev, symObjAddr: 0x4D78, symBinAddr: 0x20FE0, symSize: 0x50 }
  - { offset: 0x2856B1, size: 0x8, addend: 0x0, symName: __ZNSt3__114__split_bufferIN4grpc13ServerBuilder4PortERNS_9allocatorIS3_EEE5clearB8ne180100Ev, symObjAddr: 0x4DF8, symBinAddr: 0x21060, symSize: 0x44 }
  - { offset: 0x285857, size: 0x8, addend: 0x0, symName: __ZNSt3__120__shared_ptr_emplaceINS_6vectorINS_10unique_ptrIN4grpc21ServerCompletionQueueENS_14default_deleteIS4_EEEENS_9allocatorIS7_EEEENS8_ISA_EEED1Ev, symObjAddr: 0x4E3C, symBinAddr: 0x210A4, symSize: 0x14 }
  - { offset: 0x285879, size: 0x8, addend: 0x0, symName: __ZNSt3__120__shared_ptr_emplaceINS_6vectorINS_10unique_ptrIN4grpc21ServerCompletionQueueENS_14default_deleteIS4_EEEENS_9allocatorIS7_EEEENS8_ISA_EEED1Ev, symObjAddr: 0x4E3C, symBinAddr: 0x210A4, symSize: 0x14 }
  - { offset: 0x2858AF, size: 0x8, addend: 0x0, symName: __ZNSt3__120__shared_ptr_emplaceINS_6vectorINS_10unique_ptrIN4grpc21ServerCompletionQueueENS_14default_deleteIS4_EEEENS_9allocatorIS7_EEEENS8_ISA_EEED0Ev, symObjAddr: 0x4E50, symBinAddr: 0x210B8, symSize: 0x24 }
  - { offset: 0x285A38, size: 0x8, addend: 0x0, symName: __ZNSt3__120__shared_ptr_emplaceINS_6vectorINS_10unique_ptrIN4grpc21ServerCompletionQueueENS_14default_deleteIS4_EEEENS_9allocatorIS7_EEEENS8_ISA_EEE16__on_zero_sharedEv, symObjAddr: 0x4E74, symBinAddr: 0x210DC, symSize: 0x28 }
  - { offset: 0x285CF6, size: 0x8, addend: 0x0, symName: __ZNSt3__120__shared_ptr_emplaceINS_6vectorINS_10unique_ptrIN4grpc21ServerCompletionQueueENS_14default_deleteIS4_EEEENS_9allocatorIS7_EEEENS8_ISA_EEE21__on_zero_shared_weakEv, symObjAddr: 0x4E9C, symBinAddr: 0x21104, symSize: 0x4 }
  - { offset: 0x285D2A, size: 0x8, addend: 0x0, symName: __ZNSt3__120__shared_ptr_emplaceINS_6vectorINS_10unique_ptrIN4grpc21ServerCompletionQueueENS_14default_deleteIS4_EEEENS_9allocatorIS7_EEEENS8_ISA_EEE21__on_zero_shared_weakEv, symObjAddr: 0x4E9C, symBinAddr: 0x21104, symSize: 0x4 }
  - { offset: 0x285D4D, size: 0x8, addend: 0x0, symName: __ZNSt3__120__shared_ptr_emplaceINS_6vectorINS_10unique_ptrIN4grpc21ServerCompletionQueueENS_14default_deleteIS4_EEEENS_9allocatorIS7_EEEENS8_ISA_EEE21__on_zero_shared_weakEv, symObjAddr: 0x4E9C, symBinAddr: 0x21104, symSize: 0x4 }
  - { offset: 0x285D70, size: 0x8, addend: 0x0, symName: __ZNSt3__120__shared_ptr_emplaceINS_6vectorINS_10unique_ptrIN4grpc21ServerCompletionQueueENS_14default_deleteIS4_EEEENS_9allocatorIS7_EEEENS8_ISA_EEE21__on_zero_shared_weakEv, symObjAddr: 0x4E9C, symBinAddr: 0x21104, symSize: 0x4 }
  - { offset: 0x285D9E, size: 0x8, addend: 0x0, symName: __ZNSt3__120__shared_ptr_emplaceINS_6vectorINS_10unique_ptrIN4grpc21ServerCompletionQueueENS_14default_deleteIS4_EEEENS_9allocatorIS7_EEEENS8_ISA_EEE21__on_zero_shared_weakEv, symObjAddr: 0x4E9C, symBinAddr: 0x21104, symSize: 0x4 }
  - { offset: 0x285DC7, size: 0x8, addend: 0x0, symName: __ZNSt3__120__shared_ptr_emplaceINS_6vectorINS_10unique_ptrIN4grpc21ServerCompletionQueueENS_14default_deleteIS4_EEEENS_9allocatorIS7_EEEENS8_ISA_EEE21__on_zero_shared_weakEv, symObjAddr: 0x4E9C, symBinAddr: 0x21104, symSize: 0x4 }
  - { offset: 0x28857F, size: 0x8, addend: 0x0, symName: '__ZN4absl12lts_2024011622internal_any_invocable12LocalInvokerILb0EvRZN4grpc8internal18ServerCallbackCall14ScheduleOnDoneEbE3$_0JEEET0_PNS1_15TypeErasedStateEDpNS1_18ForwardedParameterIT2_E4typeE', symObjAddr: 0x184, symBinAddr: 0x212B0, symSize: 0x10 }
  - { offset: 0x288668, size: 0x8, addend: 0x0, symName: '__ZN4absl12lts_2024011622internal_any_invocable12LocalInvokerILb0EvRZN4grpc8internal18ServerCallbackCall12CallOnCancelEPNS4_13ServerReactorEE3$_0JEEET0_PNS1_15TypeErasedStateEDpNS1_18ForwardedParameterIT2_E4typeE', symObjAddr: 0x1A0, symBinAddr: 0x212C0, symSize: 0x2C }
  - { offset: 0x28AC9C, size: 0x8, addend: 0x0, symName: __ZN4grpc8internal18ServerCallbackCall14ScheduleOnDoneEb, symObjAddr: 0x0, symBinAddr: 0x2113C, symSize: 0xA0 }
  - { offset: 0x28AF0B, size: 0x8, addend: 0x0, symName: __ZN4grpc8internal18ServerCallbackCall12CallOnCancelEPNS0_13ServerReactorE, symObjAddr: 0xA0, symBinAddr: 0x211DC, symSize: 0xD4 }
  - { offset: 0x28D6E2, size: 0x8, addend: 0x0, symName: __ZN4grpc12_GLOBAL__N_111g_callbacksE, symObjAddr: 0x404E48, symBinAddr: 0x491F0, symSize: 0x0 }
  - { offset: 0x28D6FC, size: 0x8, addend: 0x0, symName: __ZN4grpc12_GLOBAL__N_121g_once_init_callbacksE, symObjAddr: 0x12CB8, symBinAddr: 0x49110, symSize: 0x0 }
  - { offset: 0x28D7E4, size: 0x8, addend: 0x0, symName: __ZN4grpc12_GLOBAL__N_119InitGlobalCallbacksEv, symObjAddr: 0x12D8, symBinAddr: 0x2257C, symSize: 0xB4 }
  - { offset: 0x29114B, size: 0x8, addend: 0x0, symName: __ZN4grpc8internal21CatchingReactorGetterINS_17ServerBidiReactorINS_10ByteBufferES3_EERNSt3__18functionIFPS4_PNS_21CallbackServerContextEEEEJS9_EEEPT_OT0_DpOT1_, symObjAddr: 0x6FE8, symBinAddr: 0x263A8, symSize: 0x50 }
  - { offset: 0x2938A9, size: 0x8, addend: 0x0, symName: __ZN4grpcL31kHealthCheckServiceInterfaceArgE, symObjAddr: 0x12D38, symBinAddr: 0x355A8, symSize: 0x0 }
  - { offset: 0x2C716D, size: 0x8, addend: 0x0, symName: __ZNSt3__17getlineB8ne180100IcNS_11char_traitsIcEENS_9allocatorIcEEEERNS_13basic_istreamIT_T0_EES9_RNS_12basic_stringIS6_S7_T1_EES6_, symObjAddr: 0x2124, symBinAddr: 0x2323C, symSize: 0x184 }
  - { offset: 0x2C7FBD, size: 0x8, addend: 0x0, symName: __ZN4grpc22CallbackGenericServiceD1Ev, symObjAddr: 0xE524, symBinAddr: 0x2ACAC, symSize: 0x4 }
  - { offset: 0x2CAE27, size: 0x8, addend: 0x0, symName: __ZNSt3__119__allocate_at_leastB8ne180100INS_9allocatorINS_12basic_stringIcNS_11char_traitsIcEENS1_IcEEEEEEEENS_19__allocation_resultINS_16allocator_traitsIT_E7pointerEEERSA_m, symObjAddr: 0xD4B4, symBinAddr: 0x29F20, symSize: 0x44 }
  - { offset: 0x2CAECF, size: 0x8, addend: 0x0, symName: __ZNSt3__142__uninitialized_allocator_move_if_noexceptB8ne180100INS_9allocatorINS_12basic_stringIcNS_11char_traitsIcEENS1_IcEEEEEENS_16reverse_iteratorIPS6_EESA_SA_EET2_RT_T0_T1_SB_, symObjAddr: 0xD4F8, symBinAddr: 0x29F64, symSize: 0x9C }
  - { offset: 0x2CAF33, size: 0x8, addend: 0x0, symName: __ZNSt3__142__uninitialized_allocator_move_if_noexceptB8ne180100INS_9allocatorINS_12basic_stringIcNS_11char_traitsIcEENS1_IcEEEEEENS_16reverse_iteratorIPS6_EESA_SA_EET2_RT_T0_T1_SB_, symObjAddr: 0xD4F8, symBinAddr: 0x29F64, symSize: 0x9C }
  - { offset: 0x2D433E, size: 0x8, addend: 0x0, symName: __ZN9grpc_core8DestructIN4grpc28GenericCallbackServerContextEEEvPT_, symObjAddr: 0xE1A0, symBinAddr: 0x2AC0C, symSize: 0x40 }
  - { offset: 0x2D8E13, size: 0x8, addend: 0x0, symName: __ZN4grpc6Server11SyncRequest3RunERKNSt3__110shared_ptrINS0_15GlobalCallbacksEEEb, symObjAddr: 0x5B50, symBinAddr: 0x24F74, symSize: 0x2C4 }
  - { offset: 0x2D9538, size: 0x8, addend: 0x0, symName: __ZN4grpc6Server15RegisterServiceEPKNSt3__112basic_stringIcNS1_11char_traitsIcEENS1_9allocatorIcEEEEPNS_7ServiceE, symObjAddr: 0x1968, symBinAddr: 0x22B54, symSize: 0x508 }
  - { offset: 0x2DA8B9, size: 0x8, addend: 0x0, symName: __ZN4grpc8internal9CallOpSetINS0_17CallOpRecvMessageINS_10ByteBufferEEENS0_8CallNoOpILi2EEENS5_ILi3EEENS5_ILi4EEENS5_ILi5EEENS5_ILi6EEEE32ContinueFillOpsAfterInterceptionEv, symObjAddr: 0x9698, symBinAddr: 0x26F78, symSize: 0x134 }
  - { offset: 0x2DAA6D, size: 0x8, addend: 0x0, symName: __ZN4grpc6Server15CallbackRequestINS_21CallbackServerContextEE15CallbackCallTag3RunEb, symObjAddr: 0xCA28, symBinAddr: 0x294A8, symSize: 0x2F8 }
  - { offset: 0x2DB0FC, size: 0x8, addend: 0x0, symName: __ZN4grpc6Server15CallbackRequestINS_28GenericCallbackServerContextEE15CallbackCallTag3RunEb, symObjAddr: 0xD9A8, symBinAddr: 0x2A414, symSize: 0x34C }
  - { offset: 0x2DB821, size: 0x8, addend: 0x0, symName: __ZN4grpc8internal9CallOpSetINS0_25CallOpSendInitialMetadataENS0_22CallOpServerSendStatusENS0_8CallNoOpILi3EEENS4_ILi4EEENS4_ILi5EEENS4_ILi6EEEE32ContinueFillOpsAfterInterceptionEv, symObjAddr: 0x3960, symBinAddr: 0x249BC, symSize: 0x134 }
  - { offset: 0x2DC065, size: 0x8, addend: 0x0, symName: __ZN4grpc6Server24SyncRequestThreadManager13AddSyncMethodEPNS_8internal16RpcServiceMethodEPv, symObjAddr: 0x1F44, symBinAddr: 0x2305C, symSize: 0x104 }
  - { offset: 0x2DC598, size: 0x8, addend: 0x0, symName: __ZN4grpc22CallbackGenericService7HandlerEv, symObjAddr: 0x25CC, symBinAddr: 0x2366C, symSize: 0xB8 }
  - { offset: 0x2DCA75, size: 0x8, addend: 0x0, symName: __ZN4grpc8internal19CallbackBidiHandlerINS_10ByteBufferES2_E30ServerCallbackReaderWriterImpl6FinishENS_6StatusE, symObjAddr: 0x77CC, symBinAddr: 0x26970, symSize: 0x16C }
  - { offset: 0x2DCFCC, size: 0x8, addend: 0x0, symName: __ZN4grpc8internal19CallbackBidiHandlerINS_10ByteBufferES2_E30ServerCallbackReaderWriterImpl19SendInitialMetadataEv, symObjAddr: 0x7938, symBinAddr: 0x26ADC, symSize: 0x174 }
  - { offset: 0x2DD5D8, size: 0x8, addend: 0x0, symName: __ZN4grpc8internal19CallbackBidiHandlerINS_10ByteBufferES2_E10RunHandlerERKNS0_13MethodHandler16HandlerParameterE, symObjAddr: 0x6CD8, symBinAddr: 0x26098, symSize: 0x27C }
  - { offset: 0x2DE403, size: 0x8, addend: 0x0, symName: __ZN4grpc8internal19CallbackBidiHandlerINS_10ByteBufferES2_E30ServerCallbackReaderWriterImpl12SetupReactorEPNS_17ServerBidiReactorIS2_S2_EE, symObjAddr: 0x7038, symBinAddr: 0x263F8, symSize: 0x1E0 }
  - { offset: 0x2DF0F4, size: 0x8, addend: 0x0, symName: __ZN4grpc6Server24SyncRequestThreadManager20AddUnknownSyncMethodEv, symObjAddr: 0x2C7C, symBinAddr: 0x23D1C, symSize: 0x1D4 }
  - { offset: 0x2DFA26, size: 0x8, addend: 0x0, symName: __ZN4grpc15ServerInterface16BaseAsyncRequest14FinalizeResultEPPvPb, symObjAddr: 0x178, symBinAddr: 0x21450, symSize: 0x248 }
  - { offset: 0x2E056A, size: 0x8, addend: 0x0, symName: __ZN4grpc6Server15CallbackRequestINS_21CallbackServerContextEE15CallbackCallTag28ContinueRunAfterInterceptionEv, symObjAddr: 0xCD20, symBinAddr: 0x297A0, symSize: 0x214 }
  - { offset: 0x2E0FB3, size: 0x8, addend: 0x0, symName: __ZNSt3__16vectorINS_12basic_stringIcNS_11char_traitsIcEENS_9allocatorIcEEEENS4_IS6_EEE26__swap_out_circular_bufferERNS_14__split_bufferIS6_RS7_EE, symObjAddr: 0xD42C, symBinAddr: 0x29EAC, symSize: 0x74 }
  - { offset: 0x2E10F1, size: 0x8, addend: 0x0, symName: __ZN4grpc6Server30RegisterCallbackGenericServiceEPNS_22CallbackGenericServiceE, symObjAddr: 0x2404, symBinAddr: 0x234E0, symSize: 0x18C }
  - { offset: 0x2E1950, size: 0x8, addend: 0x0, symName: __ZN4grpc6Server15CallbackRequestINS_28GenericCallbackServerContextEE15CallbackCallTag28ContinueRunAfterInterceptionEv, symObjAddr: 0xDCF4, symBinAddr: 0x2A760, symSize: 0x214 }
  - { offset: 0x2E2512, size: 0x8, addend: 0x0, symName: __ZNSt3__110shared_ptrIN4grpc6Server15GlobalCallbacksEED1B8ne180100Ev, symObjAddr: 0x0, symBinAddr: 0x212EC, symSize: 0x4 }
  - { offset: 0x2E2535, size: 0x8, addend: 0x0, symName: __ZNSt3__110shared_ptrIN4grpc6Server15GlobalCallbacksEED1B8ne180100Ev, symObjAddr: 0x0, symBinAddr: 0x212EC, symSize: 0x4 }
  - { offset: 0x2E275F, size: 0x8, addend: 0x0, symName: __ZN4grpc15ServerInterface16BaseAsyncRequestC2EPS0_PNS_13ServerContextEPNS_8internal29ServerAsyncStreamingInterfaceEPNS_15CompletionQueueEPNS_21ServerCompletionQueueEPvb, symObjAddr: 0x4, symBinAddr: 0x212F0, symSize: 0xE8 }
  - { offset: 0x2E2AA2, size: 0x8, addend: 0x0, symName: __ZN4grpc15ServerInterface16BaseAsyncRequestC1EPS0_PNS_13ServerContextEPNS_8internal29ServerAsyncStreamingInterfaceEPNS_15CompletionQueueEPNS_21ServerCompletionQueueEPvb, symObjAddr: 0xF0, symBinAddr: 0x213D8, symSize: 0x4 }
  - { offset: 0x2E2B37, size: 0x8, addend: 0x0, symName: __ZN4grpc15ServerInterface16BaseAsyncRequestC1EPS0_PNS_13ServerContextEPNS_8internal29ServerAsyncStreamingInterfaceEPNS_15CompletionQueueEPNS_21ServerCompletionQueueEPvb, symObjAddr: 0xF0, symBinAddr: 0x213D8, symSize: 0x4 }
  - { offset: 0x2E2B99, size: 0x8, addend: 0x0, symName: __ZN4grpc15ServerInterface16BaseAsyncRequestD2Ev, symObjAddr: 0xF4, symBinAddr: 0x213DC, symSize: 0x5C }
  - { offset: 0x2E2C30, size: 0x8, addend: 0x0, symName: __ZN4grpc15ServerInterface16BaseAsyncRequestD1Ev, symObjAddr: 0x160, symBinAddr: 0x21438, symSize: 0x4 }
  - { offset: 0x2E2C53, size: 0x8, addend: 0x0, symName: __ZN4grpc15ServerInterface16BaseAsyncRequestD1Ev, symObjAddr: 0x160, symBinAddr: 0x21438, symSize: 0x4 }
  - { offset: 0x2E2C83, size: 0x8, addend: 0x0, symName: __ZN4grpc15ServerInterface16BaseAsyncRequestD0Ev, symObjAddr: 0x164, symBinAddr: 0x2143C, symSize: 0x14 }
  - { offset: 0x2E30B5, size: 0x8, addend: 0x0, symName: __ZN4grpc8internal27InterceptorBatchMethodsImpl15RunInterceptorsENSt3__18functionIFvvEEE, symObjAddr: 0x3C0, symBinAddr: 0x21698, symSize: 0x84 }
  - { offset: 0x2E3341, size: 0x8, addend: 0x0, symName: __ZN4grpc8internal27InterceptorBatchMethodsImpl15RunInterceptorsENSt3__18functionIFvvEEE.cold.1, symObjAddr: 0xEB74, symBinAddr: 0x301B4, symSize: 0x4C }
  - { offset: 0x2E33D7, size: 0x8, addend: 0x0, symName: __ZN4grpc8internal27InterceptorBatchMethodsImpl15RunInterceptorsENSt3__18functionIFvvEEE.cold.2, symObjAddr: 0xEBC0, symBinAddr: 0x30200, symSize: 0x44 }
  - { offset: 0x2E35C5, size: 0x8, addend: 0x0, symName: __ZN4grpc15ServerInterface16BaseAsyncRequest39ContinueFinalizeResultAfterInterceptionEv, symObjAddr: 0x444, symBinAddr: 0x2171C, symSize: 0x17C }
  - { offset: 0x2E3B55, size: 0x8, addend: 0x0, symName: __ZN4grpc15ServerInterface22RegisteredAsyncRequestC2EPS0_PNS_13ServerContextEPNS_8internal29ServerAsyncStreamingInterfaceEPNS_15CompletionQueueEPNS_21ServerCompletionQueueEPvPKcNS5_9RpcMethod7RpcTypeE, symObjAddr: 0x5F4, symBinAddr: 0x21898, symSize: 0x40 }
  - { offset: 0x2E3C82, size: 0x8, addend: 0x0, symName: __ZN4grpc15ServerInterface22RegisteredAsyncRequestC1EPS0_PNS_13ServerContextEPNS_8internal29ServerAsyncStreamingInterfaceEPNS_15CompletionQueueEPNS_21ServerCompletionQueueEPvPKcNS5_9RpcMethod7RpcTypeE, symObjAddr: 0x634, symBinAddr: 0x218D8, symSize: 0x40 }
  - { offset: 0x2E3DF0, size: 0x8, addend: 0x0, symName: __ZN4grpc15ServerInterface22RegisteredAsyncRequest12IssueRequestEPvPP16grpc_byte_bufferPNS_21ServerCompletionQueueE, symObjAddr: 0x674, symBinAddr: 0x21918, symSize: 0x80 }
  - { offset: 0x2E3ED4, size: 0x8, addend: 0x0, symName: __ZN4grpc15ServerInterface19GenericAsyncRequestC2EPS0_PNS_20GenericServerContextEPNS_8internal29ServerAsyncStreamingInterfaceEPNS_15CompletionQueueEPNS_21ServerCompletionQueueEPvbb, symObjAddr: 0x6F4, symBinAddr: 0x21998, symSize: 0xD0 }
  - { offset: 0x2E3F22, size: 0x8, addend: 0x0, symName: __ZN4grpc15ServerInterface22RegisteredAsyncRequest12IssueRequestEPvPP16grpc_byte_bufferPNS_21ServerCompletionQueueE.cold.1, symObjAddr: 0xEC04, symBinAddr: 0x30244, symSize: 0x28 }
  - { offset: 0x2E3F3F, size: 0x8, addend: 0x0, symName: __ZN4grpc15ServerInterface19GenericAsyncRequestC2EPS0_PNS_20GenericServerContextEPNS_8internal29ServerAsyncStreamingInterfaceEPNS_15CompletionQueueEPNS_21ServerCompletionQueueEPvbb, symObjAddr: 0x6F4, symBinAddr: 0x21998, symSize: 0xD0 }
  - { offset: 0x2E407D, size: 0x8, addend: 0x0, symName: __ZN4grpc15ServerInterface19GenericAsyncRequest12IssueRequestEv, symObjAddr: 0x7C4, symBinAddr: 0x21A68, symSize: 0x64 }
  - { offset: 0x2E4136, size: 0x8, addend: 0x0, symName: __ZN4grpc15ServerInterface19GenericAsyncRequestC1EPS0_PNS_20GenericServerContextEPNS_8internal29ServerAsyncStreamingInterfaceEPNS_15CompletionQueueEPNS_21ServerCompletionQueueEPvbb, symObjAddr: 0x828, symBinAddr: 0x21ACC, symSize: 0xC }
  - { offset: 0x2E417A, size: 0x8, addend: 0x0, symName: __ZN4grpc15ServerInterface19GenericAsyncRequest12IssueRequestEv.cold.1, symObjAddr: 0xEC2C, symBinAddr: 0x3026C, symSize: 0x28 }
  - { offset: 0x2E4192, size: 0x8, addend: 0x0, symName: __ZN4grpc15ServerInterface19GenericAsyncRequestC1EPS0_PNS_20GenericServerContextEPNS_8internal29ServerAsyncStreamingInterfaceEPNS_15CompletionQueueEPNS_21ServerCompletionQueueEPvbb, symObjAddr: 0x828, symBinAddr: 0x21ACC, symSize: 0xC }
  - { offset: 0x2E43FA, size: 0x8, addend: 0x0, symName: __ZN4grpc15ServerInterface19GenericAsyncRequest14FinalizeResultEPPvPb, symObjAddr: 0x834, symBinAddr: 0x21AD8, symSize: 0x23C }
  - { offset: 0x2E4AD4, size: 0x8, addend: 0x0, symName: __ZN4grpc12experimental13ServerRpcInfo20RegisterInterceptorsERKNSt3__16vectorINS2_10unique_ptrINS0_33ServerInterceptorFactoryInterfaceENS2_14default_deleteIS5_EEEENS2_9allocatorIS8_EEEE, symObjAddr: 0x55D8, symBinAddr: 0x24B5C, symSize: 0x17C }
  - { offset: 0x2E4AF4, size: 0x8, addend: 0x0, symName: __ZN4grpc17ServerContextBase19set_server_rpc_infoEPKcNS_8internal9RpcMethod7RpcTypeERKNSt3__16vectorINS6_10unique_ptrINS_12experimental33ServerInterceptorFactoryInterfaceENS6_14default_deleteISA_EEEENS6_9allocatorISD_EEEE, symObjAddr: 0xA70, symBinAddr: 0x21D14, symSize: 0x68 }
  - { offset: 0x2E4F0C, size: 0x8, addend: 0x0, symName: __ZN4grpc12experimental13ServerRpcInfo20RegisterInterceptorsERKNSt3__16vectorINS2_10unique_ptrINS0_33ServerInterceptorFactoryInterfaceENS2_14default_deleteIS5_EEEENS2_9allocatorIS8_EEEE, symObjAddr: 0x55D8, symBinAddr: 0x24B5C, symSize: 0x17C }
  - { offset: 0x2E5620, size: 0x8, addend: 0x0, symName: __ZN4grpc6Server15CallbackRequestINS_21CallbackServerContextEE14FinalizeResultEPPvPb, symObjAddr: 0xAD8, symBinAddr: 0x21D7C, symSize: 0x8 }
  - { offset: 0x2E5655, size: 0x8, addend: 0x0, symName: __ZN4grpc6Server15CallbackRequestINS_28GenericCallbackServerContextEE14FinalizeResultEPPvPb, symObjAddr: 0xAE0, symBinAddr: 0x21D84, symSize: 0x150 }
  - { offset: 0x2E59FC, size: 0x8, addend: 0x0, symName: __ZNK4grpc6Server15CallbackRequestINS_21CallbackServerContextEE11method_nameEv, symObjAddr: 0xC30, symBinAddr: 0x21ED4, symSize: 0xC }
  - { offset: 0x2E5A51, size: 0x8, addend: 0x0, symName: __ZNK4grpc6Server15CallbackRequestINS_28GenericCallbackServerContextEE11method_nameEv, symObjAddr: 0xC3C, symBinAddr: 0x21EE0, symSize: 0x1C }
  - { offset: 0x2E71DF, size: 0x8, addend: 0x0, symName: __ZN4grpc6ServerC2EPNS_16ChannelArgumentsENSt3__110shared_ptrINS3_6vectorINS3_10unique_ptrINS_21ServerCompletionQueueENS3_14default_deleteIS7_EEEENS3_9allocatorISA_EEEEEEiiiNS5_INS4_INS_8internal30ExternalConnectionAcceptorImplEEENSB_ISH_EEEEP26grpc_server_config_fetcherP19grpc_resource_quotaNS5_INS6_INS_12experimental33ServerInterceptorFactoryInterfaceENS8_ISP_EEEENSB_ISR_EEEEPNSO_20ServerMetricRecorderE, symObjAddr: 0xC58, symBinAddr: 0x21EFC, symSize: 0x680 }
  - { offset: 0x2E9026, size: 0x8, addend: 0x0, symName: __ZNSt3__110unique_ptrIN4grpc17ServerInitializerENS_14default_deleteIS2_EEE5resetB8ne180100EPS2_, symObjAddr: 0xC480, symBinAddr: 0x29070, symSize: 0x44 }
  - { offset: 0x2E915E, size: 0x8, addend: 0x0, symName: __ZNSt3__16vectorINS_12basic_stringIcNS_11char_traitsIcEENS_9allocatorIcEEEENS4_IS6_EEE16__destroy_vectorclB8ne180100Ev, symObjAddr: 0xC060, symBinAddr: 0x28F3C, symSize: 0x40 }
  - { offset: 0x2E99FE, size: 0x8, addend: 0x0, symName: __ZN4grpc6ServerC1EPNS_16ChannelArgumentsENSt3__110shared_ptrINS3_6vectorINS3_10unique_ptrINS_21ServerCompletionQueueENS3_14default_deleteIS7_EEEENS3_9allocatorISA_EEEEEEiiiNS5_INS4_INS_8internal30ExternalConnectionAcceptorImplEEENSB_ISH_EEEEP26grpc_server_config_fetcherP19grpc_resource_quotaNS5_INS6_INS_12experimental33ServerInterceptorFactoryInterfaceENS8_ISP_EEEENSB_ISR_EEEEPNSO_20ServerMetricRecorderE, symObjAddr: 0x1444, symBinAddr: 0x22630, symSize: 0x14 }
  - { offset: 0x2E9C77, size: 0x8, addend: 0x0, symName: __ZN4grpc6ServerD2Ev, symObjAddr: 0x1458, symBinAddr: 0x22644, symSize: 0x238 }
  - { offset: 0x2EA808, size: 0x8, addend: 0x0, symName: __ZN4grpc8internal19ReleasableMutexLock7ReleaseEv, symObjAddr: 0x1690, symBinAddr: 0x2287C, symSize: 0x34 }
  - { offset: 0x2EA85C, size: 0x8, addend: 0x0, symName: __ZN4grpc6ServerD1Ev, symObjAddr: 0x16C4, symBinAddr: 0x228B0, symSize: 0x4 }
  - { offset: 0x2EA892, size: 0x8, addend: 0x0, symName: __ZN4grpc8internal19ReleasableMutexLockD2Ev, symObjAddr: 0x659C, symBinAddr: 0x2595C, symSize: 0x34 }
  - { offset: 0x2EA91A, size: 0x8, addend: 0x0, symName: __ZN4grpc8internal19ReleasableMutexLock7ReleaseEv.cold.1, symObjAddr: 0xEC54, symBinAddr: 0x30294, symSize: 0x28 }
  - { offset: 0x2EA932, size: 0x8, addend: 0x0, symName: __ZN4grpc6ServerD1Ev, symObjAddr: 0x16C4, symBinAddr: 0x228B0, symSize: 0x4 }
  - { offset: 0x2EA955, size: 0x8, addend: 0x0, symName: __ZN4grpc6ServerD1Ev, symObjAddr: 0x16C4, symBinAddr: 0x228B0, symSize: 0x4 }
  - { offset: 0x2EA986, size: 0x8, addend: 0x0, symName: __ZThn8_N4grpc6ServerD1Ev, symObjAddr: 0x16C8, symBinAddr: 0x228B4, symSize: 0x8 }
  - { offset: 0x2EA9C8, size: 0x8, addend: 0x0, symName: __ZN4grpc6ServerD0Ev, symObjAddr: 0x16D0, symBinAddr: 0x228BC, symSize: 0x14 }
  - { offset: 0x2EAA39, size: 0x8, addend: 0x0, symName: __ZThn8_N4grpc6ServerD0Ev, symObjAddr: 0x16E4, symBinAddr: 0x228D0, symSize: 0x18 }
  - { offset: 0x2EAA98, size: 0x8, addend: 0x0, symName: __ZN4grpc6Server18SetGlobalCallbacksEPNS0_15GlobalCallbacksE, symObjAddr: 0x16FC, symBinAddr: 0x228E8, symSize: 0x44 }
  - { offset: 0x2EAB13, size: 0x8, addend: 0x0, symName: __ZNSt3__110shared_ptrIN4grpc6Server15GlobalCallbacksEE5resetB8ne180100IS3_vEEvPT_, symObjAddr: 0x1740, symBinAddr: 0x2292C, symSize: 0x70 }
  - { offset: 0x2EAB26, size: 0x8, addend: 0x0, symName: __ZNSt3__110shared_ptrIN4grpc6Server15GlobalCallbacksEE5resetB8ne180100IS3_vEEvPT_, symObjAddr: 0x1740, symBinAddr: 0x2292C, symSize: 0x70 }
  - { offset: 0x2EAC95, size: 0x8, addend: 0x0, symName: __ZN4grpc6Server18SetGlobalCallbacksEPNS0_15GlobalCallbacksE.cold.2, symObjAddr: 0xECA0, symBinAddr: 0x302E0, symSize: 0x28 }
  - { offset: 0x2EACAD, size: 0x8, addend: 0x0, symName: __ZN4grpc6Server18SetGlobalCallbacksEPNS0_15GlobalCallbacksE.cold.1, symObjAddr: 0xEC7C, symBinAddr: 0x302BC, symSize: 0x24 }
  - { offset: 0x2EACF6, size: 0x8, addend: 0x0, symName: __ZNSt3__110shared_ptrIN4grpc6Server15GlobalCallbacksEEC2B8ne180100IS3_vEEPT_, symObjAddr: 0xC634, symBinAddr: 0x290B4, symSize: 0x68 }
  - { offset: 0x2EAE46, size: 0x8, addend: 0x0, symName: __ZN4grpc6Server8c_serverEv, symObjAddr: 0x17B0, symBinAddr: 0x2299C, symSize: 0x8 }
  - { offset: 0x2EAFD6, size: 0x8, addend: 0x0, symName: __ZN4grpc6Server16InProcessChannelERKNS_16ChannelArgumentsE, symObjAddr: 0x17B8, symBinAddr: 0x229A4, symSize: 0xC8 }
  - { offset: 0x2EB719, size: 0x8, addend: 0x0, symName: __ZNSt3__16vectorINS_12basic_stringIcNS_11char_traitsIcEENS_9allocatorIcEEEENS4_IS6_EEE16__destroy_vectorclB8ne180100Ev, symObjAddr: 0xC060, symBinAddr: 0x28F3C, symSize: 0x40 }
  - { offset: 0x2EB8D0, size: 0x8, addend: 0x0, symName: __ZN4grpc6Server17experimental_type32InProcessChannelWithInterceptorsERKNS_16ChannelArgumentsENSt3__16vectorINS5_10unique_ptrINS_12experimental33ClientInterceptorFactoryInterfaceENS5_14default_deleteIS9_EEEENS5_9allocatorISC_EEEE, symObjAddr: 0x1880, symBinAddr: 0x22A6C, symSize: 0xE8 }
  - { offset: 0x2EC86D, size: 0x8, addend: 0x0, symName: __ZNSt3__118basic_stringstreamIcNS_11char_traitsIcEENS_9allocatorIcEEEC1B8ne180100ERKNS_12basic_stringIcS2_S4_EEj, symObjAddr: 0x2048, symBinAddr: 0x23160, symSize: 0xDC }
  - { offset: 0x2EC972, size: 0x8, addend: 0x0, symName: __ZNSt3__16vectorINS_12basic_stringIcNS_11char_traitsIcEENS_9allocatorIcEEEENS4_IS6_EEE21__push_back_slow_pathIRKS6_EEPS6_OT_, symObjAddr: 0xD30C, symBinAddr: 0x29D8C, symSize: 0x120 }
  - { offset: 0x2ED050, size: 0x8, addend: 0x0, symName: __ZNSt3__118basic_stringstreamIcNS_11char_traitsIcEENS_9allocatorIcEEED1Ev, symObjAddr: 0x22A8, symBinAddr: 0x233C0, symSize: 0x94 }
  - { offset: 0x2ED692, size: 0x8, addend: 0x0, symName: __ZNSt3__115basic_stringbufIcNS_11char_traitsIcEENS_9allocatorIcEEEC2B8ne180100ERKNS_12basic_stringIcS2_S4_EEj, symObjAddr: 0xD16C, symBinAddr: 0x29BEC, symSize: 0x90 }
  - { offset: 0x2ED9DD, size: 0x8, addend: 0x0, symName: __ZN4grpc6Server27RegisterAsyncGenericServiceEPNS_19AsyncGenericServiceE, symObjAddr: 0x233C, symBinAddr: 0x23454, symSize: 0x8C }
  - { offset: 0x2EE278, size: 0x8, addend: 0x0, symName: __ZNSt3__110__function12__value_funcIFPN4grpc17ServerBidiReactorINS2_10ByteBufferES4_EEPNS2_21CallbackServerContextEEEC2B8ne180100EOSA_, symObjAddr: 0x6F84, symBinAddr: 0x26344, symSize: 0x64 }
  - { offset: 0x2EE2C7, size: 0x8, addend: 0x0, symName: __ZN4grpc6Server16AddListeningPortERKNSt3__112basic_stringIcNS1_11char_traitsIcEENS1_9allocatorIcEEEEPNS_17ServerCredentialsE, symObjAddr: 0x2684, symBinAddr: 0x23724, symSize: 0x80 }
  - { offset: 0x2EE382, size: 0x8, addend: 0x0, symName: __ZN4grpc6Server3RefEv, symObjAddr: 0x2704, symBinAddr: 0x237A4, symSize: 0x18 }
  - { offset: 0x2EE395, size: 0x8, addend: 0x0, symName: __ZN4grpc6Server16AddListeningPortERKNSt3__112basic_stringIcNS1_11char_traitsIcEENS1_9allocatorIcEEEEPNS_17ServerCredentialsE.cold.1, symObjAddr: 0xECC8, symBinAddr: 0x30308, symSize: 0x24 }
  - { offset: 0x2EE3D9, size: 0x8, addend: 0x0, symName: __ZN4grpc6Server3RefEv, symObjAddr: 0x2704, symBinAddr: 0x237A4, symSize: 0x18 }
  - { offset: 0x2EE513, size: 0x8, addend: 0x0, symName: __ZN4grpc6Server23UnrefWithPossibleNotifyEv, symObjAddr: 0x271C, symBinAddr: 0x237BC, symSize: 0xB4 }
  - { offset: 0x2EE723, size: 0x8, addend: 0x0, symName: __ZN4grpc6Server18UnrefAndWaitLockedEv, symObjAddr: 0x27D0, symBinAddr: 0x23870, symSize: 0x7C }
  - { offset: 0x2EEF00, size: 0x8, addend: 0x0, symName: __ZN4grpc6Server5StartEPPNS_21ServerCompletionQueueEm, symObjAddr: 0x284C, symBinAddr: 0x238EC, symSize: 0x430 }
  - { offset: 0x2F019A, size: 0x8, addend: 0x0, symName: __ZNKSt3__114default_deleteIN4grpc25DefaultHealthCheckServiceEEclB8ne180100EPS2_, symObjAddr: 0xE1E0, symBinAddr: 0x2AC4C, symSize: 0x60 }
  - { offset: 0x2F039B, size: 0x8, addend: 0x0, symName: __ZN4grpc6Server25UnimplementedAsyncRequestC2EPNS_15ServerInterfaceEPNS_21ServerCompletionQueueE, symObjAddr: 0xB178, symBinAddr: 0x28290, symSize: 0xF0 }
  - { offset: 0x2F05E8, size: 0x8, addend: 0x0, symName: __ZN4grpc6Server5StartEPPNS_21ServerCompletionQueueEm.cold.1, symObjAddr: 0xECEC, symBinAddr: 0x3032C, symSize: 0x24 }
  - { offset: 0x2F0C96, size: 0x8, addend: 0x0, symName: __ZN4grpc6Server16ShutdownInternalE12gpr_timespec, symObjAddr: 0x2E50, symBinAddr: 0x23EF0, symSize: 0x27C }
  - { offset: 0x2F169F, size: 0x8, addend: 0x0, symName: __ZN4grpc15CompletionQueue16UnregisterServerEPKNS_6ServerE, symObjAddr: 0x30CC, symBinAddr: 0x2416C, symSize: 0x64 }
  - { offset: 0x2F18CB, size: 0x8, addend: 0x0, symName: __ZNSt3__14listIPKN4grpc6ServerENS_9allocatorIS4_EEE6removeERKS4_, symObjAddr: 0xBB7C, symBinAddr: 0x28C94, symSize: 0xCC }
  - { offset: 0x2F1BD1, size: 0x8, addend: 0x0, symName: __ZN4grpc12_GLOBAL__N_111ShutdownTagD1Ev, symObjAddr: 0x3130, symBinAddr: 0x241D0, symSize: 0x4 }
  - { offset: 0x2F1BFC, size: 0x8, addend: 0x0, symName: __ZN4grpc6Server4WaitEv, symObjAddr: 0x3138, symBinAddr: 0x241D4, symSize: 0x88 }
  - { offset: 0x2F1DA5, size: 0x8, addend: 0x0, symName: __ZN4grpc6Server16PerformOpsOnCallEPNS_8internal18CallOpSetInterfaceEPNS1_4CallE, symObjAddr: 0x31C0, symBinAddr: 0x2425C, symSize: 0x14 }
  - { offset: 0x2F1F39, size: 0x8, addend: 0x0, symName: __ZN4grpc6Server25UnimplementedAsyncRequest14FinalizeResultEPPvPb, symObjAddr: 0x31D4, symBinAddr: 0x24270, symSize: 0xC0 }
  - { offset: 0x2F2390, size: 0x8, addend: 0x0, symName: __ZN4grpc6Server26UnimplementedAsyncResponseC2EPNS0_25UnimplementedAsyncRequestE, symObjAddr: 0x32EC, symBinAddr: 0x24388, symSize: 0x1DC }
  - { offset: 0x2F2F92, size: 0x8, addend: 0x0, symName: __ZN4grpc23ServerAsyncReaderWriterINS_10ByteBufferES1_ED2Ev, symObjAddr: 0xBA00, symBinAddr: 0x28B18, symSize: 0x100 }
  - { offset: 0x2F3770, size: 0x8, addend: 0x0, symName: __ZN4grpc6Server26UnimplementedAsyncResponseC1EPNS0_25UnimplementedAsyncRequestE, symObjAddr: 0x3294, symBinAddr: 0x24330, symSize: 0x4 }
  - { offset: 0x2F379A, size: 0x8, addend: 0x0, symName: __ZN4grpc6Server26UnimplementedAsyncResponseC1EPNS0_25UnimplementedAsyncRequestE, symObjAddr: 0x3294, symBinAddr: 0x24330, symSize: 0x4 }
  - { offset: 0x2F37B6, size: 0x8, addend: 0x0, symName: __ZN4grpc6Server25UnimplementedAsyncRequestD1Ev, symObjAddr: 0x3298, symBinAddr: 0x24334, symSize: 0x54 }
  - { offset: 0x2F3C53, size: 0x8, addend: 0x0, symName: __ZN4grpc8internal18ErrorMethodHandlerILNS_10StatusCodeE12EE7FillOpsINS_6Server26UnimplementedAsyncResponseEEEvPNS_17ServerContextBaseERKNSt3__112basic_stringIcNS9_11char_traitsIcEENS9_9allocatorIcEEEEPT_, symObjAddr: 0x34C8, symBinAddr: 0x24564, symSize: 0xE4 }
  - { offset: 0x2F4301, size: 0x8, addend: 0x0, symName: __ZN4grpc8internal9CallOpSetINS0_25CallOpSendInitialMetadataENS0_22CallOpServerSendStatusENS0_8CallNoOpILi3EEENS4_ILi4EEENS4_ILi5EEENS4_ILi6EEEED2Ev, symObjAddr: 0x35EC, symBinAddr: 0x24648, symSize: 0x54 }
  - { offset: 0x2F4901, size: 0x8, addend: 0x0, symName: __ZN4grpc6Server11initializerEv, symObjAddr: 0x3640, symBinAddr: 0x2469C, symSize: 0x8 }
  - { offset: 0x2F492D, size: 0x8, addend: 0x0, symName: __ZN4grpc6Server11initializerEv, symObjAddr: 0x3640, symBinAddr: 0x2469C, symSize: 0x8 }
  - { offset: 0x2F49A1, size: 0x8, addend: 0x0, symName: __ZN4grpc6Server10CallbackCQEv, symObjAddr: 0x3648, symBinAddr: 0x246A4, symSize: 0xF0 }
  - { offset: 0x2F4C89, size: 0x8, addend: 0x0, symName: __ZN4grpc15ServerInterface19GenericAsyncRequestD1Ev, symObjAddr: 0x3738, symBinAddr: 0x24794, symSize: 0x4 }
  - { offset: 0x2F4CAB, size: 0x8, addend: 0x0, symName: __ZN4grpc15ServerInterface19GenericAsyncRequestD1Ev, symObjAddr: 0x3738, symBinAddr: 0x24794, symSize: 0x4 }
  - { offset: 0x2F4CC9, size: 0x8, addend: 0x0, symName: __ZN4grpc15ServerInterface19GenericAsyncRequestD1Ev, symObjAddr: 0x3738, symBinAddr: 0x24794, symSize: 0x4 }
  - { offset: 0x2F4CFA, size: 0x8, addend: 0x0, symName: __ZN4grpc15ServerInterface19GenericAsyncRequestD0Ev, symObjAddr: 0x373C, symBinAddr: 0x24798, symSize: 0x14 }
  - { offset: 0x2F4D77, size: 0x8, addend: 0x0, symName: __ZN4grpc6Server25UnimplementedAsyncRequestD0Ev, symObjAddr: 0x3750, symBinAddr: 0x247AC, symSize: 0x54 }
  - { offset: 0x2F5111, size: 0x8, addend: 0x0, symName: __ZNK4grpc6Server24max_receive_message_sizeEv, symObjAddr: 0x37A4, symBinAddr: 0x24800, symSize: 0x8 }
  - { offset: 0x2F5138, size: 0x8, addend: 0x0, symName: __ZN4grpc6Server6serverEv, symObjAddr: 0x37AC, symBinAddr: 0x24808, symSize: 0x8 }
  - { offset: 0x2F515F, size: 0x8, addend: 0x0, symName: __ZN4grpc6Server20interceptor_creatorsEv, symObjAddr: 0x37B4, symBinAddr: 0x24810, symSize: 0x8 }
  - { offset: 0x2F5186, size: 0x8, addend: 0x0, symName: __ZNK4grpc6Server29call_metric_recording_enabledEv, symObjAddr: 0x37BC, symBinAddr: 0x24818, symSize: 0x8 }
  - { offset: 0x2F51AD, size: 0x8, addend: 0x0, symName: __ZNK4grpc6Server22server_metric_recorderEv, symObjAddr: 0x37C4, symBinAddr: 0x24820, symSize: 0x8 }
  - { offset: 0x2F51F0, size: 0x8, addend: 0x0, symName: __ZN4grpc15ServerInterface22RegisteredAsyncRequestD1Ev, symObjAddr: 0x37CC, symBinAddr: 0x24828, symSize: 0x4 }
  - { offset: 0x2F5212, size: 0x8, addend: 0x0, symName: __ZN4grpc15ServerInterface22RegisteredAsyncRequestD1Ev, symObjAddr: 0x37CC, symBinAddr: 0x24828, symSize: 0x4 }
  - { offset: 0x2F522F, size: 0x8, addend: 0x0, symName: __ZN4grpc15ServerInterface22RegisteredAsyncRequestD1Ev, symObjAddr: 0x37CC, symBinAddr: 0x24828, symSize: 0x4 }
  - { offset: 0x2F525F, size: 0x8, addend: 0x0, symName: __ZN4grpc15ServerInterface22RegisteredAsyncRequestD0Ev, symObjAddr: 0x37D0, symBinAddr: 0x2482C, symSize: 0x14 }
  - { offset: 0x2F52D9, size: 0x8, addend: 0x0, symName: __ZN4grpc15ServerInterface22RegisteredAsyncRequest14FinalizeResultEPPvPb, symObjAddr: 0x37E4, symBinAddr: 0x24840, symSize: 0xB4 }
  - { offset: 0x2F5372, size: 0x8, addend: 0x0, symName: __ZN4grpc6Server26UnimplementedAsyncResponseD1Ev, symObjAddr: 0x3898, symBinAddr: 0x248F4, symSize: 0x4 }
  - { offset: 0x2F5395, size: 0x8, addend: 0x0, symName: __ZN4grpc6Server26UnimplementedAsyncResponseD1Ev, symObjAddr: 0x3898, symBinAddr: 0x248F4, symSize: 0x4 }
  - { offset: 0x2F53A9, size: 0x8, addend: 0x0, symName: __ZN4grpc6Server26UnimplementedAsyncResponseD2Ev, symObjAddr: 0xEA20, symBinAddr: 0x2B1A8, symSize: 0xA0 }
  - { offset: 0x2F5A34, size: 0x8, addend: 0x0, symName: __ZN4grpc6Server26UnimplementedAsyncResponseD0Ev, symObjAddr: 0x389C, symBinAddr: 0x248F8, symSize: 0x14 }
  - { offset: 0x2F5A91, size: 0x8, addend: 0x0, symName: __ZN4grpc6Server26UnimplementedAsyncResponse14FinalizeResultEPPvPb, symObjAddr: 0x38B0, symBinAddr: 0x2490C, symSize: 0x38 }
  - { offset: 0x2F5B32, size: 0x8, addend: 0x0, symName: __ZN4grpc8internal9CallOpSetINS0_25CallOpSendInitialMetadataENS0_22CallOpServerSendStatusENS0_8CallNoOpILi3EEENS4_ILi4EEENS4_ILi5EEENS4_ILi6EEEE14FinalizeResultEPPvPb, symObjAddr: 0xBDD8, symBinAddr: 0x28E2C, symSize: 0xDC }
  - { offset: 0x2F5CD4, size: 0x8, addend: 0x0, symName: __ZN4grpc8internal9CallOpSetINS0_25CallOpSendInitialMetadataENS0_22CallOpServerSendStatusENS0_8CallNoOpILi3EEENS4_ILi4EEENS4_ILi5EEENS4_ILi6EEEE7FillOpsEPNS0_4CallE, symObjAddr: 0x38E8, symBinAddr: 0x24944, symSize: 0x60 }
  - { offset: 0x2F5D66, size: 0x8, addend: 0x0, symName: __ZN4grpc8internal9CallOpSetINS0_25CallOpSendInitialMetadataENS0_22CallOpServerSendStatusENS0_8CallNoOpILi3EEENS4_ILi4EEENS4_ILi5EEENS4_ILi6EEEE15RunInterceptorsEv, symObjAddr: 0xEAC0, symBinAddr: 0x2B248, symSize: 0xB4 }
  - { offset: 0x2F5D8F, size: 0x8, addend: 0x0, symName: __ZN4grpc8internal9CallOpSetINS0_25CallOpSendInitialMetadataENS0_22CallOpServerSendStatusENS0_8CallNoOpILi3EEENS4_ILi4EEENS4_ILi5EEENS4_ILi6EEEE15RunInterceptorsEv, symObjAddr: 0xEAC0, symBinAddr: 0x2B248, symSize: 0xB4 }
  - { offset: 0x2F5FAE, size: 0x8, addend: 0x0, symName: __ZN4grpc8internal9CallOpSetINS0_25CallOpSendInitialMetadataENS0_22CallOpServerSendStatusENS0_8CallNoOpILi3EEENS4_ILi4EEENS4_ILi5EEENS4_ILi6EEEE11core_cq_tagEv, symObjAddr: 0x3948, symBinAddr: 0x249A4, symSize: 0x8 }
  - { offset: 0x2F6013, size: 0x8, addend: 0x0, symName: __ZN4grpc8internal9CallOpSetINS0_25CallOpSendInitialMetadataENS0_22CallOpServerSendStatusENS0_8CallNoOpILi3EEENS4_ILi4EEENS4_ILi5EEENS4_ILi6EEEE17SetHijackingStateEv, symObjAddr: 0x3950, symBinAddr: 0x249AC, symSize: 0x10 }
  - { offset: 0x2F644E, size: 0x8, addend: 0x0, symName: __ZN4grpc8internal9CallOpSetINS0_25CallOpSendInitialMetadataENS0_22CallOpServerSendStatusENS0_8CallNoOpILi3EEENS4_ILi4EEENS4_ILi5EEENS4_ILi6EEEE39ContinueFinalizeResultAfterInterceptionEv, symObjAddr: 0x3A94, symBinAddr: 0x24AF0, symSize: 0x5C }
  - { offset: 0x2F703F, size: 0x8, addend: 0x0, symName: '__ZZN4grpc15ServerInterface16BaseAsyncRequest39ContinueFinalizeResultAfterInterceptionEvEN3$_08__invokeEPvP18grpc_cq_completion', symObjAddr: 0x54B0, symBinAddr: 0x24B4C, symSize: 0x10 }
  - { offset: 0x2F706D, size: 0x8, addend: 0x0, symName: '__ZZN4grpc15ServerInterface16BaseAsyncRequest39ContinueFinalizeResultAfterInterceptionEvEN3$_08__invokeEPvP18grpc_cq_completion', symObjAddr: 0x54B0, symBinAddr: 0x24B4C, symSize: 0x10 }
  - { offset: 0x2F786A, size: 0x8, addend: 0x0, symName: __ZN4grpc15ServerInterfaceD1Ev, symObjAddr: 0x57FC, symBinAddr: 0x301A4, symSize: 0x4 }
  - { offset: 0x2F7893, size: 0x8, addend: 0x0, symName: __ZN4grpc15ServerInterfaceD0Ev, symObjAddr: 0x5800, symBinAddr: 0x301A8, symSize: 0x4 }
  - { offset: 0x2F78BC, size: 0x8, addend: 0x0, symName: __ZN4grpc15ServerInterface30RegisterCallbackGenericServiceEPNS_22CallbackGenericServiceE, symObjAddr: 0x5804, symBinAddr: 0x24CD8, symSize: 0x4 }
  - { offset: 0x2F78EB, size: 0x8, addend: 0x0, symName: __ZN4grpc15ServerInterface20interceptor_creatorsEv, symObjAddr: 0x5808, symBinAddr: 0x24CDC, symSize: 0x8 }
  - { offset: 0x2F7912, size: 0x8, addend: 0x0, symName: __ZN4grpc15ServerInterface10CallbackCQEv, symObjAddr: 0x5810, symBinAddr: 0x24CE4, symSize: 0x8 }
  - { offset: 0x2F7955, size: 0x8, addend: 0x0, symName: __ZNSt3__120__shared_ptr_pointerIPN4grpc12_GLOBAL__N_122DefaultGlobalCallbacksENS_10shared_ptrINS1_6Server15GlobalCallbacksEE27__shared_ptr_default_deleteIS7_S3_EENS_9allocatorIS3_EEED1Ev, symObjAddr: 0x5830, symBinAddr: 0x24CEC, symSize: 0x4 }
  - { offset: 0x2F7977, size: 0x8, addend: 0x0, symName: __ZNSt3__120__shared_ptr_pointerIPN4grpc12_GLOBAL__N_122DefaultGlobalCallbacksENS_10shared_ptrINS1_6Server15GlobalCallbacksEE27__shared_ptr_default_deleteIS7_S3_EENS_9allocatorIS3_EEED1Ev, symObjAddr: 0x5830, symBinAddr: 0x24CEC, symSize: 0x4 }
  - { offset: 0x2F79AD, size: 0x8, addend: 0x0, symName: __ZNSt3__120__shared_ptr_pointerIPN4grpc12_GLOBAL__N_122DefaultGlobalCallbacksENS_10shared_ptrINS1_6Server15GlobalCallbacksEE27__shared_ptr_default_deleteIS7_S3_EENS_9allocatorIS3_EEED0Ev, symObjAddr: 0x5834, symBinAddr: 0x24CF0, symSize: 0x14 }
  - { offset: 0x2F7A10, size: 0x8, addend: 0x0, symName: __ZNSt3__120__shared_ptr_pointerIPN4grpc12_GLOBAL__N_122DefaultGlobalCallbacksENS_10shared_ptrINS1_6Server15GlobalCallbacksEE27__shared_ptr_default_deleteIS7_S3_EENS_9allocatorIS3_EEE16__on_zero_sharedEv, symObjAddr: 0x5848, symBinAddr: 0x24D04, symSize: 0x10 }
  - { offset: 0x2F7A54, size: 0x8, addend: 0x0, symName: __ZNKSt3__120__shared_ptr_pointerIPN4grpc12_GLOBAL__N_122DefaultGlobalCallbacksENS_10shared_ptrINS1_6Server15GlobalCallbacksEE27__shared_ptr_default_deleteIS7_S3_EENS_9allocatorIS3_EEE13__get_deleterERKSt9type_info, symObjAddr: 0x5858, symBinAddr: 0x24D14, symSize: 0x3C }
  - { offset: 0x2F7B60, size: 0x8, addend: 0x0, symName: __ZNSt3__120__shared_ptr_pointerIPN4grpc12_GLOBAL__N_122DefaultGlobalCallbacksENS_10shared_ptrINS1_6Server15GlobalCallbacksEE27__shared_ptr_default_deleteIS7_S3_EENS_9allocatorIS3_EEE21__on_zero_shared_weakEv, symObjAddr: 0x5894, symBinAddr: 0x24D50, symSize: 0x4 }
  - { offset: 0x2F7B94, size: 0x8, addend: 0x0, symName: __ZNSt3__120__shared_ptr_pointerIPN4grpc12_GLOBAL__N_122DefaultGlobalCallbacksENS_10shared_ptrINS1_6Server15GlobalCallbacksEE27__shared_ptr_default_deleteIS7_S3_EENS_9allocatorIS3_EEE21__on_zero_shared_weakEv, symObjAddr: 0x5894, symBinAddr: 0x24D50, symSize: 0x4 }
  - { offset: 0x2F7BB6, size: 0x8, addend: 0x0, symName: __ZNSt3__120__shared_ptr_pointerIPN4grpc12_GLOBAL__N_122DefaultGlobalCallbacksENS_10shared_ptrINS1_6Server15GlobalCallbacksEE27__shared_ptr_default_deleteIS7_S3_EENS_9allocatorIS3_EEE21__on_zero_shared_weakEv, symObjAddr: 0x5894, symBinAddr: 0x24D50, symSize: 0x4 }
  - { offset: 0x2F7BE0, size: 0x8, addend: 0x0, symName: __ZNSt3__120__shared_ptr_pointerIPN4grpc12_GLOBAL__N_122DefaultGlobalCallbacksENS_10shared_ptrINS1_6Server15GlobalCallbacksEE27__shared_ptr_default_deleteIS7_S3_EENS_9allocatorIS3_EEE21__on_zero_shared_weakEv, symObjAddr: 0x5894, symBinAddr: 0x24D50, symSize: 0x4 }
  - { offset: 0x2F7C05, size: 0x8, addend: 0x0, symName: __ZNSt3__120__shared_ptr_pointerIPN4grpc12_GLOBAL__N_122DefaultGlobalCallbacksENS_10shared_ptrINS1_6Server15GlobalCallbacksEE27__shared_ptr_default_deleteIS7_S3_EENS_9allocatorIS3_EEE21__on_zero_shared_weakEv, symObjAddr: 0x5894, symBinAddr: 0x24D50, symSize: 0x4 }
  - { offset: 0x2F7C2F, size: 0x8, addend: 0x0, symName: __ZN4grpc12_GLOBAL__N_122DefaultGlobalCallbacksD1Ev, symObjAddr: 0x5898, symBinAddr: 0x24D54, symSize: 0x4 }
  - { offset: 0x2F7C89, size: 0x8, addend: 0x0, symName: __ZN4grpc12_GLOBAL__N_122DefaultGlobalCallbacksD0Ev, symObjAddr: 0x58E8, symBinAddr: 0x24D58, symSize: 0x4 }
  - { offset: 0x2F7CB2, size: 0x8, addend: 0x0, symName: __ZN4grpc6Server15GlobalCallbacks15UpdateArgumentsEPNS_16ChannelArgumentsE, symObjAddr: 0x58EC, symBinAddr: 0x24D5C, symSize: 0x4 }
  - { offset: 0x2F7CE1, size: 0x8, addend: 0x0, symName: __ZN4grpc12_GLOBAL__N_122DefaultGlobalCallbacks21PreSynchronousRequestEPNS_13ServerContextE, symObjAddr: 0x58F0, symBinAddr: 0x24D60, symSize: 0x4 }
  - { offset: 0x2F7D0C, size: 0x8, addend: 0x0, symName: __ZN4grpc12_GLOBAL__N_122DefaultGlobalCallbacks22PostSynchronousRequestEPNS_13ServerContextE, symObjAddr: 0x58F4, symBinAddr: 0x24D64, symSize: 0x4 }
  - { offset: 0x2F7D37, size: 0x8, addend: 0x0, symName: __ZN4grpc6Server15GlobalCallbacks14PreServerStartEPS0_, symObjAddr: 0x58F8, symBinAddr: 0x24D68, symSize: 0x4 }
  - { offset: 0x2F7D66, size: 0x8, addend: 0x0, symName: __ZN4grpc6Server15GlobalCallbacks7AddPortEPS0_RKNSt3__112basic_stringIcNS3_11char_traitsIcEENS3_9allocatorIcEEEEPNS_17ServerCredentialsEi, symObjAddr: 0x58FC, symBinAddr: 0x24D6C, symSize: 0x4 }
  - { offset: 0x2F7E04, size: 0x8, addend: 0x0, symName: __ZN4grpc6Server24SyncRequestThreadManagerD1Ev, symObjAddr: 0x5900, symBinAddr: 0x24D70, symSize: 0x44 }
  - { offset: 0x2F7EE3, size: 0x8, addend: 0x0, symName: __ZN4grpc6Server24SyncRequestThreadManagerD0Ev, symObjAddr: 0x5944, symBinAddr: 0x24DB4, symSize: 0x48 }
  - { offset: 0x2F7FCC, size: 0x8, addend: 0x0, symName: __ZN4grpc6Server24SyncRequestThreadManager11PollForWorkEPPvPb, symObjAddr: 0x598C, symBinAddr: 0x24DFC, symSize: 0xAC }
  - { offset: 0x2F8095, size: 0x8, addend: 0x0, symName: __ZN4grpc6Server24SyncRequestThreadManager6DoWorkEPvbb, symObjAddr: 0x5A38, symBinAddr: 0x24EA8, symSize: 0x48 }
  - { offset: 0x2F80F5, size: 0x8, addend: 0x0, symName: __ZN4grpc6Server24SyncRequestThreadManager6DoWorkEPvbb, symObjAddr: 0x5A38, symBinAddr: 0x24EA8, symSize: 0x48 }
  - { offset: 0x2F81B7, size: 0x8, addend: 0x0, symName: __ZN4grpc6Server24SyncRequestThreadManager8ShutdownEv, symObjAddr: 0x5A80, symBinAddr: 0x24EF0, symSize: 0x24 }
  - { offset: 0x2F81CA, size: 0x8, addend: 0x0, symName: __ZN4grpc6Server24SyncRequestThreadManager6DoWorkEPvbb.cold.1, symObjAddr: 0xEFC4, symBinAddr: 0x30350, symSize: 0x48 }
  - { offset: 0x2F8260, size: 0x8, addend: 0x0, symName: __ZN4grpc6Server24SyncRequestThreadManager6DoWorkEPvbb.cold.2, symObjAddr: 0xF00C, symBinAddr: 0x30398, symSize: 0x28 }
  - { offset: 0x2F8278, size: 0x8, addend: 0x0, symName: __ZN4grpc6Server24SyncRequestThreadManager8ShutdownEv, symObjAddr: 0x5A80, symBinAddr: 0x24EF0, symSize: 0x24 }
  - { offset: 0x2F829F, size: 0x8, addend: 0x0, symName: __ZN4grpc6Server24SyncRequestThreadManager4WaitEv, symObjAddr: 0x5AA4, symBinAddr: 0x24F14, symSize: 0x60 }
  - { offset: 0x2F833A, size: 0x8, addend: 0x0, symName: __ZN4grpc6Server11SyncRequest7CleanupEv, symObjAddr: 0x6568, symBinAddr: 0x25928, symSize: 0x34 }
  - { offset: 0x2F888F, size: 0x8, addend: 0x0, symName: __ZN4grpc6Server11SyncRequest28ContinueRunAfterInterceptionEv, symObjAddr: 0x5E14, symBinAddr: 0x25238, symSize: 0x330 }
  - { offset: 0x2F95D8, size: 0x8, addend: 0x0, symName: __ZN4grpc8internal13MethodHandler16HandlerParameterC2EPNS0_4CallEPNS_17ServerContextBaseEPvNS_6StatusES7_NSt3__18functionIFvvEEE, symObjAddr: 0x631C, symBinAddr: 0x25740, symSize: 0xD4 }
  - { offset: 0x2F992E, size: 0x8, addend: 0x0, symName: __ZN4grpc8internal13MethodHandler16HandlerParameterD2Ev, symObjAddr: 0x6454, symBinAddr: 0x25814, symSize: 0x70 }
  - { offset: 0x2F9C7C, size: 0x8, addend: 0x0, symName: __ZN4grpc15CompletionQueue8TryPluckEPNS_8internal18CompletionQueueTagE12gpr_timespec, symObjAddr: 0x6204, symBinAddr: 0x25628, symSize: 0x70 }
  - { offset: 0x2F9D44, size: 0x8, addend: 0x0, symName: __ZN4grpc15CompletionQueue5PluckEPNS_8internal18CompletionQueueTagE, symObjAddr: 0x6274, symBinAddr: 0x25698, symSize: 0xA0 }
  - { offset: 0x2F9D57, size: 0x8, addend: 0x0, symName: __ZN4grpc15CompletionQueue5PluckEPNS_8internal18CompletionQueueTagE, symObjAddr: 0x6274, symBinAddr: 0x25698, symSize: 0xA0 }
  - { offset: 0x2F9E38, size: 0x8, addend: 0x0, symName: __ZN4grpc6Server11SyncRequestD1Ev, symObjAddr: 0x6314, symBinAddr: 0x25738, symSize: 0x4 }
  - { offset: 0x2F9E4B, size: 0x8, addend: 0x0, symName: __ZN4grpc6Server11SyncRequestD2Ev, symObjAddr: 0x64D0, symBinAddr: 0x25890, symSize: 0x98 }
  - { offset: 0x2FA1FA, size: 0x8, addend: 0x0, symName: __ZN4grpc13ServerContextD1Ev, symObjAddr: 0x6144, symBinAddr: 0x25568, symSize: 0x4 }
  - { offset: 0x2FA21C, size: 0x8, addend: 0x0, symName: __ZN4grpc13ServerContextD1Ev, symObjAddr: 0x6144, symBinAddr: 0x25568, symSize: 0x4 }
  - { offset: 0x2FA237, size: 0x8, addend: 0x0, symName: __ZN4grpc13ServerContextD0Ev, symObjAddr: 0x6148, symBinAddr: 0x2556C, symSize: 0x14 }
  - { offset: 0x2FA29D, size: 0x8, addend: 0x0, symName: __ZNSt3__110__function6__funcIZN4grpc6Server11SyncRequest3RunERKNS_10shared_ptrINS3_15GlobalCallbacksEEEbEUlvE0_NS_9allocatorISA_EEFvvEED1Ev, symObjAddr: 0x615C, symBinAddr: 0x25580, symSize: 0x4 }
  - { offset: 0x2FA2C8, size: 0x8, addend: 0x0, symName: __ZNSt3__110__function6__funcIZN4grpc6Server11SyncRequest3RunERKNS_10shared_ptrINS3_15GlobalCallbacksEEEbEUlvE0_NS_9allocatorISA_EEFvvEED0Ev, symObjAddr: 0x6160, symBinAddr: 0x25584, symSize: 0x4 }
  - { offset: 0x2FA4CB, size: 0x8, addend: 0x0, symName: __ZNKSt3__110__function6__funcIZN4grpc6Server11SyncRequest3RunERKNS_10shared_ptrINS3_15GlobalCallbacksEEEbEUlvE0_NS_9allocatorISA_EEFvvEE7__cloneEv, symObjAddr: 0x6164, symBinAddr: 0x25588, symSize: 0x34 }
  - { offset: 0x2FA7C6, size: 0x8, addend: 0x0, symName: __ZNKSt3__110__function6__funcIZN4grpc6Server11SyncRequest3RunERKNS_10shared_ptrINS3_15GlobalCallbacksEEEbEUlvE0_NS_9allocatorISA_EEFvvEE7__cloneEPNS0_6__baseISD_EE, symObjAddr: 0x6198, symBinAddr: 0x255BC, symSize: 0x14 }
  - { offset: 0x2FA7FE, size: 0x8, addend: 0x0, symName: __ZNKSt3__110__function6__funcIZN4grpc6Server11SyncRequest3RunERKNS_10shared_ptrINS3_15GlobalCallbacksEEEbEUlvE0_NS_9allocatorISA_EEFvvEE7__cloneEPNS0_6__baseISD_EE, symObjAddr: 0x6198, symBinAddr: 0x255BC, symSize: 0x14 }
  - { offset: 0x2FA82C, size: 0x8, addend: 0x0, symName: __ZNKSt3__110__function6__funcIZN4grpc6Server11SyncRequest3RunERKNS_10shared_ptrINS3_15GlobalCallbacksEEEbEUlvE0_NS_9allocatorISA_EEFvvEE7__cloneEPNS0_6__baseISD_EE, symObjAddr: 0x6198, symBinAddr: 0x255BC, symSize: 0x14 }
  - { offset: 0x2FA85A, size: 0x8, addend: 0x0, symName: __ZNKSt3__110__function6__funcIZN4grpc6Server11SyncRequest3RunERKNS_10shared_ptrINS3_15GlobalCallbacksEEEbEUlvE0_NS_9allocatorISA_EEFvvEE7__cloneEPNS0_6__baseISD_EE, symObjAddr: 0x6198, symBinAddr: 0x255BC, symSize: 0x14 }
  - { offset: 0x2FA86F, size: 0x8, addend: 0x0, symName: __ZNKSt3__110__function6__funcIZN4grpc6Server11SyncRequest3RunERKNS_10shared_ptrINS3_15GlobalCallbacksEEEbEUlvE0_NS_9allocatorISA_EEFvvEE7__cloneEPNS0_6__baseISD_EE, symObjAddr: 0x6198, symBinAddr: 0x255BC, symSize: 0x14 }
  - { offset: 0x2FA883, size: 0x8, addend: 0x0, symName: __ZNKSt3__110__function6__funcIZN4grpc6Server11SyncRequest3RunERKNS_10shared_ptrINS3_15GlobalCallbacksEEEbEUlvE0_NS_9allocatorISA_EEFvvEE7__cloneEPNS0_6__baseISD_EE, symObjAddr: 0x6198, symBinAddr: 0x255BC, symSize: 0x14 }
  - { offset: 0x2FA897, size: 0x8, addend: 0x0, symName: __ZNKSt3__110__function6__funcIZN4grpc6Server11SyncRequest3RunERKNS_10shared_ptrINS3_15GlobalCallbacksEEEbEUlvE0_NS_9allocatorISA_EEFvvEE7__cloneEPNS0_6__baseISD_EE, symObjAddr: 0x6198, symBinAddr: 0x255BC, symSize: 0x14 }
  - { offset: 0x2FA8AC, size: 0x8, addend: 0x0, symName: __ZNKSt3__110__function6__funcIZN4grpc6Server11SyncRequest3RunERKNS_10shared_ptrINS3_15GlobalCallbacksEEEbEUlvE0_NS_9allocatorISA_EEFvvEE7__cloneEPNS0_6__baseISD_EE, symObjAddr: 0x6198, symBinAddr: 0x255BC, symSize: 0x14 }
  - { offset: 0x2FA8C4, size: 0x8, addend: 0x0, symName: __ZNSt3__110__function6__funcIZN4grpc6Server11SyncRequest3RunERKNS_10shared_ptrINS3_15GlobalCallbacksEEEbEUlvE0_NS_9allocatorISA_EEFvvEE7destroyEv, symObjAddr: 0x61AC, symBinAddr: 0x255D0, symSize: 0x4 }
  - { offset: 0x2FA917, size: 0x8, addend: 0x0, symName: __ZNSt3__110__function6__funcIZN4grpc6Server11SyncRequest3RunERKNS_10shared_ptrINS3_15GlobalCallbacksEEEbEUlvE0_NS_9allocatorISA_EEFvvEE18destroy_deallocateEv, symObjAddr: 0x61B0, symBinAddr: 0x255D4, symSize: 0x4 }
  - { offset: 0x2FA94D, size: 0x8, addend: 0x0, symName: __ZNSt3__110__function6__funcIZN4grpc6Server11SyncRequest3RunERKNS_10shared_ptrINS3_15GlobalCallbacksEEEbEUlvE0_NS_9allocatorISA_EEFvvEE18destroy_deallocateEv, symObjAddr: 0x61B0, symBinAddr: 0x255D4, symSize: 0x4 }
  - { offset: 0x2FA970, size: 0x8, addend: 0x0, symName: __ZNSt3__110__function6__funcIZN4grpc6Server11SyncRequest3RunERKNS_10shared_ptrINS3_15GlobalCallbacksEEEbEUlvE0_NS_9allocatorISA_EEFvvEE18destroy_deallocateEv, symObjAddr: 0x61B0, symBinAddr: 0x255D4, symSize: 0x4 }
  - { offset: 0x2FA99D, size: 0x8, addend: 0x0, symName: __ZNSt3__110__function6__funcIZN4grpc6Server11SyncRequest3RunERKNS_10shared_ptrINS3_15GlobalCallbacksEEEbEUlvE0_NS_9allocatorISA_EEFvvEE18destroy_deallocateEv, symObjAddr: 0x61B0, symBinAddr: 0x255D4, symSize: 0x4 }
  - { offset: 0x2FA9C5, size: 0x8, addend: 0x0, symName: __ZNSt3__110__function6__funcIZN4grpc6Server11SyncRequest3RunERKNS_10shared_ptrINS3_15GlobalCallbacksEEEbEUlvE0_NS_9allocatorISA_EEFvvEE18destroy_deallocateEv, symObjAddr: 0x61B0, symBinAddr: 0x255D4, symSize: 0x4 }
  - { offset: 0x2FAA46, size: 0x8, addend: 0x0, symName: __ZNSt3__110__function6__funcIZN4grpc6Server11SyncRequest3RunERKNS_10shared_ptrINS3_15GlobalCallbacksEEEbEUlvE0_NS_9allocatorISA_EEFvvEEclEv, symObjAddr: 0x61B4, symBinAddr: 0x255D8, symSize: 0x8 }
  - { offset: 0x2FAAD7, size: 0x8, addend: 0x0, symName: __ZNKSt3__110__function6__funcIZN4grpc6Server11SyncRequest3RunERKNS_10shared_ptrINS3_15GlobalCallbacksEEEbEUlvE0_NS_9allocatorISA_EEFvvEE6targetERKSt9type_info, symObjAddr: 0x61BC, symBinAddr: 0x255E0, symSize: 0x3C }
  - { offset: 0x2FAB27, size: 0x8, addend: 0x0, symName: __ZNKSt3__110__function6__funcIZN4grpc6Server11SyncRequest3RunERKNS_10shared_ptrINS3_15GlobalCallbacksEEEbEUlvE0_NS_9allocatorISA_EEFvvEE11target_typeEv, symObjAddr: 0x61F8, symBinAddr: 0x2561C, symSize: 0xC }
  - { offset: 0x2FAB71, size: 0x8, addend: 0x0, symName: __ZN4grpc15CompletionQueue8TryPluckEPNS_8internal18CompletionQueueTagE12gpr_timespec.cold.1, symObjAddr: 0xF034, symBinAddr: 0x303C0, symSize: 0x28 }
  - { offset: 0x2FAB89, size: 0x8, addend: 0x0, symName: __ZN4grpc15CompletionQueue5PluckEPNS_8internal18CompletionQueueTagE.cold.1, symObjAddr: 0xF05C, symBinAddr: 0x303E8, symSize: 0x28 }
  - { offset: 0x2FABA1, size: 0x8, addend: 0x0, symName: __ZN4grpc6Server11SyncRequestD1Ev, symObjAddr: 0x6314, symBinAddr: 0x25738, symSize: 0x4 }
  - { offset: 0x2FABC4, size: 0x8, addend: 0x0, symName: __ZN4grpc6Server11SyncRequestD1Ev, symObjAddr: 0x6314, symBinAddr: 0x25738, symSize: 0x4 }
  - { offset: 0x2FABD8, size: 0x8, addend: 0x0, symName: __ZN4grpc12_GLOBAL__N_18PhonyTagD1Ev, symObjAddr: 0x6318, symBinAddr: 0x2573C, symSize: 0x4 }
  - { offset: 0x2FACB0, size: 0x8, addend: 0x0, symName: __ZN4grpc12_GLOBAL__N_18PhonyTagD0Ev, symObjAddr: 0x64C4, symBinAddr: 0x25884, symSize: 0x4 }
  - { offset: 0x2FACDB, size: 0x8, addend: 0x0, symName: __ZN4grpc12_GLOBAL__N_18PhonyTag14FinalizeResultEPPvPb, symObjAddr: 0x64C8, symBinAddr: 0x25888, symSize: 0x8 }
  - { offset: 0x2FAD45, size: 0x8, addend: 0x0, symName: __ZNSt3__110__function6__funcIZN4grpc6Server24SyncRequestThreadManager13AddSyncMethodEPNS2_8internal16RpcServiceMethodEPvEUlvE_NS_9allocatorIS9_EEFN9grpc_core6Server24RegisteredCallAllocationEvEED1Ev, symObjAddr: 0x65D0, symBinAddr: 0x25990, symSize: 0x4 }
  - { offset: 0x2FAD70, size: 0x8, addend: 0x0, symName: __ZNSt3__110__function6__funcIZN4grpc6Server24SyncRequestThreadManager13AddSyncMethodEPNS2_8internal16RpcServiceMethodEPvEUlvE_NS_9allocatorIS9_EEFN9grpc_core6Server24RegisteredCallAllocationEvEED0Ev, symObjAddr: 0x65D4, symBinAddr: 0x25994, symSize: 0x4 }
  - { offset: 0x2FAF73, size: 0x8, addend: 0x0, symName: __ZNKSt3__110__function6__funcIZN4grpc6Server24SyncRequestThreadManager13AddSyncMethodEPNS2_8internal16RpcServiceMethodEPvEUlvE_NS_9allocatorIS9_EEFN9grpc_core6Server24RegisteredCallAllocationEvEE7__cloneEv, symObjAddr: 0x65D8, symBinAddr: 0x25998, symSize: 0x38 }
  - { offset: 0x2FB29B, size: 0x8, addend: 0x0, symName: __ZNKSt3__110__function6__funcIZN4grpc6Server24SyncRequestThreadManager13AddSyncMethodEPNS2_8internal16RpcServiceMethodEPvEUlvE_NS_9allocatorIS9_EEFN9grpc_core6Server24RegisteredCallAllocationEvEE7__cloneEPNS0_6__baseISF_EE, symObjAddr: 0x6610, symBinAddr: 0x259D0, symSize: 0x18 }
  - { offset: 0x2FB2D3, size: 0x8, addend: 0x0, symName: __ZNKSt3__110__function6__funcIZN4grpc6Server24SyncRequestThreadManager13AddSyncMethodEPNS2_8internal16RpcServiceMethodEPvEUlvE_NS_9allocatorIS9_EEFN9grpc_core6Server24RegisteredCallAllocationEvEE7__cloneEPNS0_6__baseISF_EE, symObjAddr: 0x6610, symBinAddr: 0x259D0, symSize: 0x18 }
  - { offset: 0x2FB301, size: 0x8, addend: 0x0, symName: __ZNKSt3__110__function6__funcIZN4grpc6Server24SyncRequestThreadManager13AddSyncMethodEPNS2_8internal16RpcServiceMethodEPvEUlvE_NS_9allocatorIS9_EEFN9grpc_core6Server24RegisteredCallAllocationEvEE7__cloneEPNS0_6__baseISF_EE, symObjAddr: 0x6610, symBinAddr: 0x259D0, symSize: 0x18 }
  - { offset: 0x2FB417, size: 0x8, addend: 0x0, symName: __ZNSt3__110__function6__funcIZN4grpc6Server24SyncRequestThreadManager13AddSyncMethodEPNS2_8internal16RpcServiceMethodEPvEUlvE_NS_9allocatorIS9_EEFN9grpc_core6Server24RegisteredCallAllocationEvEE7destroyEv, symObjAddr: 0x6628, symBinAddr: 0x259E8, symSize: 0x4 }
  - { offset: 0x2FB46A, size: 0x8, addend: 0x0, symName: __ZNSt3__110__function6__funcIZN4grpc6Server24SyncRequestThreadManager13AddSyncMethodEPNS2_8internal16RpcServiceMethodEPvEUlvE_NS_9allocatorIS9_EEFN9grpc_core6Server24RegisteredCallAllocationEvEE18destroy_deallocateEv, symObjAddr: 0x662C, symBinAddr: 0x259EC, symSize: 0x4 }
  - { offset: 0x2FB4A0, size: 0x8, addend: 0x0, symName: __ZNSt3__110__function6__funcIZN4grpc6Server24SyncRequestThreadManager13AddSyncMethodEPNS2_8internal16RpcServiceMethodEPvEUlvE_NS_9allocatorIS9_EEFN9grpc_core6Server24RegisteredCallAllocationEvEE18destroy_deallocateEv, symObjAddr: 0x662C, symBinAddr: 0x259EC, symSize: 0x4 }
  - { offset: 0x2FB4C3, size: 0x8, addend: 0x0, symName: __ZNSt3__110__function6__funcIZN4grpc6Server24SyncRequestThreadManager13AddSyncMethodEPNS2_8internal16RpcServiceMethodEPvEUlvE_NS_9allocatorIS9_EEFN9grpc_core6Server24RegisteredCallAllocationEvEE18destroy_deallocateEv, symObjAddr: 0x662C, symBinAddr: 0x259EC, symSize: 0x4 }
  - { offset: 0x2FB4F0, size: 0x8, addend: 0x0, symName: __ZNSt3__110__function6__funcIZN4grpc6Server24SyncRequestThreadManager13AddSyncMethodEPNS2_8internal16RpcServiceMethodEPvEUlvE_NS_9allocatorIS9_EEFN9grpc_core6Server24RegisteredCallAllocationEvEE18destroy_deallocateEv, symObjAddr: 0x662C, symBinAddr: 0x259EC, symSize: 0x4 }
  - { offset: 0x2FB518, size: 0x8, addend: 0x0, symName: __ZNSt3__110__function6__funcIZN4grpc6Server24SyncRequestThreadManager13AddSyncMethodEPNS2_8internal16RpcServiceMethodEPvEUlvE_NS_9allocatorIS9_EEFN9grpc_core6Server24RegisteredCallAllocationEvEE18destroy_deallocateEv, symObjAddr: 0x662C, symBinAddr: 0x259EC, symSize: 0x4 }
  - { offset: 0x2FB559, size: 0x8, addend: 0x0, symName: __ZNSt3__110__function6__funcIZN4grpc6Server24SyncRequestThreadManager13AddSyncMethodEPNS2_8internal16RpcServiceMethodEPvEUlvE_NS_9allocatorIS9_EEFN9grpc_core6Server24RegisteredCallAllocationEvEEclEv, symObjAddr: 0x6630, symBinAddr: 0x259F0, symSize: 0x8 }
  - { offset: 0x2FB5B6, size: 0x8, addend: 0x0, symName: __ZNSt3__128__invoke_void_return_wrapperIN9grpc_core6Server24RegisteredCallAllocationELb0EE6__callB8ne180100IJRZN4grpc6Server24SyncRequestThreadManager13AddSyncMethodEPNS6_8internal16RpcServiceMethodEPvEUlvE_EEES3_DpOT_, symObjAddr: 0x6680, symBinAddr: 0x25A40, symSize: 0x5C }
  - { offset: 0x2FB63A, size: 0x8, addend: 0x0, symName: __ZNKSt3__110__function6__funcIZN4grpc6Server24SyncRequestThreadManager13AddSyncMethodEPNS2_8internal16RpcServiceMethodEPvEUlvE_NS_9allocatorIS9_EEFN9grpc_core6Server24RegisteredCallAllocationEvEE6targetERKSt9type_info, symObjAddr: 0x6638, symBinAddr: 0x259F8, symSize: 0x3C }
  - { offset: 0x2FB68A, size: 0x8, addend: 0x0, symName: __ZNKSt3__110__function6__funcIZN4grpc6Server24SyncRequestThreadManager13AddSyncMethodEPNS2_8internal16RpcServiceMethodEPvEUlvE_NS_9allocatorIS9_EEFN9grpc_core6Server24RegisteredCallAllocationEvEE11target_typeEv, symObjAddr: 0x6674, symBinAddr: 0x25A34, symSize: 0xC }
  - { offset: 0x2FB6DF, size: 0x8, addend: 0x0, symName: __ZN4grpc6Server11SyncRequestC1EPS0_PNS_8internal16RpcServiceMethodEPN9grpc_core6Server24RegisteredCallAllocationE, symObjAddr: 0x66DC, symBinAddr: 0x25A9C, symSize: 0x90 }
  - { offset: 0x2FB8EA, size: 0x8, addend: 0x0, symName: __ZN4grpc6Server11SyncRequestC2EPS0_PNS_8internal16RpcServiceMethodE, symObjAddr: 0x676C, symBinAddr: 0x25B2C, symSize: 0xB8 }
  - { offset: 0x2FBBC1, size: 0x8, addend: 0x0, symName: __ZN4grpc6Server11SyncRequestD0Ev, symObjAddr: 0x6824, symBinAddr: 0x25BE4, symSize: 0x14 }
  - { offset: 0x2FBC1E, size: 0x8, addend: 0x0, symName: __ZN4grpc6Server11SyncRequest14FinalizeResultEPPvPb, symObjAddr: 0x6838, symBinAddr: 0x25BF8, symSize: 0x48 }
  - { offset: 0x2FBC8D, size: 0x8, addend: 0x0, symName: __ZThn16_NSt3__118basic_stringstreamIcNS_11char_traitsIcEENS_9allocatorIcEEED1Ev, symObjAddr: 0x6880, symBinAddr: 0x25C40, symSize: 0x8C }
  - { offset: 0x2FBE42, size: 0x8, addend: 0x0, symName: __ZTv0_n24_NSt3__118basic_stringstreamIcNS_11char_traitsIcEENS_9allocatorIcEEED1Ev, symObjAddr: 0x690C, symBinAddr: 0x25CCC, symSize: 0x94 }
  - { offset: 0x2FBFF5, size: 0x8, addend: 0x0, symName: __ZNSt3__118basic_stringstreamIcNS_11char_traitsIcEENS_9allocatorIcEEED0Ev, symObjAddr: 0x69A0, symBinAddr: 0x25D60, symSize: 0x94 }
  - { offset: 0x2FC1CE, size: 0x8, addend: 0x0, symName: __ZThn16_NSt3__118basic_stringstreamIcNS_11char_traitsIcEENS_9allocatorIcEEED0Ev, symObjAddr: 0x6A34, symBinAddr: 0x25DF4, symSize: 0x94 }
  - { offset: 0x2FC3A3, size: 0x8, addend: 0x0, symName: __ZTv0_n24_NSt3__118basic_stringstreamIcNS_11char_traitsIcEENS_9allocatorIcEEED0Ev, symObjAddr: 0x6AC8, symBinAddr: 0x25E88, symSize: 0x9C }
  - { offset: 0x2FC574, size: 0x8, addend: 0x0, symName: __ZNSt3__110__function6__funcIZN4grpc22CallbackGenericService7HandlerEvEUlPNS2_21CallbackServerContextEE_NS_9allocatorIS6_EEFPNS2_17ServerBidiReactorINS2_10ByteBufferESA_EES5_EED1Ev, symObjAddr: 0x6B64, symBinAddr: 0x25F24, symSize: 0x4 }
  - { offset: 0x2FC59F, size: 0x8, addend: 0x0, symName: __ZNSt3__110__function6__funcIZN4grpc22CallbackGenericService7HandlerEvEUlPNS2_21CallbackServerContextEE_NS_9allocatorIS6_EEFPNS2_17ServerBidiReactorINS2_10ByteBufferESA_EES5_EED0Ev, symObjAddr: 0x6B68, symBinAddr: 0x25F28, symSize: 0x4 }
  - { offset: 0x2FC7A2, size: 0x8, addend: 0x0, symName: __ZNKSt3__110__function6__funcIZN4grpc22CallbackGenericService7HandlerEvEUlPNS2_21CallbackServerContextEE_NS_9allocatorIS6_EEFPNS2_17ServerBidiReactorINS2_10ByteBufferESA_EES5_EE7__cloneEv, symObjAddr: 0x6B6C, symBinAddr: 0x25F2C, symSize: 0x34 }
  - { offset: 0x2FCA9D, size: 0x8, addend: 0x0, symName: __ZNKSt3__110__function6__funcIZN4grpc22CallbackGenericService7HandlerEvEUlPNS2_21CallbackServerContextEE_NS_9allocatorIS6_EEFPNS2_17ServerBidiReactorINS2_10ByteBufferESA_EES5_EE7__cloneEPNS0_6__baseISD_EE, symObjAddr: 0x6BA0, symBinAddr: 0x25F60, symSize: 0x14 }
  - { offset: 0x2FCAD5, size: 0x8, addend: 0x0, symName: __ZNKSt3__110__function6__funcIZN4grpc22CallbackGenericService7HandlerEvEUlPNS2_21CallbackServerContextEE_NS_9allocatorIS6_EEFPNS2_17ServerBidiReactorINS2_10ByteBufferESA_EES5_EE7__cloneEPNS0_6__baseISD_EE, symObjAddr: 0x6BA0, symBinAddr: 0x25F60, symSize: 0x14 }
  - { offset: 0x2FCB03, size: 0x8, addend: 0x0, symName: __ZNKSt3__110__function6__funcIZN4grpc22CallbackGenericService7HandlerEvEUlPNS2_21CallbackServerContextEE_NS_9allocatorIS6_EEFPNS2_17ServerBidiReactorINS2_10ByteBufferESA_EES5_EE7__cloneEPNS0_6__baseISD_EE, symObjAddr: 0x6BA0, symBinAddr: 0x25F60, symSize: 0x14 }
  - { offset: 0x2FCB31, size: 0x8, addend: 0x0, symName: __ZNKSt3__110__function6__funcIZN4grpc22CallbackGenericService7HandlerEvEUlPNS2_21CallbackServerContextEE_NS_9allocatorIS6_EEFPNS2_17ServerBidiReactorINS2_10ByteBufferESA_EES5_EE7__cloneEPNS0_6__baseISD_EE, symObjAddr: 0x6BA0, symBinAddr: 0x25F60, symSize: 0x14 }
  - { offset: 0x2FCB46, size: 0x8, addend: 0x0, symName: __ZNKSt3__110__function6__funcIZN4grpc22CallbackGenericService7HandlerEvEUlPNS2_21CallbackServerContextEE_NS_9allocatorIS6_EEFPNS2_17ServerBidiReactorINS2_10ByteBufferESA_EES5_EE7__cloneEPNS0_6__baseISD_EE, symObjAddr: 0x6BA0, symBinAddr: 0x25F60, symSize: 0x14 }
  - { offset: 0x2FCB5A, size: 0x8, addend: 0x0, symName: __ZNKSt3__110__function6__funcIZN4grpc22CallbackGenericService7HandlerEvEUlPNS2_21CallbackServerContextEE_NS_9allocatorIS6_EEFPNS2_17ServerBidiReactorINS2_10ByteBufferESA_EES5_EE7__cloneEPNS0_6__baseISD_EE, symObjAddr: 0x6BA0, symBinAddr: 0x25F60, symSize: 0x14 }
  - { offset: 0x2FCB6E, size: 0x8, addend: 0x0, symName: __ZNKSt3__110__function6__funcIZN4grpc22CallbackGenericService7HandlerEvEUlPNS2_21CallbackServerContextEE_NS_9allocatorIS6_EEFPNS2_17ServerBidiReactorINS2_10ByteBufferESA_EES5_EE7__cloneEPNS0_6__baseISD_EE, symObjAddr: 0x6BA0, symBinAddr: 0x25F60, symSize: 0x14 }
  - { offset: 0x2FCB83, size: 0x8, addend: 0x0, symName: __ZNKSt3__110__function6__funcIZN4grpc22CallbackGenericService7HandlerEvEUlPNS2_21CallbackServerContextEE_NS_9allocatorIS6_EEFPNS2_17ServerBidiReactorINS2_10ByteBufferESA_EES5_EE7__cloneEPNS0_6__baseISD_EE, symObjAddr: 0x6BA0, symBinAddr: 0x25F60, symSize: 0x14 }
  - { offset: 0x2FCB9B, size: 0x8, addend: 0x0, symName: __ZNSt3__110__function6__funcIZN4grpc22CallbackGenericService7HandlerEvEUlPNS2_21CallbackServerContextEE_NS_9allocatorIS6_EEFPNS2_17ServerBidiReactorINS2_10ByteBufferESA_EES5_EE7destroyEv, symObjAddr: 0x6BB4, symBinAddr: 0x25F74, symSize: 0x4 }
  - { offset: 0x2FCBEE, size: 0x8, addend: 0x0, symName: __ZNSt3__110__function6__funcIZN4grpc22CallbackGenericService7HandlerEvEUlPNS2_21CallbackServerContextEE_NS_9allocatorIS6_EEFPNS2_17ServerBidiReactorINS2_10ByteBufferESA_EES5_EE18destroy_deallocateEv, symObjAddr: 0x6BB8, symBinAddr: 0x25F78, symSize: 0x4 }
  - { offset: 0x2FCC24, size: 0x8, addend: 0x0, symName: __ZNSt3__110__function6__funcIZN4grpc22CallbackGenericService7HandlerEvEUlPNS2_21CallbackServerContextEE_NS_9allocatorIS6_EEFPNS2_17ServerBidiReactorINS2_10ByteBufferESA_EES5_EE18destroy_deallocateEv, symObjAddr: 0x6BB8, symBinAddr: 0x25F78, symSize: 0x4 }
  - { offset: 0x2FCC47, size: 0x8, addend: 0x0, symName: __ZNSt3__110__function6__funcIZN4grpc22CallbackGenericService7HandlerEvEUlPNS2_21CallbackServerContextEE_NS_9allocatorIS6_EEFPNS2_17ServerBidiReactorINS2_10ByteBufferESA_EES5_EE18destroy_deallocateEv, symObjAddr: 0x6BB8, symBinAddr: 0x25F78, symSize: 0x4 }
  - { offset: 0x2FCC74, size: 0x8, addend: 0x0, symName: __ZNSt3__110__function6__funcIZN4grpc22CallbackGenericService7HandlerEvEUlPNS2_21CallbackServerContextEE_NS_9allocatorIS6_EEFPNS2_17ServerBidiReactorINS2_10ByteBufferESA_EES5_EE18destroy_deallocateEv, symObjAddr: 0x6BB8, symBinAddr: 0x25F78, symSize: 0x4 }
  - { offset: 0x2FCC9C, size: 0x8, addend: 0x0, symName: __ZNSt3__110__function6__funcIZN4grpc22CallbackGenericService7HandlerEvEUlPNS2_21CallbackServerContextEE_NS_9allocatorIS6_EEFPNS2_17ServerBidiReactorINS2_10ByteBufferESA_EES5_EE18destroy_deallocateEv, symObjAddr: 0x6BB8, symBinAddr: 0x25F78, symSize: 0x4 }
  - { offset: 0x2FCD46, size: 0x8, addend: 0x0, symName: __ZNSt3__110__function6__funcIZN4grpc22CallbackGenericService7HandlerEvEUlPNS2_21CallbackServerContextEE_NS_9allocatorIS6_EEFPNS2_17ServerBidiReactorINS2_10ByteBufferESA_EES5_EEclEOS5_, symObjAddr: 0x6BBC, symBinAddr: 0x25F7C, symSize: 0x14 }
  - { offset: 0x2FCD81, size: 0x8, addend: 0x0, symName: __ZNSt3__110__function6__funcIZN4grpc22CallbackGenericService7HandlerEvEUlPNS2_21CallbackServerContextEE_NS_9allocatorIS6_EEFPNS2_17ServerBidiReactorINS2_10ByteBufferESA_EES5_EEclEOS5_, symObjAddr: 0x6BBC, symBinAddr: 0x25F7C, symSize: 0x14 }
  - { offset: 0x2FCDA8, size: 0x8, addend: 0x0, symName: __ZNSt3__110__function6__funcIZN4grpc22CallbackGenericService7HandlerEvEUlPNS2_21CallbackServerContextEE_NS_9allocatorIS6_EEFPNS2_17ServerBidiReactorINS2_10ByteBufferESA_EES5_EEclEOS5_, symObjAddr: 0x6BBC, symBinAddr: 0x25F7C, symSize: 0x14 }
  - { offset: 0x2FCDCF, size: 0x8, addend: 0x0, symName: __ZNSt3__110__function6__funcIZN4grpc22CallbackGenericService7HandlerEvEUlPNS2_21CallbackServerContextEE_NS_9allocatorIS6_EEFPNS2_17ServerBidiReactorINS2_10ByteBufferESA_EES5_EEclEOS5_, symObjAddr: 0x6BBC, symBinAddr: 0x25F7C, symSize: 0x14 }
  - { offset: 0x2FCE23, size: 0x8, addend: 0x0, symName: __ZNKSt3__110__function6__funcIZN4grpc22CallbackGenericService7HandlerEvEUlPNS2_21CallbackServerContextEE_NS_9allocatorIS6_EEFPNS2_17ServerBidiReactorINS2_10ByteBufferESA_EES5_EE6targetERKSt9type_info, symObjAddr: 0x6BD0, symBinAddr: 0x25F90, symSize: 0x3C }
  - { offset: 0x2FCE73, size: 0x8, addend: 0x0, symName: __ZNKSt3__110__function6__funcIZN4grpc22CallbackGenericService7HandlerEvEUlPNS2_21CallbackServerContextEE_NS_9allocatorIS6_EEFPNS2_17ServerBidiReactorINS2_10ByteBufferESA_EES5_EE11target_typeEv, symObjAddr: 0x6C0C, symBinAddr: 0x25FCC, symSize: 0xC }
  - { offset: 0x2FCEB9, size: 0x8, addend: 0x0, symName: __ZN4grpc8internal19CallbackBidiHandlerINS_10ByteBufferES2_ED1Ev, symObjAddr: 0x6C18, symBinAddr: 0x25FD8, symSize: 0x60 }
  - { offset: 0x2FCF9D, size: 0x8, addend: 0x0, symName: __ZN4grpc8internal19CallbackBidiHandlerINS_10ByteBufferES2_ED0Ev, symObjAddr: 0x6C78, symBinAddr: 0x26038, symSize: 0x60 }
  - { offset: 0x2FD39B, size: 0x8, addend: 0x0, symName: __ZN4grpc8internal19CallbackBidiHandlerINS_10ByteBufferES2_E30ServerCallbackReaderWriterImplC2EPNS_21CallbackServerContextEPNS0_4CallENSt3__18functionIFvvEEE, symObjAddr: 0x727C, symBinAddr: 0x265D8, symSize: 0x204 }
  - { offset: 0x2FDEF4, size: 0x8, addend: 0x0, symName: __ZN4grpc8internal17FinishOnlyReactorINS_17ServerBidiReactorINS_10ByteBufferES3_EEEC2ENS_6StatusE, symObjAddr: 0xA564, symBinAddr: 0x2768C, symSize: 0xF0 }
  - { offset: 0x2FE450, size: 0x8, addend: 0x0, symName: __ZN4grpc8internal13MethodHandler11DeserializeEP9grpc_callP16grpc_byte_bufferPNS_6StatusEPPv, symObjAddr: 0x6F54, symBinAddr: 0x26314, symSize: 0x30 }
  - { offset: 0x2FE4D5, size: 0x8, addend: 0x0, symName: __ZNSt3__110__function12__value_funcIFPN4grpc17ServerBidiReactorINS2_10ByteBufferES4_EEPNS2_21CallbackServerContextEEEC2B8ne180100EOSA_, symObjAddr: 0x6F84, symBinAddr: 0x26344, symSize: 0x64 }
  - { offset: 0x2FE4EF, size: 0x8, addend: 0x0, symName: __ZN4grpc8internal13MethodHandler11DeserializeEP9grpc_callP16grpc_byte_bufferPNS_6StatusEPPv.cold.1, symObjAddr: 0xF084, symBinAddr: 0x30410, symSize: 0x44 }
  - { offset: 0x2FF60C, size: 0x8, addend: 0x0, symName: __ZN4grpc8internal9CallOpSetINS0_17CallOpRecvMessageINS_10ByteBufferEEENS0_8CallNoOpILi2EEENS5_ILi3EEENS5_ILi4EEENS5_ILi5EEENS5_ILi6EEEED1Ev, symObjAddr: 0x7480, symBinAddr: 0x267DC, symSize: 0x44 }
  - { offset: 0x2FF746, size: 0x8, addend: 0x0, symName: __ZN4grpc8internal19CallbackBidiHandlerINS_10ByteBufferES2_E30ServerCallbackReaderWriterImplD1Ev, symObjAddr: 0x75F4, symBinAddr: 0x26820, symSize: 0x4 }
  - { offset: 0x2FF769, size: 0x8, addend: 0x0, symName: __ZN4grpc8internal19CallbackBidiHandlerINS_10ByteBufferES2_E30ServerCallbackReaderWriterImplD1Ev, symObjAddr: 0x75F4, symBinAddr: 0x26820, symSize: 0x4 }
  - { offset: 0x2FF77D, size: 0x8, addend: 0x0, symName: __ZN4grpc8internal19CallbackBidiHandlerINS_10ByteBufferES2_E30ServerCallbackReaderWriterImplD2Ev, symObjAddr: 0x9B2C, symBinAddr: 0x27280, symSize: 0x178 }
  - { offset: 0x2FFF59, size: 0x8, addend: 0x0, symName: __ZN4grpc8internal19CallbackBidiHandlerINS_10ByteBufferES2_E30ServerCallbackReaderWriterImplD0Ev, symObjAddr: 0x75F8, symBinAddr: 0x26824, symSize: 0x14 }
  - { offset: 0x2FFFEA, size: 0x8, addend: 0x0, symName: __ZN4grpc8internal19CallbackBidiHandlerINS_10ByteBufferES2_E30ServerCallbackReaderWriterImpl7reactorEv, symObjAddr: 0x760C, symBinAddr: 0x26838, symSize: 0x8 }
  - { offset: 0x300013, size: 0x8, addend: 0x0, symName: __ZN4grpc8internal19CallbackBidiHandlerINS_10ByteBufferES2_E30ServerCallbackReaderWriterImpl7reactorEv, symObjAddr: 0x760C, symBinAddr: 0x26838, symSize: 0x8 }
  - { offset: 0x300039, size: 0x8, addend: 0x0, symName: __ZN4grpc8internal19CallbackBidiHandlerINS_10ByteBufferES2_E30ServerCallbackReaderWriterImpl7reactorEv, symObjAddr: 0x760C, symBinAddr: 0x26838, symSize: 0x8 }
  - { offset: 0x30005E, size: 0x8, addend: 0x0, symName: __ZN4grpc8internal19CallbackBidiHandlerINS_10ByteBufferES2_E30ServerCallbackReaderWriterImpl4callEv, symObjAddr: 0x7614, symBinAddr: 0x26840, symSize: 0x8 }
  - { offset: 0x300087, size: 0x8, addend: 0x0, symName: __ZN4grpc8internal19CallbackBidiHandlerINS_10ByteBufferES2_E30ServerCallbackReaderWriterImpl4callEv, symObjAddr: 0x7614, symBinAddr: 0x26840, symSize: 0x8 }
  - { offset: 0x3000F4, size: 0x8, addend: 0x0, symName: __ZN4grpc8internal19CallbackBidiHandlerINS_10ByteBufferES2_E30ServerCallbackReaderWriterImpl10CallOnDoneEv, symObjAddr: 0x76A4, symBinAddr: 0x26848, symSize: 0x128 }
  - { offset: 0x3007E9, size: 0x8, addend: 0x0, symName: __ZN4grpc8internal19CallbackBidiHandlerINS_10ByteBufferES2_E30ServerCallbackReaderWriterImpl19SendInitialMetadataEv.cold.1, symObjAddr: 0xF0C8, symBinAddr: 0x30454, symSize: 0x28 }
  - { offset: 0x300823, size: 0x8, addend: 0x0, symName: __ZN4grpc8internal19CallbackBidiHandlerINS_10ByteBufferES2_E30ServerCallbackReaderWriterImpl4ReadEPS2_, symObjAddr: 0x7AAC, symBinAddr: 0x26C50, symSize: 0x34 }
  - { offset: 0x30085C, size: 0x8, addend: 0x0, symName: __ZN4grpc8internal19CallbackBidiHandlerINS_10ByteBufferES2_E30ServerCallbackReaderWriterImpl4ReadEPS2_, symObjAddr: 0x7AAC, symBinAddr: 0x26C50, symSize: 0x34 }
  - { offset: 0x300974, size: 0x8, addend: 0x0, symName: __ZN4grpc8internal19CallbackBidiHandlerINS_10ByteBufferES2_E30ServerCallbackReaderWriterImpl5WriteEPKS2_NS_12WriteOptionsE, symObjAddr: 0x7AE0, symBinAddr: 0x26C84, symSize: 0xC0 }
  - { offset: 0x300D09, size: 0x8, addend: 0x0, symName: __ZN4grpc8internal19CallbackBidiHandlerINS_10ByteBufferES2_E30ServerCallbackReaderWriterImpl14WriteAndFinishEPKS2_NS_12WriteOptionsENS_6StatusE, symObjAddr: 0x7BA0, symBinAddr: 0x26D44, symSize: 0xC8 }
  - { offset: 0x3016BD, size: 0x8, addend: 0x0, symName: __ZN4grpc8internal9CallOpSetINS0_17CallOpRecvMessageINS_10ByteBufferEEENS0_8CallNoOpILi2EEENS5_ILi3EEENS5_ILi4EEENS5_ILi5EEENS5_ILi6EEEED0Ev, symObjAddr: 0x952C, symBinAddr: 0x26E0C, symSize: 0x44 }
  - { offset: 0x3017A2, size: 0x8, addend: 0x0, symName: __ZN4grpc8internal9CallOpSetINS0_17CallOpRecvMessageINS_10ByteBufferEEENS0_8CallNoOpILi2EEENS5_ILi3EEENS5_ILi4EEENS5_ILi5EEENS5_ILi6EEEE14FinalizeResultEPPvPb, symObjAddr: 0x9570, symBinAddr: 0x26E50, symSize: 0xA0 }
  - { offset: 0x301888, size: 0x8, addend: 0x0, symName: __ZN4grpc8internal17CallOpRecvMessageINS_10ByteBufferEE8FinishOpEPb, symObjAddr: 0x9828, symBinAddr: 0x27108, symSize: 0xC4 }
  - { offset: 0x301C03, size: 0x8, addend: 0x0, symName: __ZN4grpc8internal9CallOpSetINS0_17CallOpRecvMessageINS_10ByteBufferEEENS0_8CallNoOpILi2EEENS5_ILi3EEENS5_ILi4EEENS5_ILi5EEENS5_ILi6EEEE23RunInterceptorsPostRecvEv, symObjAddr: 0x98EC, symBinAddr: 0x271CC, symSize: 0x30 }
  - { offset: 0x301D0E, size: 0x8, addend: 0x0, symName: __ZN4grpc8internal9CallOpSetINS0_17CallOpRecvMessageINS_10ByteBufferEEENS0_8CallNoOpILi2EEENS5_ILi3EEENS5_ILi4EEENS5_ILi5EEENS5_ILi6EEEE7FillOpsEPNS0_4CallE, symObjAddr: 0x9610, symBinAddr: 0x26EF0, symSize: 0x64 }
  - { offset: 0x301D92, size: 0x8, addend: 0x0, symName: __ZN4grpc8internal9CallOpSetINS0_17CallOpRecvMessageINS_10ByteBufferEEENS0_8CallNoOpILi2EEENS5_ILi3EEENS5_ILi4EEENS5_ILi5EEENS5_ILi6EEEE15RunInterceptorsEv, symObjAddr: 0x99E4, symBinAddr: 0x271FC, symSize: 0x84 }
  - { offset: 0x301DBB, size: 0x8, addend: 0x0, symName: __ZN4grpc8internal9CallOpSetINS0_17CallOpRecvMessageINS_10ByteBufferEEENS0_8CallNoOpILi2EEENS5_ILi3EEENS5_ILi4EEENS5_ILi5EEENS5_ILi6EEEE15RunInterceptorsEv, symObjAddr: 0x99E4, symBinAddr: 0x271FC, symSize: 0x84 }
  - { offset: 0x301F40, size: 0x8, addend: 0x0, symName: __ZN4grpc8internal9CallOpSetINS0_17CallOpRecvMessageINS_10ByteBufferEEENS0_8CallNoOpILi2EEENS5_ILi3EEENS5_ILi4EEENS5_ILi5EEENS5_ILi6EEEE11core_cq_tagEv, symObjAddr: 0x9674, symBinAddr: 0x26F54, symSize: 0x8 }
  - { offset: 0x301F89, size: 0x8, addend: 0x0, symName: __ZN4grpc8internal9CallOpSetINS0_17CallOpRecvMessageINS_10ByteBufferEEENS0_8CallNoOpILi2EEENS5_ILi3EEENS5_ILi4EEENS5_ILi5EEENS5_ILi6EEEE17SetHijackingStateEv, symObjAddr: 0x967C, symBinAddr: 0x26F5C, symSize: 0x1C }
  - { offset: 0x302043, size: 0x8, addend: 0x0, symName: __ZN4grpc8internal9CallOpSetINS0_17CallOpRecvMessageINS_10ByteBufferEEENS0_8CallNoOpILi2EEENS5_ILi3EEENS5_ILi4EEENS5_ILi5EEENS5_ILi6EEEE39ContinueFinalizeResultAfterInterceptionEv, symObjAddr: 0x97CC, symBinAddr: 0x270AC, symSize: 0x5C }
  - { offset: 0x3020C9, size: 0x8, addend: 0x0, symName: __ZN4grpc8internal17CallOpRecvMessageINS_10ByteBufferEE8FinishOpEPb, symObjAddr: 0x9828, symBinAddr: 0x27108, symSize: 0xC4 }
  - { offset: 0x3024E0, size: 0x8, addend: 0x0, symName: __ZNSt3__110__function6__funcIZN4grpc8internal19CallbackBidiHandlerINS2_10ByteBufferES5_E30ServerCallbackReaderWriterImpl6FinishENS2_6StatusEEUlbE_NS_9allocatorIS9_EEFvbEED1Ev, symObjAddr: 0x9FBC, symBinAddr: 0x273F8, symSize: 0x4 }
  - { offset: 0x30250B, size: 0x8, addend: 0x0, symName: __ZNSt3__110__function6__funcIZN4grpc8internal19CallbackBidiHandlerINS2_10ByteBufferES5_E30ServerCallbackReaderWriterImpl6FinishENS2_6StatusEEUlbE_NS_9allocatorIS9_EEFvbEED0Ev, symObjAddr: 0x9FC0, symBinAddr: 0x273FC, symSize: 0x4 }
  - { offset: 0x30270E, size: 0x8, addend: 0x0, symName: __ZNKSt3__110__function6__funcIZN4grpc8internal19CallbackBidiHandlerINS2_10ByteBufferES5_E30ServerCallbackReaderWriterImpl6FinishENS2_6StatusEEUlbE_NS_9allocatorIS9_EEFvbEE7__cloneEv, symObjAddr: 0x9FC4, symBinAddr: 0x27400, symSize: 0x34 }
  - { offset: 0x302A09, size: 0x8, addend: 0x0, symName: __ZNKSt3__110__function6__funcIZN4grpc8internal19CallbackBidiHandlerINS2_10ByteBufferES5_E30ServerCallbackReaderWriterImpl6FinishENS2_6StatusEEUlbE_NS_9allocatorIS9_EEFvbEE7__cloneEPNS0_6__baseISC_EE, symObjAddr: 0x9FF8, symBinAddr: 0x27434, symSize: 0x14 }
  - { offset: 0x302A41, size: 0x8, addend: 0x0, symName: __ZNKSt3__110__function6__funcIZN4grpc8internal19CallbackBidiHandlerINS2_10ByteBufferES5_E30ServerCallbackReaderWriterImpl6FinishENS2_6StatusEEUlbE_NS_9allocatorIS9_EEFvbEE7__cloneEPNS0_6__baseISC_EE, symObjAddr: 0x9FF8, symBinAddr: 0x27434, symSize: 0x14 }
  - { offset: 0x302A6F, size: 0x8, addend: 0x0, symName: __ZNKSt3__110__function6__funcIZN4grpc8internal19CallbackBidiHandlerINS2_10ByteBufferES5_E30ServerCallbackReaderWriterImpl6FinishENS2_6StatusEEUlbE_NS_9allocatorIS9_EEFvbEE7__cloneEPNS0_6__baseISC_EE, symObjAddr: 0x9FF8, symBinAddr: 0x27434, symSize: 0x14 }
  - { offset: 0x302A9D, size: 0x8, addend: 0x0, symName: __ZNKSt3__110__function6__funcIZN4grpc8internal19CallbackBidiHandlerINS2_10ByteBufferES5_E30ServerCallbackReaderWriterImpl6FinishENS2_6StatusEEUlbE_NS_9allocatorIS9_EEFvbEE7__cloneEPNS0_6__baseISC_EE, symObjAddr: 0x9FF8, symBinAddr: 0x27434, symSize: 0x14 }
  - { offset: 0x302AB2, size: 0x8, addend: 0x0, symName: __ZNKSt3__110__function6__funcIZN4grpc8internal19CallbackBidiHandlerINS2_10ByteBufferES5_E30ServerCallbackReaderWriterImpl6FinishENS2_6StatusEEUlbE_NS_9allocatorIS9_EEFvbEE7__cloneEPNS0_6__baseISC_EE, symObjAddr: 0x9FF8, symBinAddr: 0x27434, symSize: 0x14 }
  - { offset: 0x302AC6, size: 0x8, addend: 0x0, symName: __ZNKSt3__110__function6__funcIZN4grpc8internal19CallbackBidiHandlerINS2_10ByteBufferES5_E30ServerCallbackReaderWriterImpl6FinishENS2_6StatusEEUlbE_NS_9allocatorIS9_EEFvbEE7__cloneEPNS0_6__baseISC_EE, symObjAddr: 0x9FF8, symBinAddr: 0x27434, symSize: 0x14 }
  - { offset: 0x302ADA, size: 0x8, addend: 0x0, symName: __ZNKSt3__110__function6__funcIZN4grpc8internal19CallbackBidiHandlerINS2_10ByteBufferES5_E30ServerCallbackReaderWriterImpl6FinishENS2_6StatusEEUlbE_NS_9allocatorIS9_EEFvbEE7__cloneEPNS0_6__baseISC_EE, symObjAddr: 0x9FF8, symBinAddr: 0x27434, symSize: 0x14 }
  - { offset: 0x302AEF, size: 0x8, addend: 0x0, symName: __ZNKSt3__110__function6__funcIZN4grpc8internal19CallbackBidiHandlerINS2_10ByteBufferES5_E30ServerCallbackReaderWriterImpl6FinishENS2_6StatusEEUlbE_NS_9allocatorIS9_EEFvbEE7__cloneEPNS0_6__baseISC_EE, symObjAddr: 0x9FF8, symBinAddr: 0x27434, symSize: 0x14 }
  - { offset: 0x302B07, size: 0x8, addend: 0x0, symName: __ZNSt3__110__function6__funcIZN4grpc8internal19CallbackBidiHandlerINS2_10ByteBufferES5_E30ServerCallbackReaderWriterImpl6FinishENS2_6StatusEEUlbE_NS_9allocatorIS9_EEFvbEE7destroyEv, symObjAddr: 0xA00C, symBinAddr: 0x27448, symSize: 0x4 }
  - { offset: 0x302B5A, size: 0x8, addend: 0x0, symName: __ZNSt3__110__function6__funcIZN4grpc8internal19CallbackBidiHandlerINS2_10ByteBufferES5_E30ServerCallbackReaderWriterImpl6FinishENS2_6StatusEEUlbE_NS_9allocatorIS9_EEFvbEE18destroy_deallocateEv, symObjAddr: 0xA010, symBinAddr: 0x2744C, symSize: 0x4 }
  - { offset: 0x302B90, size: 0x8, addend: 0x0, symName: __ZNSt3__110__function6__funcIZN4grpc8internal19CallbackBidiHandlerINS2_10ByteBufferES5_E30ServerCallbackReaderWriterImpl6FinishENS2_6StatusEEUlbE_NS_9allocatorIS9_EEFvbEE18destroy_deallocateEv, symObjAddr: 0xA010, symBinAddr: 0x2744C, symSize: 0x4 }
  - { offset: 0x302BB3, size: 0x8, addend: 0x0, symName: __ZNSt3__110__function6__funcIZN4grpc8internal19CallbackBidiHandlerINS2_10ByteBufferES5_E30ServerCallbackReaderWriterImpl6FinishENS2_6StatusEEUlbE_NS_9allocatorIS9_EEFvbEE18destroy_deallocateEv, symObjAddr: 0xA010, symBinAddr: 0x2744C, symSize: 0x4 }
  - { offset: 0x302BE0, size: 0x8, addend: 0x0, symName: __ZNSt3__110__function6__funcIZN4grpc8internal19CallbackBidiHandlerINS2_10ByteBufferES5_E30ServerCallbackReaderWriterImpl6FinishENS2_6StatusEEUlbE_NS_9allocatorIS9_EEFvbEE18destroy_deallocateEv, symObjAddr: 0xA010, symBinAddr: 0x2744C, symSize: 0x4 }
  - { offset: 0x302C08, size: 0x8, addend: 0x0, symName: __ZNSt3__110__function6__funcIZN4grpc8internal19CallbackBidiHandlerINS2_10ByteBufferES5_E30ServerCallbackReaderWriterImpl6FinishENS2_6StatusEEUlbE_NS_9allocatorIS9_EEFvbEE18destroy_deallocateEv, symObjAddr: 0xA010, symBinAddr: 0x2744C, symSize: 0x4 }
  - { offset: 0x302CB0, size: 0x8, addend: 0x0, symName: __ZNSt3__110__function6__funcIZN4grpc8internal19CallbackBidiHandlerINS2_10ByteBufferES5_E30ServerCallbackReaderWriterImpl6FinishENS2_6StatusEEUlbE_NS_9allocatorIS9_EEFvbEEclEOb, symObjAddr: 0xA014, symBinAddr: 0x27450, symSize: 0x28 }
  - { offset: 0x302DB5, size: 0x8, addend: 0x0, symName: __ZNKSt3__110__function6__funcIZN4grpc8internal19CallbackBidiHandlerINS2_10ByteBufferES5_E30ServerCallbackReaderWriterImpl6FinishENS2_6StatusEEUlbE_NS_9allocatorIS9_EEFvbEE6targetERKSt9type_info, symObjAddr: 0xA03C, symBinAddr: 0x27478, symSize: 0x3C }
  - { offset: 0x302E05, size: 0x8, addend: 0x0, symName: __ZNKSt3__110__function6__funcIZN4grpc8internal19CallbackBidiHandlerINS2_10ByteBufferES5_E30ServerCallbackReaderWriterImpl6FinishENS2_6StatusEEUlbE_NS_9allocatorIS9_EEFvbEE11target_typeEv, symObjAddr: 0xA078, symBinAddr: 0x274B4, symSize: 0xC }
  - { offset: 0x302E2E, size: 0x8, addend: 0x0, symName: __ZNSt3__110__function6__funcIZN4grpc8internal19CallbackBidiHandlerINS2_10ByteBufferES5_E30ServerCallbackReaderWriterImpl19SendInitialMetadataEvEUlbE_NS_9allocatorIS8_EEFvbEED1Ev, symObjAddr: 0xA084, symBinAddr: 0x274C0, symSize: 0x4 }
  - { offset: 0x302E59, size: 0x8, addend: 0x0, symName: __ZNSt3__110__function6__funcIZN4grpc8internal19CallbackBidiHandlerINS2_10ByteBufferES5_E30ServerCallbackReaderWriterImpl19SendInitialMetadataEvEUlbE_NS_9allocatorIS8_EEFvbEED0Ev, symObjAddr: 0xA088, symBinAddr: 0x274C4, symSize: 0x4 }
  - { offset: 0x30305C, size: 0x8, addend: 0x0, symName: __ZNKSt3__110__function6__funcIZN4grpc8internal19CallbackBidiHandlerINS2_10ByteBufferES5_E30ServerCallbackReaderWriterImpl19SendInitialMetadataEvEUlbE_NS_9allocatorIS8_EEFvbEE7__cloneEv, symObjAddr: 0xA08C, symBinAddr: 0x274C8, symSize: 0x34 }
  - { offset: 0x303357, size: 0x8, addend: 0x0, symName: __ZNKSt3__110__function6__funcIZN4grpc8internal19CallbackBidiHandlerINS2_10ByteBufferES5_E30ServerCallbackReaderWriterImpl19SendInitialMetadataEvEUlbE_NS_9allocatorIS8_EEFvbEE7__cloneEPNS0_6__baseISB_EE, symObjAddr: 0xA0C0, symBinAddr: 0x274FC, symSize: 0x14 }
  - { offset: 0x30338F, size: 0x8, addend: 0x0, symName: __ZNKSt3__110__function6__funcIZN4grpc8internal19CallbackBidiHandlerINS2_10ByteBufferES5_E30ServerCallbackReaderWriterImpl19SendInitialMetadataEvEUlbE_NS_9allocatorIS8_EEFvbEE7__cloneEPNS0_6__baseISB_EE, symObjAddr: 0xA0C0, symBinAddr: 0x274FC, symSize: 0x14 }
  - { offset: 0x3033BD, size: 0x8, addend: 0x0, symName: __ZNKSt3__110__function6__funcIZN4grpc8internal19CallbackBidiHandlerINS2_10ByteBufferES5_E30ServerCallbackReaderWriterImpl19SendInitialMetadataEvEUlbE_NS_9allocatorIS8_EEFvbEE7__cloneEPNS0_6__baseISB_EE, symObjAddr: 0xA0C0, symBinAddr: 0x274FC, symSize: 0x14 }
  - { offset: 0x3033EB, size: 0x8, addend: 0x0, symName: __ZNKSt3__110__function6__funcIZN4grpc8internal19CallbackBidiHandlerINS2_10ByteBufferES5_E30ServerCallbackReaderWriterImpl19SendInitialMetadataEvEUlbE_NS_9allocatorIS8_EEFvbEE7__cloneEPNS0_6__baseISB_EE, symObjAddr: 0xA0C0, symBinAddr: 0x274FC, symSize: 0x14 }
  - { offset: 0x303400, size: 0x8, addend: 0x0, symName: __ZNKSt3__110__function6__funcIZN4grpc8internal19CallbackBidiHandlerINS2_10ByteBufferES5_E30ServerCallbackReaderWriterImpl19SendInitialMetadataEvEUlbE_NS_9allocatorIS8_EEFvbEE7__cloneEPNS0_6__baseISB_EE, symObjAddr: 0xA0C0, symBinAddr: 0x274FC, symSize: 0x14 }
  - { offset: 0x303414, size: 0x8, addend: 0x0, symName: __ZNKSt3__110__function6__funcIZN4grpc8internal19CallbackBidiHandlerINS2_10ByteBufferES5_E30ServerCallbackReaderWriterImpl19SendInitialMetadataEvEUlbE_NS_9allocatorIS8_EEFvbEE7__cloneEPNS0_6__baseISB_EE, symObjAddr: 0xA0C0, symBinAddr: 0x274FC, symSize: 0x14 }
  - { offset: 0x303428, size: 0x8, addend: 0x0, symName: __ZNKSt3__110__function6__funcIZN4grpc8internal19CallbackBidiHandlerINS2_10ByteBufferES5_E30ServerCallbackReaderWriterImpl19SendInitialMetadataEvEUlbE_NS_9allocatorIS8_EEFvbEE7__cloneEPNS0_6__baseISB_EE, symObjAddr: 0xA0C0, symBinAddr: 0x274FC, symSize: 0x14 }
  - { offset: 0x30343D, size: 0x8, addend: 0x0, symName: __ZNKSt3__110__function6__funcIZN4grpc8internal19CallbackBidiHandlerINS2_10ByteBufferES5_E30ServerCallbackReaderWriterImpl19SendInitialMetadataEvEUlbE_NS_9allocatorIS8_EEFvbEE7__cloneEPNS0_6__baseISB_EE, symObjAddr: 0xA0C0, symBinAddr: 0x274FC, symSize: 0x14 }
  - { offset: 0x303455, size: 0x8, addend: 0x0, symName: __ZNSt3__110__function6__funcIZN4grpc8internal19CallbackBidiHandlerINS2_10ByteBufferES5_E30ServerCallbackReaderWriterImpl19SendInitialMetadataEvEUlbE_NS_9allocatorIS8_EEFvbEE7destroyEv, symObjAddr: 0xA0D4, symBinAddr: 0x27510, symSize: 0x4 }
  - { offset: 0x3034A8, size: 0x8, addend: 0x0, symName: __ZNSt3__110__function6__funcIZN4grpc8internal19CallbackBidiHandlerINS2_10ByteBufferES5_E30ServerCallbackReaderWriterImpl19SendInitialMetadataEvEUlbE_NS_9allocatorIS8_EEFvbEE18destroy_deallocateEv, symObjAddr: 0xA0D8, symBinAddr: 0x27514, symSize: 0x4 }
  - { offset: 0x3034DE, size: 0x8, addend: 0x0, symName: __ZNSt3__110__function6__funcIZN4grpc8internal19CallbackBidiHandlerINS2_10ByteBufferES5_E30ServerCallbackReaderWriterImpl19SendInitialMetadataEvEUlbE_NS_9allocatorIS8_EEFvbEE18destroy_deallocateEv, symObjAddr: 0xA0D8, symBinAddr: 0x27514, symSize: 0x4 }
  - { offset: 0x303501, size: 0x8, addend: 0x0, symName: __ZNSt3__110__function6__funcIZN4grpc8internal19CallbackBidiHandlerINS2_10ByteBufferES5_E30ServerCallbackReaderWriterImpl19SendInitialMetadataEvEUlbE_NS_9allocatorIS8_EEFvbEE18destroy_deallocateEv, symObjAddr: 0xA0D8, symBinAddr: 0x27514, symSize: 0x4 }
  - { offset: 0x30352E, size: 0x8, addend: 0x0, symName: __ZNSt3__110__function6__funcIZN4grpc8internal19CallbackBidiHandlerINS2_10ByteBufferES5_E30ServerCallbackReaderWriterImpl19SendInitialMetadataEvEUlbE_NS_9allocatorIS8_EEFvbEE18destroy_deallocateEv, symObjAddr: 0xA0D8, symBinAddr: 0x27514, symSize: 0x4 }
  - { offset: 0x303556, size: 0x8, addend: 0x0, symName: __ZNSt3__110__function6__funcIZN4grpc8internal19CallbackBidiHandlerINS2_10ByteBufferES5_E30ServerCallbackReaderWriterImpl19SendInitialMetadataEvEUlbE_NS_9allocatorIS8_EEFvbEE18destroy_deallocateEv, symObjAddr: 0xA0D8, symBinAddr: 0x27514, symSize: 0x4 }
  - { offset: 0x3035A2, size: 0x8, addend: 0x0, symName: __ZNSt3__110__function6__funcIZN4grpc8internal19CallbackBidiHandlerINS2_10ByteBufferES5_E30ServerCallbackReaderWriterImpl19SendInitialMetadataEvEUlbE_NS_9allocatorIS8_EEFvbEEclEOb, symObjAddr: 0xA0DC, symBinAddr: 0x27518, symSize: 0x8 }
  - { offset: 0x303615, size: 0x8, addend: 0x0, symName: __ZNSt3__128__invoke_void_return_wrapperIvLb1EE6__callB8ne180100IJRZN4grpc8internal19CallbackBidiHandlerINS3_10ByteBufferES6_E30ServerCallbackReaderWriterImpl19SendInitialMetadataEvEUlbE_bEEEvDpOT_, symObjAddr: 0xA12C, symBinAddr: 0x27568, symSize: 0x5C }
  - { offset: 0x30378C, size: 0x8, addend: 0x0, symName: __ZNKSt3__110__function6__funcIZN4grpc8internal19CallbackBidiHandlerINS2_10ByteBufferES5_E30ServerCallbackReaderWriterImpl19SendInitialMetadataEvEUlbE_NS_9allocatorIS8_EEFvbEE6targetERKSt9type_info, symObjAddr: 0xA0E4, symBinAddr: 0x27520, symSize: 0x3C }
  - { offset: 0x3037DC, size: 0x8, addend: 0x0, symName: __ZNKSt3__110__function6__funcIZN4grpc8internal19CallbackBidiHandlerINS2_10ByteBufferES5_E30ServerCallbackReaderWriterImpl19SendInitialMetadataEvEUlbE_NS_9allocatorIS8_EEFvbEE11target_typeEv, symObjAddr: 0xA120, symBinAddr: 0x2755C, symSize: 0xC }
  - { offset: 0x303C0E, size: 0x8, addend: 0x0, symName: __ZNSt3__110__function6__funcIZN4grpc8internal19CallbackBidiHandlerINS2_10ByteBufferES5_E10RunHandlerERKNS3_13MethodHandler16HandlerParameterEEUlbE_NS_9allocatorISB_EEFvbEED1Ev, symObjAddr: 0xA49C, symBinAddr: 0x275C4, symSize: 0x4 }
  - { offset: 0x303C39, size: 0x8, addend: 0x0, symName: __ZNSt3__110__function6__funcIZN4grpc8internal19CallbackBidiHandlerINS2_10ByteBufferES5_E10RunHandlerERKNS3_13MethodHandler16HandlerParameterEEUlbE_NS_9allocatorISB_EEFvbEED0Ev, symObjAddr: 0xA4A0, symBinAddr: 0x275C8, symSize: 0x4 }
  - { offset: 0x303E3C, size: 0x8, addend: 0x0, symName: __ZNKSt3__110__function6__funcIZN4grpc8internal19CallbackBidiHandlerINS2_10ByteBufferES5_E10RunHandlerERKNS3_13MethodHandler16HandlerParameterEEUlbE_NS_9allocatorISB_EEFvbEE7__cloneEv, symObjAddr: 0xA4A4, symBinAddr: 0x275CC, symSize: 0x34 }
  - { offset: 0x304137, size: 0x8, addend: 0x0, symName: __ZNKSt3__110__function6__funcIZN4grpc8internal19CallbackBidiHandlerINS2_10ByteBufferES5_E10RunHandlerERKNS3_13MethodHandler16HandlerParameterEEUlbE_NS_9allocatorISB_EEFvbEE7__cloneEPNS0_6__baseISE_EE, symObjAddr: 0xA4D8, symBinAddr: 0x27600, symSize: 0x14 }
  - { offset: 0x30416F, size: 0x8, addend: 0x0, symName: __ZNKSt3__110__function6__funcIZN4grpc8internal19CallbackBidiHandlerINS2_10ByteBufferES5_E10RunHandlerERKNS3_13MethodHandler16HandlerParameterEEUlbE_NS_9allocatorISB_EEFvbEE7__cloneEPNS0_6__baseISE_EE, symObjAddr: 0xA4D8, symBinAddr: 0x27600, symSize: 0x14 }
  - { offset: 0x30419D, size: 0x8, addend: 0x0, symName: __ZNKSt3__110__function6__funcIZN4grpc8internal19CallbackBidiHandlerINS2_10ByteBufferES5_E10RunHandlerERKNS3_13MethodHandler16HandlerParameterEEUlbE_NS_9allocatorISB_EEFvbEE7__cloneEPNS0_6__baseISE_EE, symObjAddr: 0xA4D8, symBinAddr: 0x27600, symSize: 0x14 }
  - { offset: 0x3041CB, size: 0x8, addend: 0x0, symName: __ZNKSt3__110__function6__funcIZN4grpc8internal19CallbackBidiHandlerINS2_10ByteBufferES5_E10RunHandlerERKNS3_13MethodHandler16HandlerParameterEEUlbE_NS_9allocatorISB_EEFvbEE7__cloneEPNS0_6__baseISE_EE, symObjAddr: 0xA4D8, symBinAddr: 0x27600, symSize: 0x14 }
  - { offset: 0x3041E0, size: 0x8, addend: 0x0, symName: __ZNKSt3__110__function6__funcIZN4grpc8internal19CallbackBidiHandlerINS2_10ByteBufferES5_E10RunHandlerERKNS3_13MethodHandler16HandlerParameterEEUlbE_NS_9allocatorISB_EEFvbEE7__cloneEPNS0_6__baseISE_EE, symObjAddr: 0xA4D8, symBinAddr: 0x27600, symSize: 0x14 }
  - { offset: 0x3041F4, size: 0x8, addend: 0x0, symName: __ZNKSt3__110__function6__funcIZN4grpc8internal19CallbackBidiHandlerINS2_10ByteBufferES5_E10RunHandlerERKNS3_13MethodHandler16HandlerParameterEEUlbE_NS_9allocatorISB_EEFvbEE7__cloneEPNS0_6__baseISE_EE, symObjAddr: 0xA4D8, symBinAddr: 0x27600, symSize: 0x14 }
  - { offset: 0x304208, size: 0x8, addend: 0x0, symName: __ZNKSt3__110__function6__funcIZN4grpc8internal19CallbackBidiHandlerINS2_10ByteBufferES5_E10RunHandlerERKNS3_13MethodHandler16HandlerParameterEEUlbE_NS_9allocatorISB_EEFvbEE7__cloneEPNS0_6__baseISE_EE, symObjAddr: 0xA4D8, symBinAddr: 0x27600, symSize: 0x14 }
  - { offset: 0x30421D, size: 0x8, addend: 0x0, symName: __ZNKSt3__110__function6__funcIZN4grpc8internal19CallbackBidiHandlerINS2_10ByteBufferES5_E10RunHandlerERKNS3_13MethodHandler16HandlerParameterEEUlbE_NS_9allocatorISB_EEFvbEE7__cloneEPNS0_6__baseISE_EE, symObjAddr: 0xA4D8, symBinAddr: 0x27600, symSize: 0x14 }
  - { offset: 0x304235, size: 0x8, addend: 0x0, symName: __ZNSt3__110__function6__funcIZN4grpc8internal19CallbackBidiHandlerINS2_10ByteBufferES5_E10RunHandlerERKNS3_13MethodHandler16HandlerParameterEEUlbE_NS_9allocatorISB_EEFvbEE7destroyEv, symObjAddr: 0xA4EC, symBinAddr: 0x27614, symSize: 0x4 }
  - { offset: 0x304288, size: 0x8, addend: 0x0, symName: __ZNSt3__110__function6__funcIZN4grpc8internal19CallbackBidiHandlerINS2_10ByteBufferES5_E10RunHandlerERKNS3_13MethodHandler16HandlerParameterEEUlbE_NS_9allocatorISB_EEFvbEE18destroy_deallocateEv, symObjAddr: 0xA4F0, symBinAddr: 0x27618, symSize: 0x4 }
  - { offset: 0x3042BE, size: 0x8, addend: 0x0, symName: __ZNSt3__110__function6__funcIZN4grpc8internal19CallbackBidiHandlerINS2_10ByteBufferES5_E10RunHandlerERKNS3_13MethodHandler16HandlerParameterEEUlbE_NS_9allocatorISB_EEFvbEE18destroy_deallocateEv, symObjAddr: 0xA4F0, symBinAddr: 0x27618, symSize: 0x4 }
  - { offset: 0x3042E1, size: 0x8, addend: 0x0, symName: __ZNSt3__110__function6__funcIZN4grpc8internal19CallbackBidiHandlerINS2_10ByteBufferES5_E10RunHandlerERKNS3_13MethodHandler16HandlerParameterEEUlbE_NS_9allocatorISB_EEFvbEE18destroy_deallocateEv, symObjAddr: 0xA4F0, symBinAddr: 0x27618, symSize: 0x4 }
  - { offset: 0x30430E, size: 0x8, addend: 0x0, symName: __ZNSt3__110__function6__funcIZN4grpc8internal19CallbackBidiHandlerINS2_10ByteBufferES5_E10RunHandlerERKNS3_13MethodHandler16HandlerParameterEEUlbE_NS_9allocatorISB_EEFvbEE18destroy_deallocateEv, symObjAddr: 0xA4F0, symBinAddr: 0x27618, symSize: 0x4 }
  - { offset: 0x304336, size: 0x8, addend: 0x0, symName: __ZNSt3__110__function6__funcIZN4grpc8internal19CallbackBidiHandlerINS2_10ByteBufferES5_E10RunHandlerERKNS3_13MethodHandler16HandlerParameterEEUlbE_NS_9allocatorISB_EEFvbEE18destroy_deallocateEv, symObjAddr: 0xA4F0, symBinAddr: 0x27618, symSize: 0x4 }
  - { offset: 0x3043DE, size: 0x8, addend: 0x0, symName: __ZNSt3__110__function6__funcIZN4grpc8internal19CallbackBidiHandlerINS2_10ByteBufferES5_E10RunHandlerERKNS3_13MethodHandler16HandlerParameterEEUlbE_NS_9allocatorISB_EEFvbEEclEOb, symObjAddr: 0xA4F4, symBinAddr: 0x2761C, symSize: 0x28 }
  - { offset: 0x304507, size: 0x8, addend: 0x0, symName: __ZNKSt3__110__function6__funcIZN4grpc8internal19CallbackBidiHandlerINS2_10ByteBufferES5_E10RunHandlerERKNS3_13MethodHandler16HandlerParameterEEUlbE_NS_9allocatorISB_EEFvbEE6targetERKSt9type_info, symObjAddr: 0xA51C, symBinAddr: 0x27644, symSize: 0x3C }
  - { offset: 0x304557, size: 0x8, addend: 0x0, symName: __ZNKSt3__110__function6__funcIZN4grpc8internal19CallbackBidiHandlerINS2_10ByteBufferES5_E10RunHandlerERKNS3_13MethodHandler16HandlerParameterEEUlbE_NS_9allocatorISB_EEFvbEE11target_typeEv, symObjAddr: 0xA558, symBinAddr: 0x27680, symSize: 0xC }
  - { offset: 0x3045DE, size: 0x8, addend: 0x0, symName: __ZN4grpc17ServerBidiReactorINS_10ByteBufferES1_E6FinishENS_6StatusE, symObjAddr: 0xA654, symBinAddr: 0x2777C, symSize: 0x15C }
  - { offset: 0x304E42, size: 0x8, addend: 0x0, symName: __ZN4grpc17ServerBidiReactorINS_10ByteBufferES1_ED2Ev, symObjAddr: 0xA7B0, symBinAddr: 0x278D8, symSize: 0x5C }
  - { offset: 0x305257, size: 0x8, addend: 0x0, symName: __ZN4grpc8internal17FinishOnlyReactorINS_17ServerBidiReactorINS_10ByteBufferES3_EEED1Ev, symObjAddr: 0xA80C, symBinAddr: 0x27934, symSize: 0x4 }
  - { offset: 0x305279, size: 0x8, addend: 0x0, symName: __ZN4grpc8internal17FinishOnlyReactorINS_17ServerBidiReactorINS_10ByteBufferES3_EEED1Ev, symObjAddr: 0xA80C, symBinAddr: 0x27934, symSize: 0x4 }
  - { offset: 0x305297, size: 0x8, addend: 0x0, symName: __ZN4grpc8internal17FinishOnlyReactorINS_17ServerBidiReactorINS_10ByteBufferES3_EEED1Ev, symObjAddr: 0xA80C, symBinAddr: 0x27934, symSize: 0x4 }
  - { offset: 0x3052C8, size: 0x8, addend: 0x0, symName: __ZN4grpc8internal17FinishOnlyReactorINS_17ServerBidiReactorINS_10ByteBufferES3_EEED0Ev, symObjAddr: 0xA810, symBinAddr: 0x27938, symSize: 0x14 }
  - { offset: 0x305345, size: 0x8, addend: 0x0, symName: __ZN4grpc8internal17FinishOnlyReactorINS_17ServerBidiReactorINS_10ByteBufferES3_EEE6OnDoneEv, symObjAddr: 0xA824, symBinAddr: 0x2794C, symSize: 0xC }
  - { offset: 0x30537F, size: 0x8, addend: 0x0, symName: __ZN4grpc17ServerBidiReactorINS_10ByteBufferES1_E8OnCancelEv, symObjAddr: 0xA830, symBinAddr: 0x27958, symSize: 0x4 }
  - { offset: 0x3053A4, size: 0x8, addend: 0x0, symName: __ZN4grpc17ServerBidiReactorINS_10ByteBufferES1_E25OnSendInitialMetadataDoneEb, symObjAddr: 0xA83C, symBinAddr: 0x2795C, symSize: 0x4 }
  - { offset: 0x3053D9, size: 0x8, addend: 0x0, symName: __ZN4grpc17ServerBidiReactorINS_10ByteBufferES1_E10OnReadDoneEb, symObjAddr: 0xA840, symBinAddr: 0x27960, symSize: 0x4 }
  - { offset: 0x30540E, size: 0x8, addend: 0x0, symName: __ZN4grpc17ServerBidiReactorINS_10ByteBufferES1_E11OnWriteDoneEb, symObjAddr: 0xA844, symBinAddr: 0x27964, symSize: 0x4 }
  - { offset: 0x305479, size: 0x8, addend: 0x0, symName: __ZN4grpc17ServerBidiReactorINS_10ByteBufferES1_E18InternalBindStreamEPNS_26ServerCallbackReaderWriterIS1_S1_EE, symObjAddr: 0xA848, symBinAddr: 0x27968, symSize: 0x198 }
  - { offset: 0x305819, size: 0x8, addend: 0x0, symName: __ZN4grpc17ServerBidiReactorINS_10ByteBufferES1_ED1Ev, symObjAddr: 0xA9E0, symBinAddr: 0x301AC, symSize: 0x4 }
  - { offset: 0x305842, size: 0x8, addend: 0x0, symName: __ZN4grpc17ServerBidiReactorINS_10ByteBufferES1_ED0Ev, symObjAddr: 0xA9E4, symBinAddr: 0x301B0, symSize: 0x4 }
  - { offset: 0x30586B, size: 0x8, addend: 0x0, symName: __ZNSt3__110__function6__funcIZN4grpc8internal19CallbackBidiHandlerINS2_10ByteBufferES5_E30ServerCallbackReaderWriterImpl12SetupReactorEPNS2_17ServerBidiReactorIS5_S5_EEEUlbE_NS_9allocatorISB_EEFvbEED1Ev, symObjAddr: 0xA9E8, symBinAddr: 0x27B00, symSize: 0x4 }
  - { offset: 0x305896, size: 0x8, addend: 0x0, symName: __ZNSt3__110__function6__funcIZN4grpc8internal19CallbackBidiHandlerINS2_10ByteBufferES5_E30ServerCallbackReaderWriterImpl12SetupReactorEPNS2_17ServerBidiReactorIS5_S5_EEEUlbE_NS_9allocatorISB_EEFvbEED0Ev, symObjAddr: 0xA9EC, symBinAddr: 0x27B04, symSize: 0x4 }
  - { offset: 0x305A99, size: 0x8, addend: 0x0, symName: __ZNKSt3__110__function6__funcIZN4grpc8internal19CallbackBidiHandlerINS2_10ByteBufferES5_E30ServerCallbackReaderWriterImpl12SetupReactorEPNS2_17ServerBidiReactorIS5_S5_EEEUlbE_NS_9allocatorISB_EEFvbEE7__cloneEv, symObjAddr: 0xA9F0, symBinAddr: 0x27B08, symSize: 0x38 }
  - { offset: 0x305DC1, size: 0x8, addend: 0x0, symName: __ZNKSt3__110__function6__funcIZN4grpc8internal19CallbackBidiHandlerINS2_10ByteBufferES5_E30ServerCallbackReaderWriterImpl12SetupReactorEPNS2_17ServerBidiReactorIS5_S5_EEEUlbE_NS_9allocatorISB_EEFvbEE7__cloneEPNS0_6__baseISE_EE, symObjAddr: 0xAA28, symBinAddr: 0x27B40, symSize: 0x18 }
  - { offset: 0x305DF9, size: 0x8, addend: 0x0, symName: __ZNKSt3__110__function6__funcIZN4grpc8internal19CallbackBidiHandlerINS2_10ByteBufferES5_E30ServerCallbackReaderWriterImpl12SetupReactorEPNS2_17ServerBidiReactorIS5_S5_EEEUlbE_NS_9allocatorISB_EEFvbEE7__cloneEPNS0_6__baseISE_EE, symObjAddr: 0xAA28, symBinAddr: 0x27B40, symSize: 0x18 }
  - { offset: 0x305E27, size: 0x8, addend: 0x0, symName: __ZNKSt3__110__function6__funcIZN4grpc8internal19CallbackBidiHandlerINS2_10ByteBufferES5_E30ServerCallbackReaderWriterImpl12SetupReactorEPNS2_17ServerBidiReactorIS5_S5_EEEUlbE_NS_9allocatorISB_EEFvbEE7__cloneEPNS0_6__baseISE_EE, symObjAddr: 0xAA28, symBinAddr: 0x27B40, symSize: 0x18 }
  - { offset: 0x305F3D, size: 0x8, addend: 0x0, symName: __ZNSt3__110__function6__funcIZN4grpc8internal19CallbackBidiHandlerINS2_10ByteBufferES5_E30ServerCallbackReaderWriterImpl12SetupReactorEPNS2_17ServerBidiReactorIS5_S5_EEEUlbE_NS_9allocatorISB_EEFvbEE7destroyEv, symObjAddr: 0xAA40, symBinAddr: 0x27B58, symSize: 0x4 }
  - { offset: 0x305F90, size: 0x8, addend: 0x0, symName: __ZNSt3__110__function6__funcIZN4grpc8internal19CallbackBidiHandlerINS2_10ByteBufferES5_E30ServerCallbackReaderWriterImpl12SetupReactorEPNS2_17ServerBidiReactorIS5_S5_EEEUlbE_NS_9allocatorISB_EEFvbEE18destroy_deallocateEv, symObjAddr: 0xAA44, symBinAddr: 0x27B5C, symSize: 0x4 }
  - { offset: 0x305FC6, size: 0x8, addend: 0x0, symName: __ZNSt3__110__function6__funcIZN4grpc8internal19CallbackBidiHandlerINS2_10ByteBufferES5_E30ServerCallbackReaderWriterImpl12SetupReactorEPNS2_17ServerBidiReactorIS5_S5_EEEUlbE_NS_9allocatorISB_EEFvbEE18destroy_deallocateEv, symObjAddr: 0xAA44, symBinAddr: 0x27B5C, symSize: 0x4 }
  - { offset: 0x305FE9, size: 0x8, addend: 0x0, symName: __ZNSt3__110__function6__funcIZN4grpc8internal19CallbackBidiHandlerINS2_10ByteBufferES5_E30ServerCallbackReaderWriterImpl12SetupReactorEPNS2_17ServerBidiReactorIS5_S5_EEEUlbE_NS_9allocatorISB_EEFvbEE18destroy_deallocateEv, symObjAddr: 0xAA44, symBinAddr: 0x27B5C, symSize: 0x4 }
  - { offset: 0x306016, size: 0x8, addend: 0x0, symName: __ZNSt3__110__function6__funcIZN4grpc8internal19CallbackBidiHandlerINS2_10ByteBufferES5_E30ServerCallbackReaderWriterImpl12SetupReactorEPNS2_17ServerBidiReactorIS5_S5_EEEUlbE_NS_9allocatorISB_EEFvbEE18destroy_deallocateEv, symObjAddr: 0xAA44, symBinAddr: 0x27B5C, symSize: 0x4 }
  - { offset: 0x30603E, size: 0x8, addend: 0x0, symName: __ZNSt3__110__function6__funcIZN4grpc8internal19CallbackBidiHandlerINS2_10ByteBufferES5_E30ServerCallbackReaderWriterImpl12SetupReactorEPNS2_17ServerBidiReactorIS5_S5_EEEUlbE_NS_9allocatorISB_EEFvbEE18destroy_deallocateEv, symObjAddr: 0xAA44, symBinAddr: 0x27B5C, symSize: 0x4 }
  - { offset: 0x30608A, size: 0x8, addend: 0x0, symName: __ZNSt3__110__function6__funcIZN4grpc8internal19CallbackBidiHandlerINS2_10ByteBufferES5_E30ServerCallbackReaderWriterImpl12SetupReactorEPNS2_17ServerBidiReactorIS5_S5_EEEUlbE_NS_9allocatorISB_EEFvbEEclEOb, symObjAddr: 0xAA48, symBinAddr: 0x27B60, symSize: 0x8 }
  - { offset: 0x3060FD, size: 0x8, addend: 0x0, symName: __ZNSt3__128__invoke_void_return_wrapperIvLb1EE6__callB8ne180100IJRZN4grpc8internal19CallbackBidiHandlerINS3_10ByteBufferES6_E30ServerCallbackReaderWriterImpl12SetupReactorEPNS3_17ServerBidiReactorIS6_S6_EEEUlbE_bEEEvDpOT_, symObjAddr: 0xAA98, symBinAddr: 0x27BB0, symSize: 0x58 }
  - { offset: 0x30621D, size: 0x8, addend: 0x0, symName: __ZNKSt3__110__function6__funcIZN4grpc8internal19CallbackBidiHandlerINS2_10ByteBufferES5_E30ServerCallbackReaderWriterImpl12SetupReactorEPNS2_17ServerBidiReactorIS5_S5_EEEUlbE_NS_9allocatorISB_EEFvbEE6targetERKSt9type_info, symObjAddr: 0xAA50, symBinAddr: 0x27B68, symSize: 0x3C }
  - { offset: 0x30626D, size: 0x8, addend: 0x0, symName: __ZNKSt3__110__function6__funcIZN4grpc8internal19CallbackBidiHandlerINS2_10ByteBufferES5_E30ServerCallbackReaderWriterImpl12SetupReactorEPNS2_17ServerBidiReactorIS5_S5_EEEUlbE_NS_9allocatorISB_EEFvbEE11target_typeEv, symObjAddr: 0xAA8C, symBinAddr: 0x27BA4, symSize: 0xC }
  - { offset: 0x3062C1, size: 0x8, addend: 0x0, symName: __ZNSt3__110__function6__funcIZN4grpc8internal19CallbackBidiHandlerINS2_10ByteBufferES5_E30ServerCallbackReaderWriterImpl12SetupReactorEPNS2_17ServerBidiReactorIS5_S5_EEEUlbE0_NS_9allocatorISB_EEFvbEED1Ev, symObjAddr: 0xAAF0, symBinAddr: 0x27C08, symSize: 0x4 }
  - { offset: 0x3062EC, size: 0x8, addend: 0x0, symName: __ZNSt3__110__function6__funcIZN4grpc8internal19CallbackBidiHandlerINS2_10ByteBufferES5_E30ServerCallbackReaderWriterImpl12SetupReactorEPNS2_17ServerBidiReactorIS5_S5_EEEUlbE0_NS_9allocatorISB_EEFvbEED0Ev, symObjAddr: 0xAAF4, symBinAddr: 0x27C0C, symSize: 0x4 }
  - { offset: 0x3064EF, size: 0x8, addend: 0x0, symName: __ZNKSt3__110__function6__funcIZN4grpc8internal19CallbackBidiHandlerINS2_10ByteBufferES5_E30ServerCallbackReaderWriterImpl12SetupReactorEPNS2_17ServerBidiReactorIS5_S5_EEEUlbE0_NS_9allocatorISB_EEFvbEE7__cloneEv, symObjAddr: 0xAAF8, symBinAddr: 0x27C10, symSize: 0x38 }
  - { offset: 0x306817, size: 0x8, addend: 0x0, symName: __ZNKSt3__110__function6__funcIZN4grpc8internal19CallbackBidiHandlerINS2_10ByteBufferES5_E30ServerCallbackReaderWriterImpl12SetupReactorEPNS2_17ServerBidiReactorIS5_S5_EEEUlbE0_NS_9allocatorISB_EEFvbEE7__cloneEPNS0_6__baseISE_EE, symObjAddr: 0xAB30, symBinAddr: 0x27C48, symSize: 0x18 }
  - { offset: 0x30684F, size: 0x8, addend: 0x0, symName: __ZNKSt3__110__function6__funcIZN4grpc8internal19CallbackBidiHandlerINS2_10ByteBufferES5_E30ServerCallbackReaderWriterImpl12SetupReactorEPNS2_17ServerBidiReactorIS5_S5_EEEUlbE0_NS_9allocatorISB_EEFvbEE7__cloneEPNS0_6__baseISE_EE, symObjAddr: 0xAB30, symBinAddr: 0x27C48, symSize: 0x18 }
  - { offset: 0x30687D, size: 0x8, addend: 0x0, symName: __ZNKSt3__110__function6__funcIZN4grpc8internal19CallbackBidiHandlerINS2_10ByteBufferES5_E30ServerCallbackReaderWriterImpl12SetupReactorEPNS2_17ServerBidiReactorIS5_S5_EEEUlbE0_NS_9allocatorISB_EEFvbEE7__cloneEPNS0_6__baseISE_EE, symObjAddr: 0xAB30, symBinAddr: 0x27C48, symSize: 0x18 }
  - { offset: 0x306993, size: 0x8, addend: 0x0, symName: __ZNSt3__110__function6__funcIZN4grpc8internal19CallbackBidiHandlerINS2_10ByteBufferES5_E30ServerCallbackReaderWriterImpl12SetupReactorEPNS2_17ServerBidiReactorIS5_S5_EEEUlbE0_NS_9allocatorISB_EEFvbEE7destroyEv, symObjAddr: 0xAB48, symBinAddr: 0x27C60, symSize: 0x4 }
  - { offset: 0x3069E6, size: 0x8, addend: 0x0, symName: __ZNSt3__110__function6__funcIZN4grpc8internal19CallbackBidiHandlerINS2_10ByteBufferES5_E30ServerCallbackReaderWriterImpl12SetupReactorEPNS2_17ServerBidiReactorIS5_S5_EEEUlbE0_NS_9allocatorISB_EEFvbEE18destroy_deallocateEv, symObjAddr: 0xAB4C, symBinAddr: 0x27C64, symSize: 0x4 }
  - { offset: 0x306A1C, size: 0x8, addend: 0x0, symName: __ZNSt3__110__function6__funcIZN4grpc8internal19CallbackBidiHandlerINS2_10ByteBufferES5_E30ServerCallbackReaderWriterImpl12SetupReactorEPNS2_17ServerBidiReactorIS5_S5_EEEUlbE0_NS_9allocatorISB_EEFvbEE18destroy_deallocateEv, symObjAddr: 0xAB4C, symBinAddr: 0x27C64, symSize: 0x4 }
  - { offset: 0x306A3F, size: 0x8, addend: 0x0, symName: __ZNSt3__110__function6__funcIZN4grpc8internal19CallbackBidiHandlerINS2_10ByteBufferES5_E30ServerCallbackReaderWriterImpl12SetupReactorEPNS2_17ServerBidiReactorIS5_S5_EEEUlbE0_NS_9allocatorISB_EEFvbEE18destroy_deallocateEv, symObjAddr: 0xAB4C, symBinAddr: 0x27C64, symSize: 0x4 }
  - { offset: 0x306A6C, size: 0x8, addend: 0x0, symName: __ZNSt3__110__function6__funcIZN4grpc8internal19CallbackBidiHandlerINS2_10ByteBufferES5_E30ServerCallbackReaderWriterImpl12SetupReactorEPNS2_17ServerBidiReactorIS5_S5_EEEUlbE0_NS_9allocatorISB_EEFvbEE18destroy_deallocateEv, symObjAddr: 0xAB4C, symBinAddr: 0x27C64, symSize: 0x4 }
  - { offset: 0x306A94, size: 0x8, addend: 0x0, symName: __ZNSt3__110__function6__funcIZN4grpc8internal19CallbackBidiHandlerINS2_10ByteBufferES5_E30ServerCallbackReaderWriterImpl12SetupReactorEPNS2_17ServerBidiReactorIS5_S5_EEEUlbE0_NS_9allocatorISB_EEFvbEE18destroy_deallocateEv, symObjAddr: 0xAB4C, symBinAddr: 0x27C64, symSize: 0x4 }
  - { offset: 0x306AE0, size: 0x8, addend: 0x0, symName: __ZNSt3__110__function6__funcIZN4grpc8internal19CallbackBidiHandlerINS2_10ByteBufferES5_E30ServerCallbackReaderWriterImpl12SetupReactorEPNS2_17ServerBidiReactorIS5_S5_EEEUlbE0_NS_9allocatorISB_EEFvbEEclEOb, symObjAddr: 0xAB50, symBinAddr: 0x27C68, symSize: 0x8 }
  - { offset: 0x306B53, size: 0x8, addend: 0x0, symName: __ZNSt3__128__invoke_void_return_wrapperIvLb1EE6__callB8ne180100IJRZN4grpc8internal19CallbackBidiHandlerINS3_10ByteBufferES6_E30ServerCallbackReaderWriterImpl12SetupReactorEPNS3_17ServerBidiReactorIS6_S6_EEEUlbE0_bEEEvDpOT_, symObjAddr: 0xABA0, symBinAddr: 0x27CB8, symSize: 0x98 }
  - { offset: 0x306CF4, size: 0x8, addend: 0x0, symName: __ZNKSt3__110__function6__funcIZN4grpc8internal19CallbackBidiHandlerINS2_10ByteBufferES5_E30ServerCallbackReaderWriterImpl12SetupReactorEPNS2_17ServerBidiReactorIS5_S5_EEEUlbE0_NS_9allocatorISB_EEFvbEE6targetERKSt9type_info, symObjAddr: 0xAB58, symBinAddr: 0x27C70, symSize: 0x3C }
  - { offset: 0x306D44, size: 0x8, addend: 0x0, symName: __ZNKSt3__110__function6__funcIZN4grpc8internal19CallbackBidiHandlerINS2_10ByteBufferES5_E30ServerCallbackReaderWriterImpl12SetupReactorEPNS2_17ServerBidiReactorIS5_S5_EEEUlbE0_NS_9allocatorISB_EEFvbEE11target_typeEv, symObjAddr: 0xAB94, symBinAddr: 0x27CAC, symSize: 0xC }
  - { offset: 0x306E15, size: 0x8, addend: 0x0, symName: __ZN4grpc8internal18ErrorMethodHandlerILNS_10StatusCodeE12EED1Ev, symObjAddr: 0xAC38, symBinAddr: 0x27D50, symSize: 0x40 }
  - { offset: 0x306F9F, size: 0x8, addend: 0x0, symName: __ZN4grpc8internal18ErrorMethodHandlerILNS_10StatusCodeE12EED0Ev, symObjAddr: 0xAC78, symBinAddr: 0x27D90, symSize: 0x40 }
  - { offset: 0x3071A5, size: 0x8, addend: 0x0, symName: __ZN4grpc8internal18ErrorMethodHandlerILNS_10StatusCodeE12EE10RunHandlerERKNS0_13MethodHandler16HandlerParameterE, symObjAddr: 0xACB8, symBinAddr: 0x27DD0, symSize: 0x1D4 }
  - { offset: 0x307907, size: 0x8, addend: 0x0, symName: __ZN4grpc8internal18ErrorMethodHandlerILNS_10StatusCodeE12EE7FillOpsINS0_9CallOpSetINS0_25CallOpSendInitialMetadataENS0_22CallOpServerSendStatusENS0_8CallNoOpILi3EEENS8_ILi4EEENS8_ILi5EEENS8_ILi6EEEEEEEvPNS_17ServerContextBaseERKNSt3__112basic_stringIcNSG_11char_traitsIcEENSG_9allocatorIcEEEEPT_, symObjAddr: 0xAEAC, symBinAddr: 0x27FC4, symSize: 0xE4 }
  - { offset: 0x307E3C, size: 0x8, addend: 0x0, symName: __ZN4grpc8internal9CallOpSetINS0_25CallOpSendInitialMetadataENS0_22CallOpServerSendStatusENS0_8CallNoOpILi3EEENS4_ILi4EEENS4_ILi5EEENS4_ILi6EEEED1Ev, symObjAddr: 0xAF90, symBinAddr: 0x280A8, symSize: 0x54 }
  - { offset: 0x308127, size: 0x8, addend: 0x0, symName: __ZN4grpc8internal18ErrorMethodHandlerILNS_10StatusCodeE12EE11DeserializeEP9grpc_callP16grpc_byte_bufferPNS_6StatusEPPv, symObjAddr: 0xAE8C, symBinAddr: 0x27FA4, symSize: 0x20 }
  - { offset: 0x308198, size: 0x8, addend: 0x0, symName: __ZNSt3__110__function6__funcIZN4grpc6Server24SyncRequestThreadManager20AddUnknownSyncMethodEvEUlvE_NS_9allocatorIS5_EEFN9grpc_core6Server19BatchCallAllocationEvEED1Ev, symObjAddr: 0xAFE4, symBinAddr: 0x280FC, symSize: 0x4 }
  - { offset: 0x3081C3, size: 0x8, addend: 0x0, symName: __ZNSt3__110__function6__funcIZN4grpc6Server24SyncRequestThreadManager20AddUnknownSyncMethodEvEUlvE_NS_9allocatorIS5_EEFN9grpc_core6Server19BatchCallAllocationEvEED0Ev, symObjAddr: 0xAFE8, symBinAddr: 0x28100, symSize: 0x4 }
  - { offset: 0x3083C6, size: 0x8, addend: 0x0, symName: __ZNKSt3__110__function6__funcIZN4grpc6Server24SyncRequestThreadManager20AddUnknownSyncMethodEvEUlvE_NS_9allocatorIS5_EEFN9grpc_core6Server19BatchCallAllocationEvEE7__cloneEv, symObjAddr: 0xAFEC, symBinAddr: 0x28104, symSize: 0x34 }
  - { offset: 0x3086C1, size: 0x8, addend: 0x0, symName: __ZNKSt3__110__function6__funcIZN4grpc6Server24SyncRequestThreadManager20AddUnknownSyncMethodEvEUlvE_NS_9allocatorIS5_EEFN9grpc_core6Server19BatchCallAllocationEvEE7__cloneEPNS0_6__baseISB_EE, symObjAddr: 0xB020, symBinAddr: 0x28138, symSize: 0x14 }
  - { offset: 0x3086F9, size: 0x8, addend: 0x0, symName: __ZNKSt3__110__function6__funcIZN4grpc6Server24SyncRequestThreadManager20AddUnknownSyncMethodEvEUlvE_NS_9allocatorIS5_EEFN9grpc_core6Server19BatchCallAllocationEvEE7__cloneEPNS0_6__baseISB_EE, symObjAddr: 0xB020, symBinAddr: 0x28138, symSize: 0x14 }
  - { offset: 0x308727, size: 0x8, addend: 0x0, symName: __ZNKSt3__110__function6__funcIZN4grpc6Server24SyncRequestThreadManager20AddUnknownSyncMethodEvEUlvE_NS_9allocatorIS5_EEFN9grpc_core6Server19BatchCallAllocationEvEE7__cloneEPNS0_6__baseISB_EE, symObjAddr: 0xB020, symBinAddr: 0x28138, symSize: 0x14 }
  - { offset: 0x308755, size: 0x8, addend: 0x0, symName: __ZNKSt3__110__function6__funcIZN4grpc6Server24SyncRequestThreadManager20AddUnknownSyncMethodEvEUlvE_NS_9allocatorIS5_EEFN9grpc_core6Server19BatchCallAllocationEvEE7__cloneEPNS0_6__baseISB_EE, symObjAddr: 0xB020, symBinAddr: 0x28138, symSize: 0x14 }
  - { offset: 0x30876A, size: 0x8, addend: 0x0, symName: __ZNKSt3__110__function6__funcIZN4grpc6Server24SyncRequestThreadManager20AddUnknownSyncMethodEvEUlvE_NS_9allocatorIS5_EEFN9grpc_core6Server19BatchCallAllocationEvEE7__cloneEPNS0_6__baseISB_EE, symObjAddr: 0xB020, symBinAddr: 0x28138, symSize: 0x14 }
  - { offset: 0x30877E, size: 0x8, addend: 0x0, symName: __ZNKSt3__110__function6__funcIZN4grpc6Server24SyncRequestThreadManager20AddUnknownSyncMethodEvEUlvE_NS_9allocatorIS5_EEFN9grpc_core6Server19BatchCallAllocationEvEE7__cloneEPNS0_6__baseISB_EE, symObjAddr: 0xB020, symBinAddr: 0x28138, symSize: 0x14 }
  - { offset: 0x308792, size: 0x8, addend: 0x0, symName: __ZNKSt3__110__function6__funcIZN4grpc6Server24SyncRequestThreadManager20AddUnknownSyncMethodEvEUlvE_NS_9allocatorIS5_EEFN9grpc_core6Server19BatchCallAllocationEvEE7__cloneEPNS0_6__baseISB_EE, symObjAddr: 0xB020, symBinAddr: 0x28138, symSize: 0x14 }
  - { offset: 0x3087A7, size: 0x8, addend: 0x0, symName: __ZNKSt3__110__function6__funcIZN4grpc6Server24SyncRequestThreadManager20AddUnknownSyncMethodEvEUlvE_NS_9allocatorIS5_EEFN9grpc_core6Server19BatchCallAllocationEvEE7__cloneEPNS0_6__baseISB_EE, symObjAddr: 0xB020, symBinAddr: 0x28138, symSize: 0x14 }
  - { offset: 0x3087BF, size: 0x8, addend: 0x0, symName: __ZNSt3__110__function6__funcIZN4grpc6Server24SyncRequestThreadManager20AddUnknownSyncMethodEvEUlvE_NS_9allocatorIS5_EEFN9grpc_core6Server19BatchCallAllocationEvEE7destroyEv, symObjAddr: 0xB034, symBinAddr: 0x2814C, symSize: 0x4 }
